
Conv2d_basic_O3:     file format elf32-littleriscv


Disassembly of section .text:

00010094 <exit>:
   10094:	1141                	addi	sp,sp,-16
   10096:	4581                	li	a1,0
   10098:	c422                	sw	s0,8(sp)
   1009a:	c606                	sw	ra,12(sp)
   1009c:	842a                	mv	s0,a0
   1009e:	6ca010ef          	jal	11768 <__call_exitprocs>
   100a2:	f341a783          	lw	a5,-204(gp) # 1c9ac <__stdio_exit_handler>
   100a6:	c391                	beqz	a5,100aa <exit+0x16>
   100a8:	9782                	jalr	a5
   100aa:	8522                	mv	a0,s0
   100ac:	28c080ef          	jal	18338 <_exit>

000100b0 <main>:
   100b0:	deadc537          	lui	a0,0xdeadc
   100b4:	1101                	addi	sp,sp,-32
   100b6:	eef50513          	addi	a0,a0,-273 # deadbeef <__BSS_END__+0xdeabf223>
   100ba:	ce06                	sw	ra,28(sp)
   100bc:	cc22                	sw	s0,24(sp)
   100be:	ca26                	sw	s1,20(sp)
   100c0:	c84a                	sw	s2,16(sp)
   100c2:	c64e                	sw	s3,12(sp)
   100c4:	c452                	sw	s4,8(sp)
   100c6:	6b5000ef          	jal	10f7a <srand>
   100ca:	4591                	li	a1,4
   100cc:	4511                	li	a0,4
   100ce:	7be000ef          	jal	1088c <alloc_array_2d>
   100d2:	4611                	li	a2,4
   100d4:	4591                	li	a1,4
   100d6:	89aa                	mv	s3,a0
   100d8:	2b21                	jal	105f0 <gen_rand_2d>
   100da:	4611                	li	a2,4
   100dc:	4591                	li	a1,4
   100de:	854e                	mv	a0,s3
   100e0:	25a5                	jal	10748 <print_array_2d>
   100e2:	4589                	li	a1,2
   100e4:	4509                	li	a0,2
   100e6:	7a6000ef          	jal	1088c <alloc_array_2d>
   100ea:	892a                	mv	s2,a0
   100ec:	458d                	li	a1,3
   100ee:	450d                	li	a0,3
   100f0:	79c000ef          	jal	1088c <alloc_array_2d>
   100f4:	84aa                	mv	s1,a0
   100f6:	458d                	li	a1,3
   100f8:	450d                	li	a0,3
   100fa:	792000ef          	jal	1088c <alloc_array_2d>
   100fe:	411c                	lw	a5,0(a0)
   10100:	06e00093          	li	ra,110
   10104:	05300393          	li	t2,83
   10108:	00178023          	sb	ra,0(a5)
   1010c:	411c                	lw	a5,0(a0)
   1010e:	52f5                	li	t0,-3
   10110:	5fc5                	li	t6,-15
   10112:	007780a3          	sb	t2,1(a5)
   10116:	411c                	lw	a5,0(a0)
   10118:	5f11                	li	t5,-28
   1011a:	fc400e93          	li	t4,-60
   1011e:	00578123          	sb	t0,2(a5)
   10122:	415c                	lw	a5,4(a0)
   10124:	02f00e13          	li	t3,47
   10128:	5305                	li	t1,-31
   1012a:	01f78023          	sb	t6,0(a5)
   1012e:	415c                	lw	a5,4(a0)
   10130:	58f9                	li	a7,-2
   10132:	842a                	mv	s0,a0
   10134:	01e780a3          	sb	t5,1(a5)
   10138:	415c                	lw	a5,4(a0)
   1013a:	4711                	li	a4,4
   1013c:	4809                	li	a6,2
   1013e:	01d78123          	sb	t4,2(a5)
   10142:	4514                	lw	a3,8(a0)
   10144:	4789                	li	a5,2
   10146:	8626                	mv	a2,s1
   10148:	01c68023          	sb	t3,0(a3)
   1014c:	450c                	lw	a1,8(a0)
   1014e:	4691                	li	a3,4
   10150:	006580a3          	sb	t1,1(a1)
   10154:	00852a03          	lw	s4,8(a0)
   10158:	85ca                	mv	a1,s2
   1015a:	854e                	mv	a0,s3
   1015c:	011a0123          	sb	a7,2(s4)
   10160:	00042a03          	lw	s4,0(s0)
   10164:	001a0023          	sb	ra,0(s4)
   10168:	00042a03          	lw	s4,0(s0)
   1016c:	007a00a3          	sb	t2,1(s4)
   10170:	00042a03          	lw	s4,0(s0)
   10174:	005a0123          	sb	t0,2(s4)
   10178:	00442a03          	lw	s4,4(s0)
   1017c:	01fa0023          	sb	t6,0(s4)
   10180:	00442a03          	lw	s4,4(s0)
   10184:	01ea00a3          	sb	t5,1(s4)
   10188:	00442a03          	lw	s4,4(s0)
   1018c:	01da0123          	sb	t4,2(s4)
   10190:	00842a03          	lw	s4,8(s0)
   10194:	01ca0023          	sb	t3,0(s4)
   10198:	00842a03          	lw	s4,8(s0)
   1019c:	006a00a3          	sb	t1,1(s4)
   101a0:	00842a03          	lw	s4,8(s0)
   101a4:	011a0123          	sb	a7,2(s4)
   101a8:	00042a03          	lw	s4,0(s0)
   101ac:	001a0023          	sb	ra,0(s4)
   101b0:	00042a03          	lw	s4,0(s0)
   101b4:	007a00a3          	sb	t2,1(s4)
   101b8:	00042a03          	lw	s4,0(s0)
   101bc:	005a0123          	sb	t0,2(s4)
   101c0:	00442a03          	lw	s4,4(s0)
   101c4:	01fa0023          	sb	t6,0(s4)
   101c8:	00442a03          	lw	s4,4(s0)
   101cc:	01ea00a3          	sb	t5,1(s4)
   101d0:	00442a03          	lw	s4,4(s0)
   101d4:	01da0123          	sb	t4,2(s4)
   101d8:	00842a03          	lw	s4,8(s0)
   101dc:	01ca0023          	sb	t3,0(s4)
   101e0:	00842a03          	lw	s4,8(s0)
   101e4:	006a00a3          	sb	t1,1(s4)
   101e8:	00842a03          	lw	s4,8(s0)
   101ec:	011a0123          	sb	a7,2(s4)
   101f0:	00042a03          	lw	s4,0(s0)
   101f4:	001a0023          	sb	ra,0(s4)
   101f8:	00042a03          	lw	s4,0(s0)
   101fc:	007a00a3          	sb	t2,1(s4)
   10200:	00042a03          	lw	s4,0(s0)
   10204:	005a0123          	sb	t0,2(s4)
   10208:	00442a03          	lw	s4,4(s0)
   1020c:	01fa0023          	sb	t6,0(s4)
   10210:	00442a03          	lw	s4,4(s0)
   10214:	01ea00a3          	sb	t5,1(s4)
   10218:	00442a03          	lw	s4,4(s0)
   1021c:	01da0123          	sb	t4,2(s4)
   10220:	00842a03          	lw	s4,8(s0)
   10224:	01ca0023          	sb	t3,0(s4)
   10228:	00842a03          	lw	s4,8(s0)
   1022c:	006a00a3          	sb	t1,1(s4)
   10230:	00842a03          	lw	s4,8(s0)
   10234:	011a0123          	sb	a7,2(s4)
   10238:	00042a03          	lw	s4,0(s0)
   1023c:	001a0023          	sb	ra,0(s4)
   10240:	00042a03          	lw	s4,0(s0)
   10244:	007a00a3          	sb	t2,1(s4)
   10248:	00042a03          	lw	s4,0(s0)
   1024c:	005a0123          	sb	t0,2(s4)
   10250:	00442a03          	lw	s4,4(s0)
   10254:	01fa0023          	sb	t6,0(s4)
   10258:	00442a03          	lw	s4,4(s0)
   1025c:	01ea00a3          	sb	t5,1(s4)
   10260:	00442a03          	lw	s4,4(s0)
   10264:	01da0123          	sb	t4,2(s4)
   10268:	00842a03          	lw	s4,8(s0)
   1026c:	01ca0023          	sb	t3,0(s4)
   10270:	00842a03          	lw	s4,8(s0)
   10274:	006a00a3          	sb	t1,1(s4)
   10278:	00842a03          	lw	s4,8(s0)
   1027c:	011a0123          	sb	a7,2(s4)
   10280:	00042a03          	lw	s4,0(s0)
   10284:	001a0023          	sb	ra,0(s4)
   10288:	00042a03          	lw	s4,0(s0)
   1028c:	007a00a3          	sb	t2,1(s4)
   10290:	00042a03          	lw	s4,0(s0)
   10294:	005a0123          	sb	t0,2(s4)
   10298:	00442a03          	lw	s4,4(s0)
   1029c:	01fa0023          	sb	t6,0(s4)
   102a0:	00442a03          	lw	s4,4(s0)
   102a4:	01ea00a3          	sb	t5,1(s4)
   102a8:	00442a03          	lw	s4,4(s0)
   102ac:	01da0123          	sb	t4,2(s4)
   102b0:	00842a03          	lw	s4,8(s0)
   102b4:	01ca0023          	sb	t3,0(s4)
   102b8:	00842a03          	lw	s4,8(s0)
   102bc:	006a00a3          	sb	t1,1(s4)
   102c0:	00842a03          	lw	s4,8(s0)
   102c4:	011a0123          	sb	a7,2(s4)
   102c8:	00042a03          	lw	s4,0(s0)
   102cc:	001a0023          	sb	ra,0(s4)
   102d0:	00042a03          	lw	s4,0(s0)
   102d4:	007a00a3          	sb	t2,1(s4)
   102d8:	00042a03          	lw	s4,0(s0)
   102dc:	005a0123          	sb	t0,2(s4)
   102e0:	00442a03          	lw	s4,4(s0)
   102e4:	01fa0023          	sb	t6,0(s4)
   102e8:	00442a03          	lw	s4,4(s0)
   102ec:	01ea00a3          	sb	t5,1(s4)
   102f0:	00442a03          	lw	s4,4(s0)
   102f4:	01da0123          	sb	t4,2(s4)
   102f8:	00842a03          	lw	s4,8(s0)
   102fc:	01ca0023          	sb	t3,0(s4)
   10300:	00842a03          	lw	s4,8(s0)
   10304:	006a00a3          	sb	t1,1(s4)
   10308:	00842a03          	lw	s4,8(s0)
   1030c:	011a0123          	sb	a7,2(s4)
   10310:	00042a03          	lw	s4,0(s0)
   10314:	001a0023          	sb	ra,0(s4)
   10318:	00042a03          	lw	s4,0(s0)
   1031c:	007a00a3          	sb	t2,1(s4)
   10320:	00042a03          	lw	s4,0(s0)
   10324:	005a0123          	sb	t0,2(s4)
   10328:	00442a03          	lw	s4,4(s0)
   1032c:	01fa0023          	sb	t6,0(s4)
   10330:	00442a03          	lw	s4,4(s0)
   10334:	01ea00a3          	sb	t5,1(s4)
   10338:	00442a03          	lw	s4,4(s0)
   1033c:	01da0123          	sb	t4,2(s4)
   10340:	00842a03          	lw	s4,8(s0)
   10344:	01ca0023          	sb	t3,0(s4)
   10348:	00842a03          	lw	s4,8(s0)
   1034c:	006a00a3          	sb	t1,1(s4)
   10350:	00842a03          	lw	s4,8(s0)
   10354:	011a0123          	sb	a7,2(s4)
   10358:	00042a03          	lw	s4,0(s0)
   1035c:	001a0023          	sb	ra,0(s4)
   10360:	00042083          	lw	ra,0(s0)
   10364:	007080a3          	sb	t2,1(ra)
   10368:	00042383          	lw	t2,0(s0)
   1036c:	00538123          	sb	t0,2(t2)
   10370:	00442283          	lw	t0,4(s0)
   10374:	01f28023          	sb	t6,0(t0)
   10378:	00442f83          	lw	t6,4(s0)
   1037c:	01ef80a3          	sb	t5,1(t6)
   10380:	00442f03          	lw	t5,4(s0)
   10384:	01df0123          	sb	t4,2(t5)
   10388:	00842e83          	lw	t4,8(s0)
   1038c:	01ce8023          	sb	t3,0(t4)
   10390:	00842e03          	lw	t3,8(s0)
   10394:	006e00a3          	sb	t1,1(t3)
   10398:	00842303          	lw	t1,8(s0)
   1039c:	01130123          	sb	a7,2(t1)
   103a0:	00092883          	lw	a7,0(s2)
   103a4:	4305                	li	t1,1
   103a6:	00688023          	sb	t1,0(a7)
   103aa:	00092883          	lw	a7,0(s2)
   103ae:	537d                	li	t1,-1
   103b0:	000880a3          	sb	zero,1(a7)
   103b4:	00492883          	lw	a7,4(s2)
   103b8:	00088023          	sb	zero,0(a7)
   103bc:	00492883          	lw	a7,4(s2)
   103c0:	006880a3          	sb	t1,1(a7)
   103c4:	23b1                	jal	10910 <conv2d>
   103c6:	656d                	lui	a0,0x1b
   103c8:	a3450513          	addi	a0,a0,-1484 # 1aa34 <__clzsi2+0x9a>
   103cc:	7bb000ef          	jal	11386 <puts>
   103d0:	460d                	li	a2,3
   103d2:	458d                	li	a1,3
   103d4:	8526                	mv	a0,s1
   103d6:	2e8d                	jal	10748 <print_array_2d>
   103d8:	4098                	lw	a4,0(s1)
   103da:	401c                	lw	a5,0(s0)
   103dc:	00070603          	lb	a2,0(a4)
   103e0:	00078683          	lb	a3,0(a5)
   103e4:	0cd61163          	bne	a2,a3,104a6 <main+0x3f6>
   103e8:	00170603          	lb	a2,1(a4)
   103ec:	00178683          	lb	a3,1(a5)
   103f0:	0ad61b63          	bne	a2,a3,104a6 <main+0x3f6>
   103f4:	00270703          	lb	a4,2(a4)
   103f8:	00278783          	lb	a5,2(a5)
   103fc:	0af71563          	bne	a4,a5,104a6 <main+0x3f6>
   10400:	40dc                	lw	a5,4(s1)
   10402:	4058                	lw	a4,4(s0)
   10404:	00078603          	lb	a2,0(a5)
   10408:	00070683          	lb	a3,0(a4)
   1040c:	08d61d63          	bne	a2,a3,104a6 <main+0x3f6>
   10410:	00178603          	lb	a2,1(a5)
   10414:	00170683          	lb	a3,1(a4)
   10418:	08d61763          	bne	a2,a3,104a6 <main+0x3f6>
   1041c:	00270703          	lb	a4,2(a4)
   10420:	00278783          	lb	a5,2(a5)
   10424:	08f71163          	bne	a4,a5,104a6 <main+0x3f6>
   10428:	4498                	lw	a4,8(s1)
   1042a:	441c                	lw	a5,8(s0)
   1042c:	00070603          	lb	a2,0(a4)
   10430:	00078683          	lb	a3,0(a5)
   10434:	06d61963          	bne	a2,a3,104a6 <main+0x3f6>
   10438:	00170603          	lb	a2,1(a4)
   1043c:	00178683          	lb	a3,1(a5)
   10440:	06d61363          	bne	a2,a3,104a6 <main+0x3f6>
   10444:	00270703          	lb	a4,2(a4)
   10448:	00278783          	lb	a5,2(a5)
   1044c:	04f71d63          	bne	a4,a5,104a6 <main+0x3f6>
   10450:	65ed                	lui	a1,0x1b
   10452:	a1c58593          	addi	a1,a1,-1508 # 1aa1c <__clzsi2+0x82>
   10456:	656d                	lui	a0,0x1b
   10458:	a5050513          	addi	a0,a0,-1456 # 1aa50 <__clzsi2+0xb6>
   1045c:	671000ef          	jal	112cc <printf>
   10460:	844e                	mv	s0,s3
   10462:	01098a13          	addi	s4,s3,16
   10466:	4008                	lw	a0,0(s0)
   10468:	0411                	addi	s0,s0,4
   1046a:	2bb9                	jal	109c8 <free>
   1046c:	fe8a1de3          	bne	s4,s0,10466 <main+0x3b6>
   10470:	854e                	mv	a0,s3
   10472:	2b99                	jal	109c8 <free>
   10474:	4088                	lw	a0,0(s1)
   10476:	2b89                	jal	109c8 <free>
   10478:	40c8                	lw	a0,4(s1)
   1047a:	23b9                	jal	109c8 <free>
   1047c:	4488                	lw	a0,8(s1)
   1047e:	23a9                	jal	109c8 <free>
   10480:	8526                	mv	a0,s1
   10482:	2399                	jal	109c8 <free>
   10484:	00092503          	lw	a0,0(s2)
   10488:	2381                	jal	109c8 <free>
   1048a:	00492503          	lw	a0,4(s2)
   1048e:	2b2d                	jal	109c8 <free>
   10490:	854a                	mv	a0,s2
   10492:	2b1d                	jal	109c8 <free>
   10494:	40f2                	lw	ra,28(sp)
   10496:	4462                	lw	s0,24(sp)
   10498:	44d2                	lw	s1,20(sp)
   1049a:	4942                	lw	s2,16(sp)
   1049c:	49b2                	lw	s3,12(sp)
   1049e:	4a22                	lw	s4,8(sp)
   104a0:	4501                	li	a0,0
   104a2:	6105                	addi	sp,sp,32
   104a4:	8082                	ret
   104a6:	65ed                	lui	a1,0x1b
   104a8:	a2858593          	addi	a1,a1,-1496 # 1aa28 <__clzsi2+0x8e>
   104ac:	b76d                	j	10456 <main+0x3a6>

000104ae <register_fini>:
   104ae:	00000793          	li	a5,0
   104b2:	c791                	beqz	a5,104be <register_fini+0x10>
   104b4:	6555                	lui	a0,0x15
   104b6:	1ea50513          	addi	a0,a0,490 # 151ea <__libc_fini_array>
   104ba:	37c0106f          	j	11836 <atexit>
   104be:	8082                	ret

000104c0 <_start>:
   104c0:	0000c197          	auipc	gp,0xc
   104c4:	5b818193          	addi	gp,gp,1464 # 1ca78 <__global_pointer$>
   104c8:	f2818513          	addi	a0,gp,-216 # 1c9a0 <__malloc_max_total_mem>
   104cc:	25418613          	addi	a2,gp,596 # 1cccc <__BSS_END__>
   104d0:	8e09                	sub	a2,a2,a0
   104d2:	4581                	li	a1,0
   104d4:	188010ef          	jal	1165c <memset>
   104d8:	00001517          	auipc	a0,0x1
   104dc:	35e50513          	addi	a0,a0,862 # 11836 <atexit>
   104e0:	c519                	beqz	a0,104ee <_start+0x2e>
   104e2:	00005517          	auipc	a0,0x5
   104e6:	d0850513          	addi	a0,a0,-760 # 151ea <__libc_fini_array>
   104ea:	34c010ef          	jal	11836 <atexit>
   104ee:	104010ef          	jal	115f2 <__libc_init_array>
   104f2:	4502                	lw	a0,0(sp)
   104f4:	004c                	addi	a1,sp,4
   104f6:	4601                	li	a2,0
   104f8:	3e65                	jal	100b0 <main>
   104fa:	be69                	j	10094 <exit>

000104fc <__do_global_dtors_aux>:
   104fc:	1141                	addi	sp,sp,-16
   104fe:	c422                	sw	s0,8(sp)
   10500:	f481c783          	lbu	a5,-184(gp) # 1c9c0 <completed.1>
   10504:	c606                	sw	ra,12(sp)
   10506:	ef91                	bnez	a5,10522 <__do_global_dtors_aux+0x26>
   10508:	00000793          	li	a5,0
   1050c:	cb81                	beqz	a5,1051c <__do_global_dtors_aux+0x20>
   1050e:	6571                	lui	a0,0x1c
   10510:	26450513          	addi	a0,a0,612 # 1c264 <__EH_FRAME_BEGIN__>
   10514:	00000097          	auipc	ra,0x0
   10518:	000000e7          	jalr	zero # 0 <exit-0x10094>
   1051c:	4785                	li	a5,1
   1051e:	f4f18423          	sb	a5,-184(gp) # 1c9c0 <completed.1>
   10522:	40b2                	lw	ra,12(sp)
   10524:	4422                	lw	s0,8(sp)
   10526:	0141                	addi	sp,sp,16
   10528:	8082                	ret

0001052a <frame_dummy>:
   1052a:	00000793          	li	a5,0
   1052e:	cb91                	beqz	a5,10542 <frame_dummy+0x18>
   10530:	6571                	lui	a0,0x1c
   10532:	f4c18593          	addi	a1,gp,-180 # 1c9c4 <object.0>
   10536:	26450513          	addi	a0,a0,612 # 1c264 <__EH_FRAME_BEGIN__>
   1053a:	00000317          	auipc	t1,0x0
   1053e:	00000067          	jr	zero # 0 <exit-0x10094>
   10542:	8082                	ret

00010544 <gen_rand_1d>:
   10544:	04b05e63          	blez	a1,105a0 <gen_rand_1d+0x5c>
   10548:	ea81b787          	fld	fa5,-344(gp) # 1c920 <__SDATA_BEGIN__>
   1054c:	7179                	addi	sp,sp,-48
   1054e:	d422                	sw	s0,40(sp)
   10550:	d226                	sw	s1,36(sp)
   10552:	d04a                	sw	s2,32(sp)
   10554:	ce4e                	sw	s3,28(sp)
   10556:	d606                	sw	ra,44(sp)
   10558:	892e                	mv	s2,a1
   1055a:	a43e                	fsd	fa5,8(sp)
   1055c:	842a                	mv	s0,a0
   1055e:	4481                	li	s1,0
   10560:	3e800993          	li	s3,1000
   10564:	225000ef          	jal	10f88 <rand>
   10568:	27a2                	fld	fa5,8(sp)
   1056a:	d2050753          	fcvt.d.w	fa4,a0
   1056e:	0421                	addi	s0,s0,8
   10570:	0485                	addi	s1,s1,1
   10572:	1af77753          	fdiv.d	fa4,fa4,fa5
   10576:	a03a                	fsd	fa4,0(sp)
   10578:	211000ef          	jal	10f88 <rand>
   1057c:	03356533          	rem	a0,a0,s3
   10580:	2702                	fld	fa4,0(sp)
   10582:	d20507d3          	fcvt.d.w	fa5,a0
   10586:	02e7f7d3          	fadd.d	fa5,fa5,fa4
   1058a:	fef43c27          	fsd	fa5,-8(s0)
   1058e:	fc991be3          	bne	s2,s1,10564 <gen_rand_1d+0x20>
   10592:	50b2                	lw	ra,44(sp)
   10594:	5422                	lw	s0,40(sp)
   10596:	5492                	lw	s1,36(sp)
   10598:	5902                	lw	s2,32(sp)
   1059a:	49f2                	lw	s3,28(sp)
   1059c:	6145                	addi	sp,sp,48
   1059e:	8082                	ret
   105a0:	8082                	ret

000105a2 <gen_string>:
   105a2:	1101                	addi	sp,sp,-32
   105a4:	c64e                	sw	s3,12(sp)
   105a6:	c452                	sw	s4,8(sp)
   105a8:	ce06                	sw	ra,28(sp)
   105aa:	4785                	li	a5,1
   105ac:	8a2e                	mv	s4,a1
   105ae:	89aa                	mv	s3,a0
   105b0:	02b7d863          	bge	a5,a1,105e0 <gen_string+0x3e>
   105b4:	ca26                	sw	s1,20(sp)
   105b6:	fff50493          	addi	s1,a0,-1
   105ba:	cc22                	sw	s0,24(sp)
   105bc:	c84a                	sw	s2,16(sp)
   105be:	842a                	mv	s0,a0
   105c0:	94ae                	add	s1,s1,a1
   105c2:	07f00913          	li	s2,127
   105c6:	1c3000ef          	jal	10f88 <rand>
   105ca:	032567b3          	rem	a5,a0,s2
   105ce:	0405                	addi	s0,s0,1
   105d0:	0785                	addi	a5,a5,1
   105d2:	fef40fa3          	sb	a5,-1(s0)
   105d6:	fe9418e3          	bne	s0,s1,105c6 <gen_string+0x24>
   105da:	4462                	lw	s0,24(sp)
   105dc:	44d2                	lw	s1,20(sp)
   105de:	4942                	lw	s2,16(sp)
   105e0:	99d2                	add	s3,s3,s4
   105e2:	fe098fa3          	sb	zero,-1(s3)
   105e6:	40f2                	lw	ra,28(sp)
   105e8:	49b2                	lw	s3,12(sp)
   105ea:	4a22                	lw	s4,8(sp)
   105ec:	6105                	addi	sp,sp,32
   105ee:	8082                	ret

000105f0 <gen_rand_2d>:
   105f0:	06b05063          	blez	a1,10650 <gen_rand_2d+0x60>
   105f4:	1101                	addi	sp,sp,-32
   105f6:	ca26                	sw	s1,20(sp)
   105f8:	ce06                	sw	ra,28(sp)
   105fa:	84b2                	mv	s1,a2
   105fc:	04c05663          	blez	a2,10648 <gen_rand_2d+0x58>
   10600:	c84a                	sw	s2,16(sp)
   10602:	c64e                	sw	s3,12(sp)
   10604:	c452                	sw	s4,8(sp)
   10606:	cc22                	sw	s0,24(sp)
   10608:	89ae                	mv	s3,a1
   1060a:	8a2a                	mv	s4,a0
   1060c:	4901                	li	s2,0
   1060e:	4401                	li	s0,0
   10610:	179000ef          	jal	10f88 <rand>
   10614:	41f55793          	srai	a5,a0,0x1f
   10618:	83e5                	srli	a5,a5,0x19
   1061a:	000a2703          	lw	a4,0(s4)
   1061e:	953e                	add	a0,a0,a5
   10620:	07f57513          	andi	a0,a0,127
   10624:	8d1d                	sub	a0,a0,a5
   10626:	fc150513          	addi	a0,a0,-63
   1062a:	008707b3          	add	a5,a4,s0
   1062e:	00a78023          	sb	a0,0(a5)
   10632:	0405                	addi	s0,s0,1
   10634:	fc849ee3          	bne	s1,s0,10610 <gen_rand_2d+0x20>
   10638:	0905                	addi	s2,s2,1
   1063a:	0a11                	addi	s4,s4,4
   1063c:	fd2999e3          	bne	s3,s2,1060e <gen_rand_2d+0x1e>
   10640:	4462                	lw	s0,24(sp)
   10642:	4942                	lw	s2,16(sp)
   10644:	49b2                	lw	s3,12(sp)
   10646:	4a22                	lw	s4,8(sp)
   10648:	40f2                	lw	ra,28(sp)
   1064a:	44d2                	lw	s1,20(sp)
   1064c:	6105                	addi	sp,sp,32
   1064e:	8082                	ret
   10650:	8082                	ret

00010652 <print_string>:
   10652:	1141                	addi	sp,sp,-16
   10654:	c422                	sw	s0,8(sp)
   10656:	842a                	mv	s0,a0
   10658:	656d                	lui	a0,0x1b
   1065a:	9d850513          	addi	a0,a0,-1576 # 1a9d8 <__clzsi2+0x3e>
   1065e:	c606                	sw	ra,12(sp)
   10660:	46d000ef          	jal	112cc <printf>
   10664:	00044503          	lbu	a0,0(s0)
   10668:	c901                	beqz	a0,10678 <print_string+0x26>
   1066a:	0405                	addi	s0,s0,1
   1066c:	493000ef          	jal	112fe <putchar>
   10670:	00044503          	lbu	a0,0(s0)
   10674:	0405                	addi	s0,s0,1
   10676:	f97d                	bnez	a0,1066c <print_string+0x1a>
   10678:	656d                	lui	a0,0x1b
   1067a:	9ec50513          	addi	a0,a0,-1556 # 1a9ec <__clzsi2+0x52>
   1067e:	509000ef          	jal	11386 <puts>
   10682:	4422                	lw	s0,8(sp)
   10684:	40b2                	lw	ra,12(sp)
   10686:	656d                	lui	a0,0x1b
   10688:	b4050513          	addi	a0,a0,-1216 # 1ab40 <__clzsi2+0x1a6>
   1068c:	0141                	addi	sp,sp,16
   1068e:	4f90006f          	j	11386 <puts>

00010692 <print_array_1d>:
   10692:	7179                	addi	sp,sp,-48
   10694:	d226                	sw	s1,36(sp)
   10696:	87b2                	mv	a5,a2
   10698:	84aa                	mv	s1,a0
   1069a:	656d                	lui	a0,0x1b
   1069c:	d04a                	sw	s2,32(sp)
   1069e:	8636                	mv	a2,a3
   106a0:	892e                	mv	s2,a1
   106a2:	86ae                	mv	a3,a1
   106a4:	9f850513          	addi	a0,a0,-1544 # 1a9f8 <__clzsi2+0x5e>
   106a8:	85be                	mv	a1,a5
   106aa:	d606                	sw	ra,44(sp)
   106ac:	c266                	sw	s9,4(sp)
   106ae:	41f000ef          	jal	112cc <printf>
   106b2:	09205163          	blez	s2,10734 <print_array_1d+0xa2>
   106b6:	ce4e                	sw	s3,28(sp)
   106b8:	c462                	sw	s8,8(sp)
   106ba:	69ed                	lui	s3,0x1b
   106bc:	6c6d                	lui	s8,0x1b
   106be:	d422                	sw	s0,40(sp)
   106c0:	cc52                	sw	s4,24(sp)
   106c2:	ca56                	sw	s5,20(sp)
   106c4:	c85a                	sw	s6,16(sp)
   106c6:	c65e                	sw	s7,12(sp)
   106c8:	4401                	li	s0,0
   106ca:	fff90b93          	addi	s7,s2,-1
   106ce:	6ced                	lui	s9,0x1b
   106d0:	6b6d                	lui	s6,0x1b
   106d2:	9f498993          	addi	s3,s3,-1548 # 1a9f4 <__clzsi2+0x5a>
   106d6:	9f0c0c13          	addi	s8,s8,-1552 # 1a9f0 <__clzsi2+0x56>
   106da:	4aa9                	li	s5,10
   106dc:	4a25                	li	s4,9
   106de:	a029                	j	106e8 <print_array_1d+0x56>
   106e0:	0405                	addi	s0,s0,1
   106e2:	04a1                	addi	s1,s1,8
   106e4:	02890863          	beq	s2,s0,10714 <print_array_1d+0x82>
   106e8:	4090                	lw	a2,0(s1)
   106ea:	40d4                	lw	a3,4(s1)
   106ec:	a08b0513          	addi	a0,s6,-1528 # 1aa08 <__clzsi2+0x6e>
   106f0:	874e                	mv	a4,s3
   106f2:	008b8363          	beq	s7,s0,106f8 <print_array_1d+0x66>
   106f6:	8762                	mv	a4,s8
   106f8:	3d5000ef          	jal	112cc <printf>
   106fc:	035467b3          	rem	a5,s0,s5
   10700:	ff4790e3          	bne	a5,s4,106e0 <print_array_1d+0x4e>
   10704:	b40c8513          	addi	a0,s9,-1216 # 1ab40 <__clzsi2+0x1a6>
   10708:	0405                	addi	s0,s0,1
   1070a:	47d000ef          	jal	11386 <puts>
   1070e:	04a1                	addi	s1,s1,8
   10710:	fc891ce3          	bne	s2,s0,106e8 <print_array_1d+0x56>
   10714:	5422                	lw	s0,40(sp)
   10716:	49f2                	lw	s3,28(sp)
   10718:	4a62                	lw	s4,24(sp)
   1071a:	4ad2                	lw	s5,20(sp)
   1071c:	4b42                	lw	s6,16(sp)
   1071e:	4bb2                	lw	s7,12(sp)
   10720:	4c22                	lw	s8,8(sp)
   10722:	50b2                	lw	ra,44(sp)
   10724:	5492                	lw	s1,36(sp)
   10726:	5902                	lw	s2,32(sp)
   10728:	b40c8513          	addi	a0,s9,-1216
   1072c:	4c92                	lw	s9,4(sp)
   1072e:	6145                	addi	sp,sp,48
   10730:	4570006f          	j	11386 <puts>
   10734:	6ced                	lui	s9,0x1b
   10736:	50b2                	lw	ra,44(sp)
   10738:	5492                	lw	s1,36(sp)
   1073a:	5902                	lw	s2,32(sp)
   1073c:	b40c8513          	addi	a0,s9,-1216 # 1ab40 <__clzsi2+0x1a6>
   10740:	4c92                	lw	s9,4(sp)
   10742:	6145                	addi	sp,sp,48
   10744:	4430006f          	j	11386 <puts>

00010748 <print_array_2d>:
   10748:	0ab05763          	blez	a1,107f6 <print_array_2d+0xae>
   1074c:	7179                	addi	sp,sp,-48
   1074e:	d04a                	sw	s2,32(sp)
   10750:	d606                	sw	ra,44(sp)
   10752:	8932                	mv	s2,a2
   10754:	06c05e63          	blez	a2,107d0 <print_array_2d+0x88>
   10758:	c462                	sw	s8,8(sp)
   1075a:	c06a                	sw	s10,0(sp)
   1075c:	6c6d                	lui	s8,0x1b
   1075e:	6d6d                	lui	s10,0x1b
   10760:	d226                	sw	s1,36(sp)
   10762:	ce4e                	sw	s3,28(sp)
   10764:	cc52                	sw	s4,24(sp)
   10766:	c85a                	sw	s6,16(sp)
   10768:	c65e                	sw	s7,12(sp)
   1076a:	c266                	sw	s9,4(sp)
   1076c:	d422                	sw	s0,40(sp)
   1076e:	ca56                	sw	s5,20(sp)
   10770:	8bae                	mv	s7,a1
   10772:	84aa                	mv	s1,a0
   10774:	4b01                	li	s6,0
   10776:	6a6d                	lui	s4,0x1b
   10778:	fff58c93          	addi	s9,a1,-1
   1077c:	fff60993          	addi	s3,a2,-1
   10780:	9f0c0c13          	addi	s8,s8,-1552 # 1a9f0 <__clzsi2+0x56>
   10784:	a18d0d13          	addi	s10,s10,-1512 # 1aa18 <__clzsi2+0x7e>
   10788:	8ae2                	mv	s5,s8
   1078a:	016c9363          	bne	s9,s6,10790 <print_array_2d+0x48>
   1078e:	8aea                	mv	s5,s10
   10790:	4401                	li	s0,0
   10792:	409c                	lw	a5,0(s1)
   10794:	a14a0513          	addi	a0,s4,-1516 # 1aa14 <__clzsi2+0x7a>
   10798:	97a2                	add	a5,a5,s0
   1079a:	00078583          	lb	a1,0(a5)
   1079e:	32f000ef          	jal	112cc <printf>
   107a2:	02c00513          	li	a0,44
   107a6:	03340d63          	beq	s0,s3,107e0 <print_array_2d+0x98>
   107aa:	0405                	addi	s0,s0,1
   107ac:	353000ef          	jal	112fe <putchar>
   107b0:	fe8911e3          	bne	s2,s0,10792 <print_array_2d+0x4a>
   107b4:	0b05                	addi	s6,s6,1
   107b6:	0491                	addi	s1,s1,4
   107b8:	fd6b98e3          	bne	s7,s6,10788 <print_array_2d+0x40>
   107bc:	5422                	lw	s0,40(sp)
   107be:	5492                	lw	s1,36(sp)
   107c0:	49f2                	lw	s3,28(sp)
   107c2:	4a62                	lw	s4,24(sp)
   107c4:	4ad2                	lw	s5,20(sp)
   107c6:	4b42                	lw	s6,16(sp)
   107c8:	4bb2                	lw	s7,12(sp)
   107ca:	4c22                	lw	s8,8(sp)
   107cc:	4c92                	lw	s9,4(sp)
   107ce:	4d02                	lw	s10,0(sp)
   107d0:	50b2                	lw	ra,44(sp)
   107d2:	5902                	lw	s2,32(sp)
   107d4:	656d                	lui	a0,0x1b
   107d6:	b4050513          	addi	a0,a0,-1216 # 1ab40 <__clzsi2+0x1a6>
   107da:	6145                	addi	sp,sp,48
   107dc:	3ab0006f          	j	11386 <puts>
   107e0:	8556                	mv	a0,s5
   107e2:	0405                	addi	s0,s0,1
   107e4:	3a3000ef          	jal	11386 <puts>
   107e8:	fa8915e3          	bne	s2,s0,10792 <print_array_2d+0x4a>
   107ec:	0b05                	addi	s6,s6,1
   107ee:	0491                	addi	s1,s1,4
   107f0:	f96b9ce3          	bne	s7,s6,10788 <print_array_2d+0x40>
   107f4:	b7e1                	j	107bc <print_array_2d+0x74>
   107f6:	656d                	lui	a0,0x1b
   107f8:	b4050513          	addi	a0,a0,-1216 # 1ab40 <__clzsi2+0x1a6>
   107fc:	38b0006f          	j	11386 <puts>

00010800 <double_eq>:
   10800:	8d89                	sub	a1,a1,a0
   10802:	d20587d3          	fcvt.d.w	fa5,a1
   10806:	d2060753          	fcvt.d.w	fa4,a2
   1080a:	22f7a7d3          	fabs.d	fa5,fa5
   1080e:	a2e79553          	flt.d	a0,fa5,fa4
   10812:	8082                	ret

00010814 <compare_1d>:
   10814:	00162513          	slti	a0,a2,1
   10818:	8082                	ret

0001081a <compare_string>:
   1081a:	02c05063          	blez	a2,1083a <compare_string+0x20>
   1081e:	962a                	add	a2,a2,a0
   10820:	a019                	j	10826 <compare_string+0xc>
   10822:	00c50c63          	beq	a0,a2,1083a <compare_string+0x20>
   10826:	00054703          	lbu	a4,0(a0)
   1082a:	0005c783          	lbu	a5,0(a1)
   1082e:	0505                	addi	a0,a0,1
   10830:	0585                	addi	a1,a1,1
   10832:	fef708e3          	beq	a4,a5,10822 <compare_string+0x8>
   10836:	4501                	li	a0,0
   10838:	8082                	ret
   1083a:	4505                	li	a0,1
   1083c:	8082                	ret

0001083e <compare_2d>:
   1083e:	04c05563          	blez	a2,10888 <compare_2d+0x4a>
   10842:	eb01b707          	fld	fa4,-336(gp) # 1c928 <__SDATA_BEGIN__+0x8>
   10846:	4e01                	li	t3,0
   10848:	02d05b63          	blez	a3,1087e <compare_2d+0x40>
   1084c:	411c                	lw	a5,0(a0)
   1084e:	0005a803          	lw	a6,0(a1)
   10852:	00f68333          	add	t1,a3,a5
   10856:	a019                	j	1085c <compare_2d+0x1e>
   10858:	02f30363          	beq	t1,a5,1087e <compare_2d+0x40>
   1085c:	00080703          	lb	a4,0(a6)
   10860:	00078883          	lb	a7,0(a5)
   10864:	0805                	addi	a6,a6,1
   10866:	0785                	addi	a5,a5,1
   10868:	41170733          	sub	a4,a4,a7
   1086c:	d20707d3          	fcvt.d.w	fa5,a4
   10870:	22f7a7d3          	fabs.d	fa5,fa5
   10874:	a2e79753          	flt.d	a4,fa5,fa4
   10878:	f365                	bnez	a4,10858 <compare_2d+0x1a>
   1087a:	4501                	li	a0,0
   1087c:	8082                	ret
   1087e:	0e05                	addi	t3,t3,1
   10880:	0511                	addi	a0,a0,4
   10882:	0591                	addi	a1,a1,4
   10884:	fdc612e3          	bne	a2,t3,10848 <compare_2d+0xa>
   10888:	4505                	li	a0,1
   1088a:	8082                	ret

0001088c <alloc_array_2d>:
   1088c:	1101                	addi	sp,sp,-32
   1088e:	ca26                	sw	s1,20(sp)
   10890:	00251493          	slli	s1,a0,0x2
   10894:	c452                	sw	s4,8(sp)
   10896:	8a2a                	mv	s4,a0
   10898:	8526                	mv	a0,s1
   1089a:	c84a                	sw	s2,16(sp)
   1089c:	c64e                	sw	s3,12(sp)
   1089e:	ce06                	sw	ra,28(sp)
   108a0:	892e                	mv	s2,a1
   108a2:	2a39                	jal	109c0 <malloc>
   108a4:	89aa                	mv	s3,a0
   108a6:	94aa                	add	s1,s1,a0
   108a8:	01405b63          	blez	s4,108be <alloc_array_2d+0x32>
   108ac:	cc22                	sw	s0,24(sp)
   108ae:	842a                	mv	s0,a0
   108b0:	854a                	mv	a0,s2
   108b2:	2239                	jal	109c0 <malloc>
   108b4:	c008                	sw	a0,0(s0)
   108b6:	0411                	addi	s0,s0,4
   108b8:	fe941ce3          	bne	s0,s1,108b0 <alloc_array_2d+0x24>
   108bc:	4462                	lw	s0,24(sp)
   108be:	40f2                	lw	ra,28(sp)
   108c0:	44d2                	lw	s1,20(sp)
   108c2:	4942                	lw	s2,16(sp)
   108c4:	4a22                	lw	s4,8(sp)
   108c6:	854e                	mv	a0,s3
   108c8:	49b2                	lw	s3,12(sp)
   108ca:	6105                	addi	sp,sp,32
   108cc:	8082                	ret

000108ce <init_array_one_1d>:
   108ce:	00b05b63          	blez	a1,108e4 <init_array_one_1d+0x16>
   108d2:	058e                	slli	a1,a1,0x3
   108d4:	eb01b787          	fld	fa5,-336(gp) # 1c928 <__SDATA_BEGIN__+0x8>
   108d8:	00b507b3          	add	a5,a0,a1
   108dc:	a11c                	fsd	fa5,0(a0)
   108de:	0521                	addi	a0,a0,8
   108e0:	fef51ee3          	bne	a0,a5,108dc <init_array_one_1d+0xe>
   108e4:	8082                	ret

000108e6 <init_array_one_2d>:
   108e6:	02b05463          	blez	a1,1090e <init_array_one_2d+0x28>
   108ea:	02c05263          	blez	a2,1090e <init_array_one_2d+0x28>
   108ee:	eb01b787          	fld	fa5,-336(gp) # 1c928 <__SDATA_BEGIN__+0x8>
   108f2:	00259693          	slli	a3,a1,0x2
   108f6:	96aa                	add	a3,a3,a0
   108f8:	060e                	slli	a2,a2,0x3
   108fa:	411c                	lw	a5,0(a0)
   108fc:	00f60733          	add	a4,a2,a5
   10900:	a39c                	fsd	fa5,0(a5)
   10902:	07a1                	addi	a5,a5,8
   10904:	fef71ee3          	bne	a4,a5,10900 <init_array_one_2d+0x1a>
   10908:	0511                	addi	a0,a0,4
   1090a:	fed518e3          	bne	a0,a3,108fa <init_array_one_2d+0x14>
   1090e:	8082                	ret

00010910 <conv2d>:
   10910:	1141                	addi	sp,sp,-16
   10912:	c622                	sw	s0,12(sp)
   10914:	41070f33          	sub	t5,a4,a6
   10918:	40f68433          	sub	s0,a3,a5
   1091c:	83be                	mv	t2,a5
   1091e:	01e467b3          	or	a5,s0,t5
   10922:	0407c263          	bltz	a5,10966 <conv2d+0x56>
   10926:	00239e93          	slli	t4,t2,0x2
   1092a:	c426                	sw	s1,8(sp)
   1092c:	c24a                	sw	s2,4(sp)
   1092e:	8e42                	mv	t3,a6
   10930:	892a                	mv	s2,a0
   10932:	8fae                	mv	t6,a1
   10934:	8332                	mv	t1,a2
   10936:	0405                	addi	s0,s0,1
   10938:	9eae                	add	t4,t4,a1
   1093a:	4481                	li	s1,0
   1093c:	0f05                	addi	t5,t5,1
   1093e:	00249293          	slli	t0,s1,0x2
   10942:	92ca                	add	t0,t0,s2
   10944:	4581                	li	a1,0
   10946:	00032783          	lw	a5,0(t1) # 1053a <frame_dummy+0x10>
   1094a:	97ae                	add	a5,a5,a1
   1094c:	00078023          	sb	zero,0(a5)
   10950:	06704363          	bgtz	t2,109b6 <conv2d+0xa6>
   10954:	0585                	addi	a1,a1,1
   10956:	ffe598e3          	bne	a1,t5,10946 <conv2d+0x36>
   1095a:	0485                	addi	s1,s1,1
   1095c:	0311                	addi	t1,t1,4
   1095e:	fe8490e3          	bne	s1,s0,1093e <conv2d+0x2e>
   10962:	44a2                	lw	s1,8(sp)
   10964:	4912                	lw	s2,4(sp)
   10966:	4432                	lw	s0,12(sp)
   10968:	0141                	addi	sp,sp,16
   1096a:	8082                	ret
   1096c:	4701                	li	a4,0
   1096e:	0008a783          	lw	a5,0(a7)
   10972:	00082603          	lw	a2,0(a6)
   10976:	00032683          	lw	a3,0(t1)
   1097a:	97ae                	add	a5,a5,a1
   1097c:	963a                	add	a2,a2,a4
   1097e:	97ba                	add	a5,a5,a4
   10980:	00064503          	lbu	a0,0(a2)
   10984:	0007c783          	lbu	a5,0(a5)
   10988:	96ae                	add	a3,a3,a1
   1098a:	0006c603          	lbu	a2,0(a3)
   1098e:	02a787b3          	mul	a5,a5,a0
   10992:	0705                	addi	a4,a4,1
   10994:	97b2                	add	a5,a5,a2
   10996:	00f68023          	sb	a5,0(a3)
   1099a:	fcee1ae3          	bne	t3,a4,1096e <conv2d+0x5e>
   1099e:	0811                	addi	a6,a6,4
   109a0:	0891                	addi	a7,a7,4
   109a2:	fd0e95e3          	bne	t4,a6,1096c <conv2d+0x5c>
   109a6:	0585                	addi	a1,a1,1
   109a8:	fbe589e3          	beq	a1,t5,1095a <conv2d+0x4a>
   109ac:	00032783          	lw	a5,0(t1)
   109b0:	97ae                	add	a5,a5,a1
   109b2:	00078023          	sb	zero,0(a5)
   109b6:	887e                	mv	a6,t6
   109b8:	8896                	mv	a7,t0
   109ba:	fbc049e3          	bgtz	t3,1096c <conv2d+0x5c>
   109be:	b7e5                	j	109a6 <conv2d+0x96>

000109c0 <malloc>:
   109c0:	85aa                	mv	a1,a0
   109c2:	f241a503          	lw	a0,-220(gp) # 1c99c <_impure_ptr>
   109c6:	a031                	j	109d2 <_malloc_r>

000109c8 <free>:
   109c8:	85aa                	mv	a1,a0
   109ca:	f241a503          	lw	a0,-220(gp) # 1c99c <_impure_ptr>
   109ce:	73b0006f          	j	11908 <_free_r>

000109d2 <_malloc_r>:
   109d2:	7179                	addi	sp,sp,-48
   109d4:	ce4e                	sw	s3,28(sp)
   109d6:	d606                	sw	ra,44(sp)
   109d8:	d422                	sw	s0,40(sp)
   109da:	d226                	sw	s1,36(sp)
   109dc:	d04a                	sw	s2,32(sp)
   109de:	00b58793          	addi	a5,a1,11
   109e2:	4759                	li	a4,22
   109e4:	89aa                	mv	s3,a0
   109e6:	04f76863          	bltu	a4,a5,10a36 <_malloc_r+0x64>
   109ea:	47c1                	li	a5,16
   109ec:	16b7e863          	bltu	a5,a1,10b5c <_malloc_r+0x18a>
   109f0:	2359                	jal	10f76 <__malloc_lock>
   109f2:	47e1                	li	a5,24
   109f4:	4589                	li	a1,2
   109f6:	44c1                	li	s1,16
   109f8:	6971                	lui	s2,0x1c
   109fa:	27890913          	addi	s2,s2,632 # 1c278 <__malloc_av_>
   109fe:	97ca                	add	a5,a5,s2
   10a00:	43c0                	lw	s0,4(a5)
   10a02:	ff878713          	addi	a4,a5,-8
   10a06:	24e40d63          	beq	s0,a4,10c60 <_malloc_r+0x28e>
   10a0a:	405c                	lw	a5,4(s0)
   10a0c:	4454                	lw	a3,12(s0)
   10a0e:	4410                	lw	a2,8(s0)
   10a10:	9bf1                	andi	a5,a5,-4
   10a12:	97a2                	add	a5,a5,s0
   10a14:	43d8                	lw	a4,4(a5)
   10a16:	c654                	sw	a3,12(a2)
   10a18:	c690                	sw	a2,8(a3)
   10a1a:	00176713          	ori	a4,a4,1
   10a1e:	854e                	mv	a0,s3
   10a20:	c3d8                	sw	a4,4(a5)
   10a22:	2b99                	jal	10f78 <__malloc_unlock>
   10a24:	00840513          	addi	a0,s0,8
   10a28:	50b2                	lw	ra,44(sp)
   10a2a:	5422                	lw	s0,40(sp)
   10a2c:	5492                	lw	s1,36(sp)
   10a2e:	5902                	lw	s2,32(sp)
   10a30:	49f2                	lw	s3,28(sp)
   10a32:	6145                	addi	sp,sp,48
   10a34:	8082                	ret
   10a36:	ff87f493          	andi	s1,a5,-8
   10a3a:	1207c163          	bltz	a5,10b5c <_malloc_r+0x18a>
   10a3e:	10b4ef63          	bltu	s1,a1,10b5c <_malloc_r+0x18a>
   10a42:	2b15                	jal	10f76 <__malloc_lock>
   10a44:	1f700793          	li	a5,503
   10a48:	2c97fb63          	bgeu	a5,s1,10d1e <_malloc_r+0x34c>
   10a4c:	0094d793          	srli	a5,s1,0x9
   10a50:	10078b63          	beqz	a5,10b66 <_malloc_r+0x194>
   10a54:	4711                	li	a4,4
   10a56:	24f76a63          	bltu	a4,a5,10caa <_malloc_r+0x2d8>
   10a5a:	0064d793          	srli	a5,s1,0x6
   10a5e:	03978593          	addi	a1,a5,57
   10a62:	03878813          	addi	a6,a5,56
   10a66:	00359613          	slli	a2,a1,0x3
   10a6a:	6971                	lui	s2,0x1c
   10a6c:	27890913          	addi	s2,s2,632 # 1c278 <__malloc_av_>
   10a70:	964a                	add	a2,a2,s2
   10a72:	4240                	lw	s0,4(a2)
   10a74:	1661                	addi	a2,a2,-8
   10a76:	02860163          	beq	a2,s0,10a98 <_malloc_r+0xc6>
   10a7a:	453d                	li	a0,15
   10a7c:	a039                	j	10a8a <_malloc_r+0xb8>
   10a7e:	4454                	lw	a3,12(s0)
   10a80:	1c075e63          	bgez	a4,10c5c <_malloc_r+0x28a>
   10a84:	00d60a63          	beq	a2,a3,10a98 <_malloc_r+0xc6>
   10a88:	8436                	mv	s0,a3
   10a8a:	405c                	lw	a5,4(s0)
   10a8c:	9bf1                	andi	a5,a5,-4
   10a8e:	40978733          	sub	a4,a5,s1
   10a92:	fee556e3          	bge	a0,a4,10a7e <_malloc_r+0xac>
   10a96:	85c2                	mv	a1,a6
   10a98:	01092403          	lw	s0,16(s2)
   10a9c:	6871                	lui	a6,0x1c
   10a9e:	28080813          	addi	a6,a6,640 # 1c280 <__malloc_av_+0x8>
   10aa2:	1b040a63          	beq	s0,a6,10c56 <_malloc_r+0x284>
   10aa6:	405c                	lw	a5,4(s0)
   10aa8:	46bd                	li	a3,15
   10aaa:	9bf1                	andi	a5,a5,-4
   10aac:	40978733          	sub	a4,a5,s1
   10ab0:	26e6cc63          	blt	a3,a4,10d28 <_malloc_r+0x356>
   10ab4:	01092a23          	sw	a6,20(s2)
   10ab8:	01092823          	sw	a6,16(s2)
   10abc:	24075763          	bgez	a4,10d0a <_malloc_r+0x338>
   10ac0:	1ff00713          	li	a4,511
   10ac4:	00492503          	lw	a0,4(s2)
   10ac8:	1af76163          	bltu	a4,a5,10c6a <_malloc_r+0x298>
   10acc:	ff87f713          	andi	a4,a5,-8
   10ad0:	0721                	addi	a4,a4,8
   10ad2:	974a                	add	a4,a4,s2
   10ad4:	4314                	lw	a3,0(a4)
   10ad6:	0057d613          	srli	a2,a5,0x5
   10ada:	4785                	li	a5,1
   10adc:	00c797b3          	sll	a5,a5,a2
   10ae0:	8d5d                	or	a0,a0,a5
   10ae2:	ff870793          	addi	a5,a4,-8
   10ae6:	c45c                	sw	a5,12(s0)
   10ae8:	c414                	sw	a3,8(s0)
   10aea:	00a92223          	sw	a0,4(s2)
   10aee:	c300                	sw	s0,0(a4)
   10af0:	c6c0                	sw	s0,12(a3)
   10af2:	4025d793          	srai	a5,a1,0x2
   10af6:	4605                	li	a2,1
   10af8:	00f61633          	sll	a2,a2,a5
   10afc:	06c56c63          	bltu	a0,a2,10b74 <_malloc_r+0x1a2>
   10b00:	00a677b3          	and	a5,a2,a0
   10b04:	ef81                	bnez	a5,10b1c <_malloc_r+0x14a>
   10b06:	0606                	slli	a2,a2,0x1
   10b08:	99f1                	andi	a1,a1,-4
   10b0a:	00a677b3          	and	a5,a2,a0
   10b0e:	0591                	addi	a1,a1,4
   10b10:	e791                	bnez	a5,10b1c <_malloc_r+0x14a>
   10b12:	0606                	slli	a2,a2,0x1
   10b14:	00a677b3          	and	a5,a2,a0
   10b18:	0591                	addi	a1,a1,4
   10b1a:	dfe5                	beqz	a5,10b12 <_malloc_r+0x140>
   10b1c:	48bd                	li	a7,15
   10b1e:	00359313          	slli	t1,a1,0x3
   10b22:	934a                	add	t1,t1,s2
   10b24:	851a                	mv	a0,t1
   10b26:	455c                	lw	a5,12(a0)
   10b28:	8e2e                	mv	t3,a1
   10b2a:	1af50063          	beq	a0,a5,10cca <_malloc_r+0x2f8>
   10b2e:	43d8                	lw	a4,4(a5)
   10b30:	843e                	mv	s0,a5
   10b32:	47dc                	lw	a5,12(a5)
   10b34:	9b71                	andi	a4,a4,-4
   10b36:	409706b3          	sub	a3,a4,s1
   10b3a:	18d8cf63          	blt	a7,a3,10cd8 <_malloc_r+0x306>
   10b3e:	fe06c6e3          	bltz	a3,10b2a <_malloc_r+0x158>
   10b42:	9722                	add	a4,a4,s0
   10b44:	4354                	lw	a3,4(a4)
   10b46:	4410                	lw	a2,8(s0)
   10b48:	854e                	mv	a0,s3
   10b4a:	0016e693          	ori	a3,a3,1
   10b4e:	c354                	sw	a3,4(a4)
   10b50:	c65c                	sw	a5,12(a2)
   10b52:	c790                	sw	a2,8(a5)
   10b54:	2115                	jal	10f78 <__malloc_unlock>
   10b56:	00840513          	addi	a0,s0,8
   10b5a:	b5f9                	j	10a28 <_malloc_r+0x56>
   10b5c:	47b1                	li	a5,12
   10b5e:	00f9a023          	sw	a5,0(s3)
   10b62:	4501                	li	a0,0
   10b64:	b5d1                	j	10a28 <_malloc_r+0x56>
   10b66:	20000613          	li	a2,512
   10b6a:	04000593          	li	a1,64
   10b6e:	03f00813          	li	a6,63
   10b72:	bde5                	j	10a6a <_malloc_r+0x98>
   10b74:	00892403          	lw	s0,8(s2)
   10b78:	c85a                	sw	s6,16(sp)
   10b7a:	405c                	lw	a5,4(s0)
   10b7c:	ffc7fb13          	andi	s6,a5,-4
   10b80:	009b6763          	bltu	s6,s1,10b8e <_malloc_r+0x1bc>
   10b84:	409b0733          	sub	a4,s6,s1
   10b88:	47bd                	li	a5,15
   10b8a:	0ae7c163          	blt	a5,a4,10c2c <_malloc_r+0x25a>
   10b8e:	c266                	sw	s9,4(sp)
   10b90:	ca56                	sw	s5,20(sp)
   10b92:	f1c1a703          	lw	a4,-228(gp) # 1c994 <__malloc_sbrk_base>
   10b96:	f301aa83          	lw	s5,-208(gp) # 1c9a8 <__malloc_top_pad>
   10b9a:	cc52                	sw	s4,24(sp)
   10b9c:	c65e                	sw	s7,12(sp)
   10b9e:	57fd                	li	a5,-1
   10ba0:	01640a33          	add	s4,s0,s6
   10ba4:	9aa6                	add	s5,s5,s1
   10ba6:	2cf70763          	beq	a4,a5,10e74 <_malloc_r+0x4a2>
   10baa:	6785                	lui	a5,0x1
   10bac:	07bd                	addi	a5,a5,15 # 100f <exit-0xf085>
   10bae:	9abe                	add	s5,s5,a5
   10bb0:	77fd                	lui	a5,0xfffff
   10bb2:	00fafab3          	and	s5,s5,a5
   10bb6:	85d6                	mv	a1,s5
   10bb8:	854e                	mv	a0,s3
   10bba:	1c7000ef          	jal	11580 <_sbrk_r>
   10bbe:	57fd                	li	a5,-1
   10bc0:	8baa                	mv	s7,a0
   10bc2:	32f50963          	beq	a0,a5,10ef4 <_malloc_r+0x522>
   10bc6:	c462                	sw	s8,8(sp)
   10bc8:	19456e63          	bltu	a0,s4,10d64 <_malloc_r+0x392>
   10bcc:	f6418c13          	addi	s8,gp,-156 # 1c9dc <__malloc_current_mallinfo>
   10bd0:	000c2583          	lw	a1,0(s8)
   10bd4:	95d6                	add	a1,a1,s5
   10bd6:	00bc2023          	sw	a1,0(s8)
   10bda:	872e                	mv	a4,a1
   10bdc:	1eaa1863          	bne	s4,a0,10dcc <_malloc_r+0x3fa>
   10be0:	01451793          	slli	a5,a0,0x14
   10be4:	1e079463          	bnez	a5,10dcc <_malloc_r+0x3fa>
   10be8:	00892b83          	lw	s7,8(s2)
   10bec:	015b07b3          	add	a5,s6,s5
   10bf0:	0017e793          	ori	a5,a5,1
   10bf4:	00fba223          	sw	a5,4(s7)
   10bf8:	f2c1a683          	lw	a3,-212(gp) # 1c9a4 <__malloc_max_sbrked_mem>
   10bfc:	00b6f463          	bgeu	a3,a1,10c04 <_malloc_r+0x232>
   10c00:	f2b1a623          	sw	a1,-212(gp) # 1c9a4 <__malloc_max_sbrked_mem>
   10c04:	f281a683          	lw	a3,-216(gp) # 1c9a0 <__malloc_max_total_mem>
   10c08:	00b6f463          	bgeu	a3,a1,10c10 <_malloc_r+0x23e>
   10c0c:	f2b1a423          	sw	a1,-216(gp) # 1c9a0 <__malloc_max_total_mem>
   10c10:	4c22                	lw	s8,8(sp)
   10c12:	845e                	mv	s0,s7
   10c14:	9bf1                	andi	a5,a5,-4
   10c16:	40978733          	sub	a4,a5,s1
   10c1a:	2897eb63          	bltu	a5,s1,10eb0 <_malloc_r+0x4de>
   10c1e:	47bd                	li	a5,15
   10c20:	28e7d863          	bge	a5,a4,10eb0 <_malloc_r+0x4de>
   10c24:	4a62                	lw	s4,24(sp)
   10c26:	4ad2                	lw	s5,20(sp)
   10c28:	4bb2                	lw	s7,12(sp)
   10c2a:	4c92                	lw	s9,4(sp)
   10c2c:	0014e793          	ori	a5,s1,1
   10c30:	c05c                	sw	a5,4(s0)
   10c32:	94a2                	add	s1,s1,s0
   10c34:	00992423          	sw	s1,8(s2)
   10c38:	00176713          	ori	a4,a4,1
   10c3c:	854e                	mv	a0,s3
   10c3e:	c0d8                	sw	a4,4(s1)
   10c40:	2e25                	jal	10f78 <__malloc_unlock>
   10c42:	50b2                	lw	ra,44(sp)
   10c44:	00840513          	addi	a0,s0,8
   10c48:	5422                	lw	s0,40(sp)
   10c4a:	4b42                	lw	s6,16(sp)
   10c4c:	5492                	lw	s1,36(sp)
   10c4e:	5902                	lw	s2,32(sp)
   10c50:	49f2                	lw	s3,28(sp)
   10c52:	6145                	addi	sp,sp,48
   10c54:	8082                	ret
   10c56:	00492503          	lw	a0,4(s2)
   10c5a:	bd61                	j	10af2 <_malloc_r+0x120>
   10c5c:	4410                	lw	a2,8(s0)
   10c5e:	bb55                	j	10a12 <_malloc_r+0x40>
   10c60:	47c0                	lw	s0,12(a5)
   10c62:	0589                	addi	a1,a1,2
   10c64:	e2878ae3          	beq	a5,s0,10a98 <_malloc_r+0xc6>
   10c68:	b34d                	j	10a0a <_malloc_r+0x38>
   10c6a:	0097d713          	srli	a4,a5,0x9
   10c6e:	4691                	li	a3,4
   10c70:	0ee6f263          	bgeu	a3,a4,10d54 <_malloc_r+0x382>
   10c74:	46d1                	li	a3,20
   10c76:	24e6e663          	bltu	a3,a4,10ec2 <_malloc_r+0x4f0>
   10c7a:	05c70613          	addi	a2,a4,92
   10c7e:	05b70693          	addi	a3,a4,91
   10c82:	060e                	slli	a2,a2,0x3
   10c84:	964a                	add	a2,a2,s2
   10c86:	4218                	lw	a4,0(a2)
   10c88:	1661                	addi	a2,a2,-8
   10c8a:	00e61663          	bne	a2,a4,10c96 <_malloc_r+0x2c4>
   10c8e:	a2ed                	j	10e78 <_malloc_r+0x4a6>
   10c90:	4718                	lw	a4,8(a4)
   10c92:	00e60663          	beq	a2,a4,10c9e <_malloc_r+0x2cc>
   10c96:	4354                	lw	a3,4(a4)
   10c98:	9af1                	andi	a3,a3,-4
   10c9a:	fed7ebe3          	bltu	a5,a3,10c90 <_malloc_r+0x2be>
   10c9e:	4750                	lw	a2,12(a4)
   10ca0:	c450                	sw	a2,12(s0)
   10ca2:	c418                	sw	a4,8(s0)
   10ca4:	c600                	sw	s0,8(a2)
   10ca6:	c740                	sw	s0,12(a4)
   10ca8:	b5a9                	j	10af2 <_malloc_r+0x120>
   10caa:	4751                	li	a4,20
   10cac:	0cf77363          	bgeu	a4,a5,10d72 <_malloc_r+0x3a0>
   10cb0:	05400713          	li	a4,84
   10cb4:	22f76363          	bltu	a4,a5,10eda <_malloc_r+0x508>
   10cb8:	00c4d793          	srli	a5,s1,0xc
   10cbc:	06f78593          	addi	a1,a5,111 # fffff06f <__BSS_END__+0xfffe23a3>
   10cc0:	06e78813          	addi	a6,a5,110
   10cc4:	00359613          	slli	a2,a1,0x3
   10cc8:	b34d                	j	10a6a <_malloc_r+0x98>
   10cca:	0e05                	addi	t3,t3,1
   10ccc:	003e7793          	andi	a5,t3,3
   10cd0:	0521                	addi	a0,a0,8
   10cd2:	cfc5                	beqz	a5,10d8a <_malloc_r+0x3b8>
   10cd4:	455c                	lw	a5,12(a0)
   10cd6:	bd91                	j	10b2a <_malloc_r+0x158>
   10cd8:	4410                	lw	a2,8(s0)
   10cda:	0014e593          	ori	a1,s1,1
   10cde:	c04c                	sw	a1,4(s0)
   10ce0:	c65c                	sw	a5,12(a2)
   10ce2:	c790                	sw	a2,8(a5)
   10ce4:	94a2                	add	s1,s1,s0
   10ce6:	00992a23          	sw	s1,20(s2)
   10cea:	00992823          	sw	s1,16(s2)
   10cee:	0016e793          	ori	a5,a3,1
   10cf2:	0104a623          	sw	a6,12(s1)
   10cf6:	0104a423          	sw	a6,8(s1)
   10cfa:	c0dc                	sw	a5,4(s1)
   10cfc:	9722                	add	a4,a4,s0
   10cfe:	854e                	mv	a0,s3
   10d00:	c314                	sw	a3,0(a4)
   10d02:	2c9d                	jal	10f78 <__malloc_unlock>
   10d04:	00840513          	addi	a0,s0,8
   10d08:	b305                	j	10a28 <_malloc_r+0x56>
   10d0a:	97a2                	add	a5,a5,s0
   10d0c:	43d8                	lw	a4,4(a5)
   10d0e:	854e                	mv	a0,s3
   10d10:	00176713          	ori	a4,a4,1
   10d14:	c3d8                	sw	a4,4(a5)
   10d16:	248d                	jal	10f78 <__malloc_unlock>
   10d18:	00840513          	addi	a0,s0,8
   10d1c:	b331                	j	10a28 <_malloc_r+0x56>
   10d1e:	0034d593          	srli	a1,s1,0x3
   10d22:	00848793          	addi	a5,s1,8
   10d26:	b9c9                	j	109f8 <_malloc_r+0x26>
   10d28:	0014e693          	ori	a3,s1,1
   10d2c:	c054                	sw	a3,4(s0)
   10d2e:	94a2                	add	s1,s1,s0
   10d30:	00992a23          	sw	s1,20(s2)
   10d34:	00992823          	sw	s1,16(s2)
   10d38:	00176693          	ori	a3,a4,1
   10d3c:	0104a623          	sw	a6,12(s1)
   10d40:	0104a423          	sw	a6,8(s1)
   10d44:	c0d4                	sw	a3,4(s1)
   10d46:	97a2                	add	a5,a5,s0
   10d48:	854e                	mv	a0,s3
   10d4a:	c398                	sw	a4,0(a5)
   10d4c:	2435                	jal	10f78 <__malloc_unlock>
   10d4e:	00840513          	addi	a0,s0,8
   10d52:	b9d9                	j	10a28 <_malloc_r+0x56>
   10d54:	0067d713          	srli	a4,a5,0x6
   10d58:	03970613          	addi	a2,a4,57
   10d5c:	03870693          	addi	a3,a4,56
   10d60:	060e                	slli	a2,a2,0x3
   10d62:	b70d                	j	10c84 <_malloc_r+0x2b2>
   10d64:	05240d63          	beq	s0,s2,10dbe <_malloc_r+0x3ec>
   10d68:	00892403          	lw	s0,8(s2)
   10d6c:	4c22                	lw	s8,8(sp)
   10d6e:	405c                	lw	a5,4(s0)
   10d70:	b555                	j	10c14 <_malloc_r+0x242>
   10d72:	05c78593          	addi	a1,a5,92
   10d76:	05b78813          	addi	a6,a5,91
   10d7a:	00359613          	slli	a2,a1,0x3
   10d7e:	b1f5                	j	10a6a <_malloc_r+0x98>
   10d80:	00832783          	lw	a5,8(t1)
   10d84:	15fd                	addi	a1,a1,-1
   10d86:	1e679563          	bne	a5,t1,10f70 <_malloc_r+0x59e>
   10d8a:	0035f793          	andi	a5,a1,3
   10d8e:	1361                	addi	t1,t1,-8
   10d90:	fbe5                	bnez	a5,10d80 <_malloc_r+0x3ae>
   10d92:	00492703          	lw	a4,4(s2)
   10d96:	fff64793          	not	a5,a2
   10d9a:	8ff9                	and	a5,a5,a4
   10d9c:	00f92223          	sw	a5,4(s2)
   10da0:	0606                	slli	a2,a2,0x1
   10da2:	dcc7e9e3          	bltu	a5,a2,10b74 <_malloc_r+0x1a2>
   10da6:	dc0607e3          	beqz	a2,10b74 <_malloc_r+0x1a2>
   10daa:	00f67733          	and	a4,a2,a5
   10dae:	e711                	bnez	a4,10dba <_malloc_r+0x3e8>
   10db0:	0606                	slli	a2,a2,0x1
   10db2:	00f67733          	and	a4,a2,a5
   10db6:	0e11                	addi	t3,t3,4
   10db8:	df65                	beqz	a4,10db0 <_malloc_r+0x3de>
   10dba:	85f2                	mv	a1,t3
   10dbc:	b38d                	j	10b1e <_malloc_r+0x14c>
   10dbe:	f6418c13          	addi	s8,gp,-156 # 1c9dc <__malloc_current_mallinfo>
   10dc2:	000c2703          	lw	a4,0(s8)
   10dc6:	9756                	add	a4,a4,s5
   10dc8:	00ec2023          	sw	a4,0(s8)
   10dcc:	f1c1a683          	lw	a3,-228(gp) # 1c994 <__malloc_sbrk_base>
   10dd0:	57fd                	li	a5,-1
   10dd2:	12f68563          	beq	a3,a5,10efc <_malloc_r+0x52a>
   10dd6:	414b87b3          	sub	a5,s7,s4
   10dda:	97ba                	add	a5,a5,a4
   10ddc:	00fc2023          	sw	a5,0(s8)
   10de0:	007bfc93          	andi	s9,s7,7
   10de4:	0a0c8263          	beqz	s9,10e88 <_malloc_r+0x4b6>
   10de8:	419b8bb3          	sub	s7,s7,s9
   10dec:	6785                	lui	a5,0x1
   10dee:	07a1                	addi	a5,a5,8 # 1008 <exit-0xf08c>
   10df0:	0ba1                	addi	s7,s7,8
   10df2:	419785b3          	sub	a1,a5,s9
   10df6:	9ade                	add	s5,s5,s7
   10df8:	415585b3          	sub	a1,a1,s5
   10dfc:	05d2                	slli	a1,a1,0x14
   10dfe:	0145da13          	srli	s4,a1,0x14
   10e02:	85d2                	mv	a1,s4
   10e04:	854e                	mv	a0,s3
   10e06:	77a000ef          	jal	11580 <_sbrk_r>
   10e0a:	57fd                	li	a5,-1
   10e0c:	12f50463          	beq	a0,a5,10f34 <_malloc_r+0x562>
   10e10:	41750533          	sub	a0,a0,s7
   10e14:	01450ab3          	add	s5,a0,s4
   10e18:	000c2703          	lw	a4,0(s8)
   10e1c:	01792423          	sw	s7,8(s2)
   10e20:	001ae793          	ori	a5,s5,1
   10e24:	00ea05b3          	add	a1,s4,a4
   10e28:	00bc2023          	sw	a1,0(s8)
   10e2c:	00fba223          	sw	a5,4(s7)
   10e30:	dd2404e3          	beq	s0,s2,10bf8 <_malloc_r+0x226>
   10e34:	46bd                	li	a3,15
   10e36:	0766f963          	bgeu	a3,s6,10ea8 <_malloc_r+0x4d6>
   10e3a:	4058                	lw	a4,4(s0)
   10e3c:	ff4b0793          	addi	a5,s6,-12
   10e40:	9be1                	andi	a5,a5,-8
   10e42:	8b05                	andi	a4,a4,1
   10e44:	8f5d                	or	a4,a4,a5
   10e46:	c058                	sw	a4,4(s0)
   10e48:	4615                	li	a2,5
   10e4a:	00f40733          	add	a4,s0,a5
   10e4e:	c350                	sw	a2,4(a4)
   10e50:	c710                	sw	a2,8(a4)
   10e52:	00f6e563          	bltu	a3,a5,10e5c <_malloc_r+0x48a>
   10e56:	004ba783          	lw	a5,4(s7)
   10e5a:	bb79                	j	10bf8 <_malloc_r+0x226>
   10e5c:	00840593          	addi	a1,s0,8
   10e60:	854e                	mv	a0,s3
   10e62:	2a7000ef          	jal	11908 <_free_r>
   10e66:	00892b83          	lw	s7,8(s2)
   10e6a:	000c2583          	lw	a1,0(s8)
   10e6e:	004ba783          	lw	a5,4(s7)
   10e72:	b359                	j	10bf8 <_malloc_r+0x226>
   10e74:	0ac1                	addi	s5,s5,16
   10e76:	b381                	j	10bb6 <_malloc_r+0x1e4>
   10e78:	8689                	srai	a3,a3,0x2
   10e7a:	4785                	li	a5,1
   10e7c:	00d797b3          	sll	a5,a5,a3
   10e80:	8d5d                	or	a0,a0,a5
   10e82:	00a92223          	sw	a0,4(s2)
   10e86:	bd29                	j	10ca0 <_malloc_r+0x2ce>
   10e88:	015b85b3          	add	a1,s7,s5
   10e8c:	40b005b3          	neg	a1,a1
   10e90:	05d2                	slli	a1,a1,0x14
   10e92:	0145da13          	srli	s4,a1,0x14
   10e96:	85d2                	mv	a1,s4
   10e98:	854e                	mv	a0,s3
   10e9a:	6e6000ef          	jal	11580 <_sbrk_r>
   10e9e:	57fd                	li	a5,-1
   10ea0:	f6f518e3          	bne	a0,a5,10e10 <_malloc_r+0x43e>
   10ea4:	4a01                	li	s4,0
   10ea6:	bf8d                	j	10e18 <_malloc_r+0x446>
   10ea8:	4c22                	lw	s8,8(sp)
   10eaa:	4785                	li	a5,1
   10eac:	00fba223          	sw	a5,4(s7)
   10eb0:	854e                	mv	a0,s3
   10eb2:	20d9                	jal	10f78 <__malloc_unlock>
   10eb4:	4501                	li	a0,0
   10eb6:	4a62                	lw	s4,24(sp)
   10eb8:	4ad2                	lw	s5,20(sp)
   10eba:	4b42                	lw	s6,16(sp)
   10ebc:	4bb2                	lw	s7,12(sp)
   10ebe:	4c92                	lw	s9,4(sp)
   10ec0:	b6a5                	j	10a28 <_malloc_r+0x56>
   10ec2:	05400693          	li	a3,84
   10ec6:	02e6ee63          	bltu	a3,a4,10f02 <_malloc_r+0x530>
   10eca:	00c7d713          	srli	a4,a5,0xc
   10ece:	06f70613          	addi	a2,a4,111
   10ed2:	06e70693          	addi	a3,a4,110
   10ed6:	060e                	slli	a2,a2,0x3
   10ed8:	b375                	j	10c84 <_malloc_r+0x2b2>
   10eda:	15400713          	li	a4,340
   10ede:	02f76e63          	bltu	a4,a5,10f1a <_malloc_r+0x548>
   10ee2:	00f4d793          	srli	a5,s1,0xf
   10ee6:	07878593          	addi	a1,a5,120
   10eea:	07778813          	addi	a6,a5,119
   10eee:	00359613          	slli	a2,a1,0x3
   10ef2:	bea5                	j	10a6a <_malloc_r+0x98>
   10ef4:	00892403          	lw	s0,8(s2)
   10ef8:	405c                	lw	a5,4(s0)
   10efa:	bb29                	j	10c14 <_malloc_r+0x242>
   10efc:	f171ae23          	sw	s7,-228(gp) # 1c994 <__malloc_sbrk_base>
   10f00:	b5c5                	j	10de0 <_malloc_r+0x40e>
   10f02:	15400693          	li	a3,340
   10f06:	02e6ed63          	bltu	a3,a4,10f40 <_malloc_r+0x56e>
   10f0a:	00f7d713          	srli	a4,a5,0xf
   10f0e:	07870613          	addi	a2,a4,120
   10f12:	07770693          	addi	a3,a4,119
   10f16:	060e                	slli	a2,a2,0x3
   10f18:	b3b5                	j	10c84 <_malloc_r+0x2b2>
   10f1a:	55400713          	li	a4,1364
   10f1e:	02f76d63          	bltu	a4,a5,10f58 <_malloc_r+0x586>
   10f22:	0124d793          	srli	a5,s1,0x12
   10f26:	07d78593          	addi	a1,a5,125
   10f2a:	07c78813          	addi	a6,a5,124
   10f2e:	00359613          	slli	a2,a1,0x3
   10f32:	be25                	j	10a6a <_malloc_r+0x98>
   10f34:	1ce1                	addi	s9,s9,-8
   10f36:	9ae6                	add	s5,s5,s9
   10f38:	417a8ab3          	sub	s5,s5,s7
   10f3c:	4a01                	li	s4,0
   10f3e:	bde9                	j	10e18 <_malloc_r+0x446>
   10f40:	55400693          	li	a3,1364
   10f44:	02e6e163          	bltu	a3,a4,10f66 <_malloc_r+0x594>
   10f48:	0127d713          	srli	a4,a5,0x12
   10f4c:	07d70613          	addi	a2,a4,125
   10f50:	07c70693          	addi	a3,a4,124
   10f54:	060e                	slli	a2,a2,0x3
   10f56:	b33d                	j	10c84 <_malloc_r+0x2b2>
   10f58:	3f800613          	li	a2,1016
   10f5c:	07f00593          	li	a1,127
   10f60:	07e00813          	li	a6,126
   10f64:	b619                	j	10a6a <_malloc_r+0x98>
   10f66:	3f800613          	li	a2,1016
   10f6a:	07e00693          	li	a3,126
   10f6e:	bb19                	j	10c84 <_malloc_r+0x2b2>
   10f70:	00492783          	lw	a5,4(s2)
   10f74:	b535                	j	10da0 <_malloc_r+0x3ce>

00010f76 <__malloc_lock>:
   10f76:	8082                	ret

00010f78 <__malloc_unlock>:
   10f78:	8082                	ret

00010f7a <srand>:
   10f7a:	f241a783          	lw	a5,-220(gp) # 1c99c <_impure_ptr>
   10f7e:	08a7ac23          	sw	a0,152(a5)
   10f82:	0807ae23          	sw	zero,156(a5)
   10f86:	8082                	ret

00010f88 <rand>:
   10f88:	f241a803          	lw	a6,-220(gp) # 1c99c <_impure_ptr>
   10f8c:	4c9585b7          	lui	a1,0x4c958
   10f90:	5851f637          	lui	a2,0x5851f
   10f94:	09882683          	lw	a3,152(a6)
   10f98:	09c82703          	lw	a4,156(a6)
   10f9c:	f2d58593          	addi	a1,a1,-211 # 4c957f2d <__BSS_END__+0x4c93b261>
   10fa0:	42d60613          	addi	a2,a2,1069 # 5851f42d <__BSS_END__+0x58502761>
   10fa4:	02b687b3          	mul	a5,a3,a1
   10fa8:	02c68633          	mul	a2,a3,a2
   10fac:	00178513          	addi	a0,a5,1
   10fb0:	00f537b3          	sltu	a5,a0,a5
   10fb4:	08a82c23          	sw	a0,152(a6)
   10fb8:	02b70733          	mul	a4,a4,a1
   10fbc:	02b6b6b3          	mulhu	a3,a3,a1
   10fc0:	9732                	add	a4,a4,a2
   10fc2:	9736                	add	a4,a4,a3
   10fc4:	97ba                	add	a5,a5,a4
   10fc6:	00179513          	slli	a0,a5,0x1
   10fca:	08f82e23          	sw	a5,156(a6)
   10fce:	8105                	srli	a0,a0,0x1
   10fd0:	8082                	ret

00010fd2 <__fp_lock>:
   10fd2:	4501                	li	a0,0
   10fd4:	8082                	ret

00010fd6 <stdio_exit_handler>:
   10fd6:	65d1                	lui	a1,0x14
   10fd8:	c0818613          	addi	a2,gp,-1016 # 1c680 <__sglue>
   10fdc:	67858593          	addi	a1,a1,1656 # 14678 <_fclose_r>
   10fe0:	c1818513          	addi	a0,gp,-1000 # 1c690 <_impure_data>
   10fe4:	ac91                	j	11238 <_fwalk_sglue>

00010fe6 <cleanup_stdio>:
   10fe6:	414c                	lw	a1,4(a0)
   10fe8:	1141                	addi	sp,sp,-16
   10fea:	c422                	sw	s0,8(sp)
   10fec:	c606                	sw	ra,12(sp)
   10fee:	f8c18793          	addi	a5,gp,-116 # 1ca04 <__sf>
   10ff2:	842a                	mv	s0,a0
   10ff4:	00f58463          	beq	a1,a5,10ffc <cleanup_stdio+0x16>
   10ff8:	680030ef          	jal	14678 <_fclose_r>
   10ffc:	440c                	lw	a1,8(s0)
   10ffe:	ff418793          	addi	a5,gp,-12 # 1ca6c <__sf+0x68>
   11002:	00f58563          	beq	a1,a5,1100c <cleanup_stdio+0x26>
   11006:	8522                	mv	a0,s0
   11008:	670030ef          	jal	14678 <_fclose_r>
   1100c:	444c                	lw	a1,12(s0)
   1100e:	05c18793          	addi	a5,gp,92 # 1cad4 <__global_pointer$+0x5c>
   11012:	00f58863          	beq	a1,a5,11022 <cleanup_stdio+0x3c>
   11016:	8522                	mv	a0,s0
   11018:	4422                	lw	s0,8(sp)
   1101a:	40b2                	lw	ra,12(sp)
   1101c:	0141                	addi	sp,sp,16
   1101e:	65a0306f          	j	14678 <_fclose_r>
   11022:	40b2                	lw	ra,12(sp)
   11024:	4422                	lw	s0,8(sp)
   11026:	0141                	addi	sp,sp,16
   11028:	8082                	ret

0001102a <__fp_unlock>:
   1102a:	4501                	li	a0,0
   1102c:	8082                	ret

0001102e <global_stdio_init.part.0>:
   1102e:	1101                	addi	sp,sp,-32
   11030:	67c5                	lui	a5,0x11
   11032:	cc22                	sw	s0,24(sp)
   11034:	fd678793          	addi	a5,a5,-42 # 10fd6 <stdio_exit_handler>
   11038:	f8c18413          	addi	s0,gp,-116 # 1ca04 <__sf>
   1103c:	ce06                	sw	ra,28(sp)
   1103e:	ca26                	sw	s1,20(sp)
   11040:	c84a                	sw	s2,16(sp)
   11042:	c64e                	sw	s3,12(sp)
   11044:	c452                	sw	s4,8(sp)
   11046:	f2f1aa23          	sw	a5,-204(gp) # 1c9ac <__stdio_exit_handler>
   1104a:	4621                	li	a2,8
   1104c:	4791                	li	a5,4
   1104e:	4581                	li	a1,0
   11050:	fe818513          	addi	a0,gp,-24 # 1ca60 <__sf+0x5c>
   11054:	c45c                	sw	a5,12(s0)
   11056:	00042023          	sw	zero,0(s0)
   1105a:	00042223          	sw	zero,4(s0)
   1105e:	00042423          	sw	zero,8(s0)
   11062:	06042223          	sw	zero,100(s0)
   11066:	00042823          	sw	zero,16(s0)
   1106a:	00042a23          	sw	zero,20(s0)
   1106e:	00042c23          	sw	zero,24(s0)
   11072:	23ed                	jal	1165c <memset>
   11074:	67c1                	lui	a5,0x10
   11076:	6a45                	lui	s4,0x11
   11078:	69c5                	lui	s3,0x11
   1107a:	6945                	lui	s2,0x11
   1107c:	64c5                	lui	s1,0x11
   1107e:	38ea0a13          	addi	s4,s4,910 # 1138e <__sread>
   11082:	3c898993          	addi	s3,s3,968 # 113c8 <__swrite>
   11086:	41890913          	addi	s2,s2,1048 # 11418 <__sseek>
   1108a:	46048493          	addi	s1,s1,1120 # 11460 <__sclose>
   1108e:	07a5                	addi	a5,a5,9 # 10009 <exit-0x8b>
   11090:	4621                	li	a2,8
   11092:	4581                	li	a1,0
   11094:	05018513          	addi	a0,gp,80 # 1cac8 <__global_pointer$+0x50>
   11098:	03442023          	sw	s4,32(s0)
   1109c:	03342223          	sw	s3,36(s0)
   110a0:	03242423          	sw	s2,40(s0)
   110a4:	d444                	sw	s1,44(s0)
   110a6:	d87c                	sw	a5,116(s0)
   110a8:	cc40                	sw	s0,28(s0)
   110aa:	06042423          	sw	zero,104(s0)
   110ae:	06042623          	sw	zero,108(s0)
   110b2:	06042823          	sw	zero,112(s0)
   110b6:	0c042623          	sw	zero,204(s0)
   110ba:	06042c23          	sw	zero,120(s0)
   110be:	06042e23          	sw	zero,124(s0)
   110c2:	08042023          	sw	zero,128(s0)
   110c6:	2b59                	jal	1165c <memset>
   110c8:	000207b7          	lui	a5,0x20
   110cc:	07c9                	addi	a5,a5,18 # 20012 <__BSS_END__+0x3346>
   110ce:	ff418713          	addi	a4,gp,-12 # 1ca6c <__sf+0x68>
   110d2:	4621                	li	a2,8
   110d4:	4581                	li	a1,0
   110d6:	0b818513          	addi	a0,gp,184 # 1cb30 <__global_pointer$+0xb8>
   110da:	09442423          	sw	s4,136(s0)
   110de:	09342623          	sw	s3,140(s0)
   110e2:	09242823          	sw	s2,144(s0)
   110e6:	08942a23          	sw	s1,148(s0)
   110ea:	0cf42e23          	sw	a5,220(s0)
   110ee:	08e42223          	sw	a4,132(s0)
   110f2:	0c042823          	sw	zero,208(s0)
   110f6:	0c042a23          	sw	zero,212(s0)
   110fa:	0c042c23          	sw	zero,216(s0)
   110fe:	12042a23          	sw	zero,308(s0)
   11102:	0e042023          	sw	zero,224(s0)
   11106:	0e042223          	sw	zero,228(s0)
   1110a:	0e042423          	sw	zero,232(s0)
   1110e:	23b9                	jal	1165c <memset>
   11110:	05c18793          	addi	a5,gp,92 # 1cad4 <__global_pointer$+0x5c>
   11114:	0f442823          	sw	s4,240(s0)
   11118:	0f342a23          	sw	s3,244(s0)
   1111c:	0f242c23          	sw	s2,248(s0)
   11120:	0e942e23          	sw	s1,252(s0)
   11124:	40f2                	lw	ra,28(sp)
   11126:	0ef42623          	sw	a5,236(s0)
   1112a:	4462                	lw	s0,24(sp)
   1112c:	44d2                	lw	s1,20(sp)
   1112e:	4942                	lw	s2,16(sp)
   11130:	49b2                	lw	s3,12(sp)
   11132:	4a22                	lw	s4,8(sp)
   11134:	6105                	addi	sp,sp,32
   11136:	8082                	ret

00011138 <__sfp>:
   11138:	f341a783          	lw	a5,-204(gp) # 1c9ac <__stdio_exit_handler>
   1113c:	1101                	addi	sp,sp,-32
   1113e:	c64e                	sw	s3,12(sp)
   11140:	ce06                	sw	ra,28(sp)
   11142:	cc22                	sw	s0,24(sp)
   11144:	ca26                	sw	s1,20(sp)
   11146:	c84a                	sw	s2,16(sp)
   11148:	89aa                	mv	s3,a0
   1114a:	c7c5                	beqz	a5,111f2 <__sfp+0xba>
   1114c:	c0818913          	addi	s2,gp,-1016 # 1c680 <__sglue>
   11150:	54fd                	li	s1,-1
   11152:	00492783          	lw	a5,4(s2)
   11156:	00892403          	lw	s0,8(s2)
   1115a:	17fd                	addi	a5,a5,-1
   1115c:	0007d763          	bgez	a5,1116a <__sfp+0x32>
   11160:	a8b9                	j	111be <__sfp+0x86>
   11162:	06840413          	addi	s0,s0,104
   11166:	04978c63          	beq	a5,s1,111be <__sfp+0x86>
   1116a:	00c41703          	lh	a4,12(s0)
   1116e:	17fd                	addi	a5,a5,-1
   11170:	fb6d                	bnez	a4,11162 <__sfp+0x2a>
   11172:	77c1                	lui	a5,0xffff0
   11174:	0785                	addi	a5,a5,1 # ffff0001 <__BSS_END__+0xfffd3335>
   11176:	c45c                	sw	a5,12(s0)
   11178:	06042223          	sw	zero,100(s0)
   1117c:	00042023          	sw	zero,0(s0)
   11180:	00042423          	sw	zero,8(s0)
   11184:	00042223          	sw	zero,4(s0)
   11188:	00042823          	sw	zero,16(s0)
   1118c:	00042a23          	sw	zero,20(s0)
   11190:	00042c23          	sw	zero,24(s0)
   11194:	4621                	li	a2,8
   11196:	4581                	li	a1,0
   11198:	05c40513          	addi	a0,s0,92
   1119c:	21c1                	jal	1165c <memset>
   1119e:	02042823          	sw	zero,48(s0)
   111a2:	02042a23          	sw	zero,52(s0)
   111a6:	04042223          	sw	zero,68(s0)
   111aa:	04042423          	sw	zero,72(s0)
   111ae:	40f2                	lw	ra,28(sp)
   111b0:	8522                	mv	a0,s0
   111b2:	4462                	lw	s0,24(sp)
   111b4:	44d2                	lw	s1,20(sp)
   111b6:	4942                	lw	s2,16(sp)
   111b8:	49b2                	lw	s3,12(sp)
   111ba:	6105                	addi	sp,sp,32
   111bc:	8082                	ret
   111be:	00092403          	lw	s0,0(s2)
   111c2:	c019                	beqz	s0,111c8 <__sfp+0x90>
   111c4:	8922                	mv	s2,s0
   111c6:	b771                	j	11152 <__sfp+0x1a>
   111c8:	1ac00593          	li	a1,428
   111cc:	854e                	mv	a0,s3
   111ce:	805ff0ef          	jal	109d2 <_malloc_r>
   111d2:	842a                	mv	s0,a0
   111d4:	c10d                	beqz	a0,111f6 <__sfp+0xbe>
   111d6:	0531                	addi	a0,a0,12
   111d8:	4791                	li	a5,4
   111da:	00042023          	sw	zero,0(s0)
   111de:	c05c                	sw	a5,4(s0)
   111e0:	c408                	sw	a0,8(s0)
   111e2:	1a000613          	li	a2,416
   111e6:	4581                	li	a1,0
   111e8:	2995                	jal	1165c <memset>
   111ea:	00892023          	sw	s0,0(s2)
   111ee:	8922                	mv	s2,s0
   111f0:	b78d                	j	11152 <__sfp+0x1a>
   111f2:	3d35                	jal	1102e <global_stdio_init.part.0>
   111f4:	bfa1                	j	1114c <__sfp+0x14>
   111f6:	00092023          	sw	zero,0(s2)
   111fa:	47b1                	li	a5,12
   111fc:	00f9a023          	sw	a5,0(s3)
   11200:	b77d                	j	111ae <__sfp+0x76>

00011202 <__sinit>:
   11202:	595c                	lw	a5,52(a0)
   11204:	c391                	beqz	a5,11208 <__sinit+0x6>
   11206:	8082                	ret
   11208:	f341a703          	lw	a4,-204(gp) # 1c9ac <__stdio_exit_handler>
   1120c:	67c5                	lui	a5,0x11
   1120e:	fe678793          	addi	a5,a5,-26 # 10fe6 <cleanup_stdio>
   11212:	d95c                	sw	a5,52(a0)
   11214:	fb6d                	bnez	a4,11206 <__sinit+0x4>
   11216:	bd21                	j	1102e <global_stdio_init.part.0>

00011218 <__sfp_lock_acquire>:
   11218:	8082                	ret

0001121a <__sfp_lock_release>:
   1121a:	8082                	ret

0001121c <__fp_lock_all>:
   1121c:	65c5                	lui	a1,0x11
   1121e:	c0818613          	addi	a2,gp,-1016 # 1c680 <__sglue>
   11222:	fd258593          	addi	a1,a1,-46 # 10fd2 <__fp_lock>
   11226:	4501                	li	a0,0
   11228:	a801                	j	11238 <_fwalk_sglue>

0001122a <__fp_unlock_all>:
   1122a:	65c5                	lui	a1,0x11
   1122c:	c0818613          	addi	a2,gp,-1016 # 1c680 <__sglue>
   11230:	02a58593          	addi	a1,a1,42 # 1102a <__fp_unlock>
   11234:	4501                	li	a0,0
   11236:	a009                	j	11238 <_fwalk_sglue>

00011238 <_fwalk_sglue>:
   11238:	7179                	addi	sp,sp,-48
   1123a:	d04a                	sw	s2,32(sp)
   1123c:	ce4e                	sw	s3,28(sp)
   1123e:	cc52                	sw	s4,24(sp)
   11240:	ca56                	sw	s5,20(sp)
   11242:	c85a                	sw	s6,16(sp)
   11244:	c65e                	sw	s7,12(sp)
   11246:	d606                	sw	ra,44(sp)
   11248:	d422                	sw	s0,40(sp)
   1124a:	d226                	sw	s1,36(sp)
   1124c:	8b2a                	mv	s6,a0
   1124e:	8bae                	mv	s7,a1
   11250:	8ab2                	mv	s5,a2
   11252:	4a01                	li	s4,0
   11254:	4985                	li	s3,1
   11256:	597d                	li	s2,-1
   11258:	004aa483          	lw	s1,4(s5)
   1125c:	008aa403          	lw	s0,8(s5)
   11260:	14fd                	addi	s1,s1,-1
   11262:	0204c463          	bltz	s1,1128a <_fwalk_sglue+0x52>
   11266:	00c45783          	lhu	a5,12(s0)
   1126a:	00f9fb63          	bgeu	s3,a5,11280 <_fwalk_sglue+0x48>
   1126e:	00e41783          	lh	a5,14(s0)
   11272:	85a2                	mv	a1,s0
   11274:	855a                	mv	a0,s6
   11276:	01278563          	beq	a5,s2,11280 <_fwalk_sglue+0x48>
   1127a:	9b82                	jalr	s7
   1127c:	00aa6a33          	or	s4,s4,a0
   11280:	14fd                	addi	s1,s1,-1
   11282:	06840413          	addi	s0,s0,104
   11286:	ff2490e3          	bne	s1,s2,11266 <_fwalk_sglue+0x2e>
   1128a:	000aaa83          	lw	s5,0(s5)
   1128e:	fc0a95e3          	bnez	s5,11258 <_fwalk_sglue+0x20>
   11292:	50b2                	lw	ra,44(sp)
   11294:	5422                	lw	s0,40(sp)
   11296:	5492                	lw	s1,36(sp)
   11298:	5902                	lw	s2,32(sp)
   1129a:	49f2                	lw	s3,28(sp)
   1129c:	4ad2                	lw	s5,20(sp)
   1129e:	4b42                	lw	s6,16(sp)
   112a0:	4bb2                	lw	s7,12(sp)
   112a2:	8552                	mv	a0,s4
   112a4:	4a62                	lw	s4,24(sp)
   112a6:	6145                	addi	sp,sp,48
   112a8:	8082                	ret

000112aa <_printf_r>:
   112aa:	7139                	addi	sp,sp,-64
   112ac:	d432                	sw	a2,40(sp)
   112ae:	d636                	sw	a3,44(sp)
   112b0:	d83a                	sw	a4,48(sp)
   112b2:	da3e                	sw	a5,52(sp)
   112b4:	dc42                	sw	a6,56(sp)
   112b6:	de46                	sw	a7,60(sp)
   112b8:	862e                	mv	a2,a1
   112ba:	450c                	lw	a1,8(a0)
   112bc:	1034                	addi	a3,sp,40
   112be:	ce06                	sw	ra,28(sp)
   112c0:	c636                	sw	a3,12(sp)
   112c2:	06d000ef          	jal	11b2e <_vfprintf_r>
   112c6:	40f2                	lw	ra,28(sp)
   112c8:	6121                	addi	sp,sp,64
   112ca:	8082                	ret

000112cc <printf>:
   112cc:	f241a303          	lw	t1,-220(gp) # 1c99c <_impure_ptr>
   112d0:	7139                	addi	sp,sp,-64
   112d2:	d432                	sw	a2,40(sp)
   112d4:	d636                	sw	a3,44(sp)
   112d6:	d22e                	sw	a1,36(sp)
   112d8:	d83a                	sw	a4,48(sp)
   112da:	da3e                	sw	a5,52(sp)
   112dc:	dc42                	sw	a6,56(sp)
   112de:	de46                	sw	a7,60(sp)
   112e0:	00832583          	lw	a1,8(t1)
   112e4:	1054                	addi	a3,sp,36
   112e6:	862a                	mv	a2,a0
   112e8:	851a                	mv	a0,t1
   112ea:	ce06                	sw	ra,28(sp)
   112ec:	c636                	sw	a3,12(sp)
   112ee:	041000ef          	jal	11b2e <_vfprintf_r>
   112f2:	40f2                	lw	ra,28(sp)
   112f4:	6121                	addi	sp,sp,64
   112f6:	8082                	ret

000112f8 <_putchar_r>:
   112f8:	4510                	lw	a2,8(a0)
   112fa:	1930306f          	j	14c8c <_putc_r>

000112fe <putchar>:
   112fe:	f241a783          	lw	a5,-220(gp) # 1c99c <_impure_ptr>
   11302:	85aa                	mv	a1,a0
   11304:	4790                	lw	a2,8(a5)
   11306:	853e                	mv	a0,a5
   11308:	1850306f          	j	14c8c <_putc_r>

0001130c <_puts_r>:
   1130c:	7139                	addi	sp,sp,-64
   1130e:	dc22                	sw	s0,56(sp)
   11310:	842a                	mv	s0,a0
   11312:	852e                	mv	a0,a1
   11314:	da26                	sw	s1,52(sp)
   11316:	de06                	sw	ra,60(sp)
   11318:	84ae                	mv	s1,a1
   1131a:	26ed                	jal	11704 <strlen>
   1131c:	67ed                	lui	a5,0x1b
   1131e:	a7078793          	addi	a5,a5,-1424 # 1aa70 <__clzsi2+0xd6>
   11322:	d43e                	sw	a5,40(sp)
   11324:	4785                	li	a5,1
   11326:	d63e                	sw	a5,44(sp)
   11328:	5858                	lw	a4,52(s0)
   1132a:	101c                	addi	a5,sp,32
   1132c:	00150693          	addi	a3,a0,1
   11330:	ca3e                	sw	a5,20(sp)
   11332:	4789                	li	a5,2
   11334:	d026                	sw	s1,32(sp)
   11336:	d22a                	sw	a0,36(sp)
   11338:	ce36                	sw	a3,28(sp)
   1133a:	cc3e                	sw	a5,24(sp)
   1133c:	440c                	lw	a1,8(s0)
   1133e:	cf1d                	beqz	a4,1137c <_puts_r+0x70>
   11340:	00c59783          	lh	a5,12(a1)
   11344:	01279713          	slli	a4,a5,0x12
   11348:	00074b63          	bltz	a4,1135e <_puts_r+0x52>
   1134c:	51f8                	lw	a4,100(a1)
   1134e:	76f9                	lui	a3,0xffffe
   11350:	16fd                	addi	a3,a3,-1 # ffffdfff <__BSS_END__+0xfffe1333>
   11352:	6609                	lui	a2,0x2
   11354:	8fd1                	or	a5,a5,a2
   11356:	8f75                	and	a4,a4,a3
   11358:	00f59623          	sh	a5,12(a1)
   1135c:	d1f8                	sw	a4,100(a1)
   1135e:	0850                	addi	a2,sp,20
   11360:	8522                	mv	a0,s0
   11362:	5da030ef          	jal	1493c <__sfvwrite_r>
   11366:	50f2                	lw	ra,60(sp)
   11368:	5462                	lw	s0,56(sp)
   1136a:	00153513          	seqz	a0,a0
   1136e:	40a00533          	neg	a0,a0
   11372:	892d                	andi	a0,a0,11
   11374:	54d2                	lw	s1,52(sp)
   11376:	157d                	addi	a0,a0,-1
   11378:	6121                	addi	sp,sp,64
   1137a:	8082                	ret
   1137c:	8522                	mv	a0,s0
   1137e:	c62e                	sw	a1,12(sp)
   11380:	3549                	jal	11202 <__sinit>
   11382:	45b2                	lw	a1,12(sp)
   11384:	bf75                	j	11340 <_puts_r+0x34>

00011386 <puts>:
   11386:	85aa                	mv	a1,a0
   11388:	f241a503          	lw	a0,-220(gp) # 1c99c <_impure_ptr>
   1138c:	b741                	j	1130c <_puts_r>

0001138e <__sread>:
   1138e:	1141                	addi	sp,sp,-16
   11390:	c422                	sw	s0,8(sp)
   11392:	842e                	mv	s0,a1
   11394:	00e59583          	lh	a1,14(a1)
   11398:	c606                	sw	ra,12(sp)
   1139a:	226d                	jal	11544 <_read_r>
   1139c:	00054963          	bltz	a0,113ae <__sread+0x20>
   113a0:	483c                	lw	a5,80(s0)
   113a2:	40b2                	lw	ra,12(sp)
   113a4:	97aa                	add	a5,a5,a0
   113a6:	c83c                	sw	a5,80(s0)
   113a8:	4422                	lw	s0,8(sp)
   113aa:	0141                	addi	sp,sp,16
   113ac:	8082                	ret
   113ae:	00c45783          	lhu	a5,12(s0)
   113b2:	777d                	lui	a4,0xfffff
   113b4:	177d                	addi	a4,a4,-1 # ffffefff <__BSS_END__+0xfffe2333>
   113b6:	8ff9                	and	a5,a5,a4
   113b8:	40b2                	lw	ra,12(sp)
   113ba:	00f41623          	sh	a5,12(s0)
   113be:	4422                	lw	s0,8(sp)
   113c0:	0141                	addi	sp,sp,16
   113c2:	8082                	ret

000113c4 <__seofread>:
   113c4:	4501                	li	a0,0
   113c6:	8082                	ret

000113c8 <__swrite>:
   113c8:	00c59783          	lh	a5,12(a1)
   113cc:	1101                	addi	sp,sp,-32
   113ce:	cc22                	sw	s0,24(sp)
   113d0:	ca26                	sw	s1,20(sp)
   113d2:	c84a                	sw	s2,16(sp)
   113d4:	c64e                	sw	s3,12(sp)
   113d6:	ce06                	sw	ra,28(sp)
   113d8:	1007f713          	andi	a4,a5,256
   113dc:	842e                	mv	s0,a1
   113de:	84aa                	mv	s1,a0
   113e0:	8932                	mv	s2,a2
   113e2:	89b6                	mv	s3,a3
   113e4:	e315                	bnez	a4,11408 <__swrite+0x40>
   113e6:	777d                	lui	a4,0xfffff
   113e8:	177d                	addi	a4,a4,-1 # ffffefff <__BSS_END__+0xfffe2333>
   113ea:	8ff9                	and	a5,a5,a4
   113ec:	00e41583          	lh	a1,14(s0)
   113f0:	00f41623          	sh	a5,12(s0)
   113f4:	4462                	lw	s0,24(sp)
   113f6:	40f2                	lw	ra,28(sp)
   113f8:	86ce                	mv	a3,s3
   113fa:	864a                	mv	a2,s2
   113fc:	49b2                	lw	s3,12(sp)
   113fe:	4942                	lw	s2,16(sp)
   11400:	8526                	mv	a0,s1
   11402:	44d2                	lw	s1,20(sp)
   11404:	6105                	addi	sp,sp,32
   11406:	aa45                	j	115b6 <_write_r>
   11408:	00e59583          	lh	a1,14(a1)
   1140c:	4689                	li	a3,2
   1140e:	4601                	li	a2,0
   11410:	28e5                	jal	11508 <_lseek_r>
   11412:	00c41783          	lh	a5,12(s0)
   11416:	bfc1                	j	113e6 <__swrite+0x1e>

00011418 <__sseek>:
   11418:	1141                	addi	sp,sp,-16
   1141a:	c422                	sw	s0,8(sp)
   1141c:	842e                	mv	s0,a1
   1141e:	00e59583          	lh	a1,14(a1)
   11422:	c606                	sw	ra,12(sp)
   11424:	20d5                	jal	11508 <_lseek_r>
   11426:	57fd                	li	a5,-1
   11428:	00f50f63          	beq	a0,a5,11446 <__sseek+0x2e>
   1142c:	00c45783          	lhu	a5,12(s0)
   11430:	6705                	lui	a4,0x1
   11432:	40b2                	lw	ra,12(sp)
   11434:	8fd9                	or	a5,a5,a4
   11436:	07c2                	slli	a5,a5,0x10
   11438:	87c1                	srai	a5,a5,0x10
   1143a:	c828                	sw	a0,80(s0)
   1143c:	00f41623          	sh	a5,12(s0)
   11440:	4422                	lw	s0,8(sp)
   11442:	0141                	addi	sp,sp,16
   11444:	8082                	ret
   11446:	00c45783          	lhu	a5,12(s0)
   1144a:	777d                	lui	a4,0xfffff
   1144c:	177d                	addi	a4,a4,-1 # ffffefff <__BSS_END__+0xfffe2333>
   1144e:	8ff9                	and	a5,a5,a4
   11450:	07c2                	slli	a5,a5,0x10
   11452:	87c1                	srai	a5,a5,0x10
   11454:	40b2                	lw	ra,12(sp)
   11456:	00f41623          	sh	a5,12(s0)
   1145a:	4422                	lw	s0,8(sp)
   1145c:	0141                	addi	sp,sp,16
   1145e:	8082                	ret

00011460 <__sclose>:
   11460:	00e59583          	lh	a1,14(a1)
   11464:	a009                	j	11466 <_close_r>

00011466 <_close_r>:
   11466:	1141                	addi	sp,sp,-16
   11468:	c422                	sw	s0,8(sp)
   1146a:	c226                	sw	s1,4(sp)
   1146c:	842a                	mv	s0,a0
   1146e:	852e                	mv	a0,a1
   11470:	c606                	sw	ra,12(sp)
   11472:	f201ac23          	sw	zero,-200(gp) # 1c9b0 <errno>
   11476:	697060ef          	jal	1830c <_close>
   1147a:	57fd                	li	a5,-1
   1147c:	00f50763          	beq	a0,a5,1148a <_close_r+0x24>
   11480:	40b2                	lw	ra,12(sp)
   11482:	4422                	lw	s0,8(sp)
   11484:	4492                	lw	s1,4(sp)
   11486:	0141                	addi	sp,sp,16
   11488:	8082                	ret
   1148a:	f381a783          	lw	a5,-200(gp) # 1c9b0 <errno>
   1148e:	dbed                	beqz	a5,11480 <_close_r+0x1a>
   11490:	40b2                	lw	ra,12(sp)
   11492:	c01c                	sw	a5,0(s0)
   11494:	4422                	lw	s0,8(sp)
   11496:	4492                	lw	s1,4(sp)
   11498:	0141                	addi	sp,sp,16
   1149a:	8082                	ret

0001149c <_reclaim_reent>:
   1149c:	f241a783          	lw	a5,-220(gp) # 1c99c <_impure_ptr>
   114a0:	06a78363          	beq	a5,a0,11506 <_reclaim_reent+0x6a>
   114a4:	416c                	lw	a1,68(a0)
   114a6:	1101                	addi	sp,sp,-32
   114a8:	ca26                	sw	s1,20(sp)
   114aa:	ce06                	sw	ra,28(sp)
   114ac:	84aa                	mv	s1,a0
   114ae:	c98d                	beqz	a1,114e0 <_reclaim_reent+0x44>
   114b0:	c84a                	sw	s2,16(sp)
   114b2:	c64e                	sw	s3,12(sp)
   114b4:	cc22                	sw	s0,24(sp)
   114b6:	4901                	li	s2,0
   114b8:	08000993          	li	s3,128
   114bc:	012587b3          	add	a5,a1,s2
   114c0:	4380                	lw	s0,0(a5)
   114c2:	c419                	beqz	s0,114d0 <_reclaim_reent+0x34>
   114c4:	85a2                	mv	a1,s0
   114c6:	4000                	lw	s0,0(s0)
   114c8:	8526                	mv	a0,s1
   114ca:	293d                	jal	11908 <_free_r>
   114cc:	fc65                	bnez	s0,114c4 <_reclaim_reent+0x28>
   114ce:	40ec                	lw	a1,68(s1)
   114d0:	0911                	addi	s2,s2,4
   114d2:	ff3915e3          	bne	s2,s3,114bc <_reclaim_reent+0x20>
   114d6:	8526                	mv	a0,s1
   114d8:	2905                	jal	11908 <_free_r>
   114da:	4462                	lw	s0,24(sp)
   114dc:	4942                	lw	s2,16(sp)
   114de:	49b2                	lw	s3,12(sp)
   114e0:	5c8c                	lw	a1,56(s1)
   114e2:	c199                	beqz	a1,114e8 <_reclaim_reent+0x4c>
   114e4:	8526                	mv	a0,s1
   114e6:	210d                	jal	11908 <_free_r>
   114e8:	44ec                	lw	a1,76(s1)
   114ea:	c199                	beqz	a1,114f0 <_reclaim_reent+0x54>
   114ec:	8526                	mv	a0,s1
   114ee:	2929                	jal	11908 <_free_r>
   114f0:	58dc                	lw	a5,52(s1)
   114f2:	c791                	beqz	a5,114fe <_reclaim_reent+0x62>
   114f4:	40f2                	lw	ra,28(sp)
   114f6:	8526                	mv	a0,s1
   114f8:	44d2                	lw	s1,20(sp)
   114fa:	6105                	addi	sp,sp,32
   114fc:	8782                	jr	a5
   114fe:	40f2                	lw	ra,28(sp)
   11500:	44d2                	lw	s1,20(sp)
   11502:	6105                	addi	sp,sp,32
   11504:	8082                	ret
   11506:	8082                	ret

00011508 <_lseek_r>:
   11508:	1141                	addi	sp,sp,-16
   1150a:	872e                	mv	a4,a1
   1150c:	c422                	sw	s0,8(sp)
   1150e:	c226                	sw	s1,4(sp)
   11510:	85b2                	mv	a1,a2
   11512:	842a                	mv	s0,a0
   11514:	8636                	mv	a2,a3
   11516:	853a                	mv	a0,a4
   11518:	c606                	sw	ra,12(sp)
   1151a:	f201ac23          	sw	zero,-200(gp) # 1c9b0 <errno>
   1151e:	6b3060ef          	jal	183d0 <_lseek>
   11522:	57fd                	li	a5,-1
   11524:	00f50763          	beq	a0,a5,11532 <_lseek_r+0x2a>
   11528:	40b2                	lw	ra,12(sp)
   1152a:	4422                	lw	s0,8(sp)
   1152c:	4492                	lw	s1,4(sp)
   1152e:	0141                	addi	sp,sp,16
   11530:	8082                	ret
   11532:	f381a783          	lw	a5,-200(gp) # 1c9b0 <errno>
   11536:	dbed                	beqz	a5,11528 <_lseek_r+0x20>
   11538:	40b2                	lw	ra,12(sp)
   1153a:	c01c                	sw	a5,0(s0)
   1153c:	4422                	lw	s0,8(sp)
   1153e:	4492                	lw	s1,4(sp)
   11540:	0141                	addi	sp,sp,16
   11542:	8082                	ret

00011544 <_read_r>:
   11544:	1141                	addi	sp,sp,-16
   11546:	872e                	mv	a4,a1
   11548:	c422                	sw	s0,8(sp)
   1154a:	c226                	sw	s1,4(sp)
   1154c:	85b2                	mv	a1,a2
   1154e:	842a                	mv	s0,a0
   11550:	8636                	mv	a2,a3
   11552:	853a                	mv	a0,a4
   11554:	c606                	sw	ra,12(sp)
   11556:	f201ac23          	sw	zero,-200(gp) # 1c9b0 <errno>
   1155a:	6a3060ef          	jal	183fc <_read>
   1155e:	57fd                	li	a5,-1
   11560:	00f50763          	beq	a0,a5,1156e <_read_r+0x2a>
   11564:	40b2                	lw	ra,12(sp)
   11566:	4422                	lw	s0,8(sp)
   11568:	4492                	lw	s1,4(sp)
   1156a:	0141                	addi	sp,sp,16
   1156c:	8082                	ret
   1156e:	f381a783          	lw	a5,-200(gp) # 1c9b0 <errno>
   11572:	dbed                	beqz	a5,11564 <_read_r+0x20>
   11574:	40b2                	lw	ra,12(sp)
   11576:	c01c                	sw	a5,0(s0)
   11578:	4422                	lw	s0,8(sp)
   1157a:	4492                	lw	s1,4(sp)
   1157c:	0141                	addi	sp,sp,16
   1157e:	8082                	ret

00011580 <_sbrk_r>:
   11580:	1141                	addi	sp,sp,-16
   11582:	c422                	sw	s0,8(sp)
   11584:	c226                	sw	s1,4(sp)
   11586:	842a                	mv	s0,a0
   11588:	852e                	mv	a0,a1
   1158a:	c606                	sw	ra,12(sp)
   1158c:	f201ac23          	sw	zero,-200(gp) # 1c9b0 <errno>
   11590:	699060ef          	jal	18428 <_sbrk>
   11594:	57fd                	li	a5,-1
   11596:	00f50763          	beq	a0,a5,115a4 <_sbrk_r+0x24>
   1159a:	40b2                	lw	ra,12(sp)
   1159c:	4422                	lw	s0,8(sp)
   1159e:	4492                	lw	s1,4(sp)
   115a0:	0141                	addi	sp,sp,16
   115a2:	8082                	ret
   115a4:	f381a783          	lw	a5,-200(gp) # 1c9b0 <errno>
   115a8:	dbed                	beqz	a5,1159a <_sbrk_r+0x1a>
   115aa:	40b2                	lw	ra,12(sp)
   115ac:	c01c                	sw	a5,0(s0)
   115ae:	4422                	lw	s0,8(sp)
   115b0:	4492                	lw	s1,4(sp)
   115b2:	0141                	addi	sp,sp,16
   115b4:	8082                	ret

000115b6 <_write_r>:
   115b6:	1141                	addi	sp,sp,-16
   115b8:	872e                	mv	a4,a1
   115ba:	c422                	sw	s0,8(sp)
   115bc:	c226                	sw	s1,4(sp)
   115be:	85b2                	mv	a1,a2
   115c0:	842a                	mv	s0,a0
   115c2:	8636                	mv	a2,a3
   115c4:	853a                	mv	a0,a4
   115c6:	c606                	sw	ra,12(sp)
   115c8:	f201ac23          	sw	zero,-200(gp) # 1c9b0 <errno>
   115cc:	6b1060ef          	jal	1847c <_write>
   115d0:	57fd                	li	a5,-1
   115d2:	00f50763          	beq	a0,a5,115e0 <_write_r+0x2a>
   115d6:	40b2                	lw	ra,12(sp)
   115d8:	4422                	lw	s0,8(sp)
   115da:	4492                	lw	s1,4(sp)
   115dc:	0141                	addi	sp,sp,16
   115de:	8082                	ret
   115e0:	f381a783          	lw	a5,-200(gp) # 1c9b0 <errno>
   115e4:	dbed                	beqz	a5,115d6 <_write_r+0x20>
   115e6:	40b2                	lw	ra,12(sp)
   115e8:	c01c                	sw	a5,0(s0)
   115ea:	4422                	lw	s0,8(sp)
   115ec:	4492                	lw	s1,4(sp)
   115ee:	0141                	addi	sp,sp,16
   115f0:	8082                	ret

000115f2 <__libc_init_array>:
   115f2:	1141                	addi	sp,sp,-16
   115f4:	c422                	sw	s0,8(sp)
   115f6:	67f1                	lui	a5,0x1c
   115f8:	6471                	lui	s0,0x1c
   115fa:	c04a                	sw	s2,0(sp)
   115fc:	26878793          	addi	a5,a5,616 # 1c268 <__init_array_start>
   11600:	26840713          	addi	a4,s0,616 # 1c268 <__init_array_start>
   11604:	c606                	sw	ra,12(sp)
   11606:	c226                	sw	s1,4(sp)
   11608:	40e78933          	sub	s2,a5,a4
   1160c:	00e78d63          	beq	a5,a4,11626 <__libc_init_array+0x34>
   11610:	40295913          	srai	s2,s2,0x2
   11614:	26840413          	addi	s0,s0,616
   11618:	4481                	li	s1,0
   1161a:	401c                	lw	a5,0(s0)
   1161c:	0485                	addi	s1,s1,1
   1161e:	0411                	addi	s0,s0,4
   11620:	9782                	jalr	a5
   11622:	ff24ece3          	bltu	s1,s2,1161a <__libc_init_array+0x28>
   11626:	6471                	lui	s0,0x1c
   11628:	67f1                	lui	a5,0x1c
   1162a:	27078793          	addi	a5,a5,624 # 1c270 <__do_global_dtors_aux_fini_array_entry>
   1162e:	26840713          	addi	a4,s0,616 # 1c268 <__init_array_start>
   11632:	40e78933          	sub	s2,a5,a4
   11636:	40295913          	srai	s2,s2,0x2
   1163a:	00e78b63          	beq	a5,a4,11650 <__libc_init_array+0x5e>
   1163e:	26840413          	addi	s0,s0,616
   11642:	4481                	li	s1,0
   11644:	401c                	lw	a5,0(s0)
   11646:	0485                	addi	s1,s1,1
   11648:	0411                	addi	s0,s0,4
   1164a:	9782                	jalr	a5
   1164c:	ff24ece3          	bltu	s1,s2,11644 <__libc_init_array+0x52>
   11650:	40b2                	lw	ra,12(sp)
   11652:	4422                	lw	s0,8(sp)
   11654:	4492                	lw	s1,4(sp)
   11656:	4902                	lw	s2,0(sp)
   11658:	0141                	addi	sp,sp,16
   1165a:	8082                	ret

0001165c <memset>:
   1165c:	433d                	li	t1,15
   1165e:	872a                	mv	a4,a0
   11660:	02c37363          	bgeu	t1,a2,11686 <memset+0x2a>
   11664:	00f77793          	andi	a5,a4,15
   11668:	efbd                	bnez	a5,116e6 <memset+0x8a>
   1166a:	e5ad                	bnez	a1,116d4 <memset+0x78>
   1166c:	ff067693          	andi	a3,a2,-16
   11670:	8a3d                	andi	a2,a2,15
   11672:	96ba                	add	a3,a3,a4
   11674:	c30c                	sw	a1,0(a4)
   11676:	c34c                	sw	a1,4(a4)
   11678:	c70c                	sw	a1,8(a4)
   1167a:	c74c                	sw	a1,12(a4)
   1167c:	0741                	addi	a4,a4,16
   1167e:	fed76be3          	bltu	a4,a3,11674 <memset+0x18>
   11682:	e211                	bnez	a2,11686 <memset+0x2a>
   11684:	8082                	ret
   11686:	40c306b3          	sub	a3,t1,a2
   1168a:	068a                	slli	a3,a3,0x2
   1168c:	00000297          	auipc	t0,0x0
   11690:	9696                	add	a3,a3,t0
   11692:	00a68067          	jr	10(a3)
   11696:	00b70723          	sb	a1,14(a4)
   1169a:	00b706a3          	sb	a1,13(a4)
   1169e:	00b70623          	sb	a1,12(a4)
   116a2:	00b705a3          	sb	a1,11(a4)
   116a6:	00b70523          	sb	a1,10(a4)
   116aa:	00b704a3          	sb	a1,9(a4)
   116ae:	00b70423          	sb	a1,8(a4)
   116b2:	00b703a3          	sb	a1,7(a4)
   116b6:	00b70323          	sb	a1,6(a4)
   116ba:	00b702a3          	sb	a1,5(a4)
   116be:	00b70223          	sb	a1,4(a4)
   116c2:	00b701a3          	sb	a1,3(a4)
   116c6:	00b70123          	sb	a1,2(a4)
   116ca:	00b700a3          	sb	a1,1(a4)
   116ce:	00b70023          	sb	a1,0(a4)
   116d2:	8082                	ret
   116d4:	0ff5f593          	zext.b	a1,a1
   116d8:	00859693          	slli	a3,a1,0x8
   116dc:	8dd5                	or	a1,a1,a3
   116de:	01059693          	slli	a3,a1,0x10
   116e2:	8dd5                	or	a1,a1,a3
   116e4:	b761                	j	1166c <memset+0x10>
   116e6:	00279693          	slli	a3,a5,0x2
   116ea:	00000297          	auipc	t0,0x0
   116ee:	9696                	add	a3,a3,t0
   116f0:	8286                	mv	t0,ra
   116f2:	fa8680e7          	jalr	-88(a3)
   116f6:	8096                	mv	ra,t0
   116f8:	17c1                	addi	a5,a5,-16
   116fa:	8f1d                	sub	a4,a4,a5
   116fc:	963e                	add	a2,a2,a5
   116fe:	f8c374e3          	bgeu	t1,a2,11686 <memset+0x2a>
   11702:	b7a5                	j	1166a <memset+0xe>

00011704 <strlen>:
   11704:	00357793          	andi	a5,a0,3
   11708:	872a                	mv	a4,a0
   1170a:	ef9d                	bnez	a5,11748 <strlen+0x44>
   1170c:	7f7f86b7          	lui	a3,0x7f7f8
   11710:	f7f68693          	addi	a3,a3,-129 # 7f7f7f7f <__BSS_END__+0x7f7db2b3>
   11714:	55fd                	li	a1,-1
   11716:	4310                	lw	a2,0(a4)
   11718:	0711                	addi	a4,a4,4
   1171a:	00d677b3          	and	a5,a2,a3
   1171e:	97b6                	add	a5,a5,a3
   11720:	8fd1                	or	a5,a5,a2
   11722:	8fd5                	or	a5,a5,a3
   11724:	feb789e3          	beq	a5,a1,11716 <strlen+0x12>
   11728:	ffc74683          	lbu	a3,-4(a4)
   1172c:	40a707b3          	sub	a5,a4,a0
   11730:	ca8d                	beqz	a3,11762 <strlen+0x5e>
   11732:	ffd74683          	lbu	a3,-3(a4)
   11736:	c29d                	beqz	a3,1175c <strlen+0x58>
   11738:	ffe74503          	lbu	a0,-2(a4)
   1173c:	00a03533          	snez	a0,a0
   11740:	953e                	add	a0,a0,a5
   11742:	1579                	addi	a0,a0,-2
   11744:	8082                	ret
   11746:	d2f9                	beqz	a3,1170c <strlen+0x8>
   11748:	00074783          	lbu	a5,0(a4)
   1174c:	0705                	addi	a4,a4,1
   1174e:	00377693          	andi	a3,a4,3
   11752:	fbf5                	bnez	a5,11746 <strlen+0x42>
   11754:	8f09                	sub	a4,a4,a0
   11756:	fff70513          	addi	a0,a4,-1
   1175a:	8082                	ret
   1175c:	ffd78513          	addi	a0,a5,-3
   11760:	8082                	ret
   11762:	ffc78513          	addi	a0,a5,-4
   11766:	8082                	ret

00011768 <__call_exitprocs>:
   11768:	7179                	addi	sp,sp,-48
   1176a:	cc52                	sw	s4,24(sp)
   1176c:	d04a                	sw	s2,32(sp)
   1176e:	f3c1a903          	lw	s2,-196(gp) # 1c9b4 <__atexit>
   11772:	d606                	sw	ra,44(sp)
   11774:	06090c63          	beqz	s2,117ec <__call_exitprocs+0x84>
   11778:	ce4e                	sw	s3,28(sp)
   1177a:	ca56                	sw	s5,20(sp)
   1177c:	c85a                	sw	s6,16(sp)
   1177e:	c65e                	sw	s7,12(sp)
   11780:	d422                	sw	s0,40(sp)
   11782:	d226                	sw	s1,36(sp)
   11784:	c462                	sw	s8,8(sp)
   11786:	8b2a                	mv	s6,a0
   11788:	8bae                	mv	s7,a1
   1178a:	59fd                	li	s3,-1
   1178c:	4a85                	li	s5,1
   1178e:	00492483          	lw	s1,4(s2)
   11792:	fff48413          	addi	s0,s1,-1
   11796:	04044463          	bltz	s0,117de <__call_exitprocs+0x76>
   1179a:	048a                	slli	s1,s1,0x2
   1179c:	94ca                	add	s1,s1,s2
   1179e:	040b9c63          	bnez	s7,117f6 <__call_exitprocs+0x8e>
   117a2:	00492783          	lw	a5,4(s2)
   117a6:	40d4                	lw	a3,4(s1)
   117a8:	17fd                	addi	a5,a5,-1
   117aa:	08878063          	beq	a5,s0,1182a <__call_exitprocs+0xc2>
   117ae:	0004a223          	sw	zero,4(s1)
   117b2:	c295                	beqz	a3,117d6 <__call_exitprocs+0x6e>
   117b4:	18892783          	lw	a5,392(s2)
   117b8:	008a9733          	sll	a4,s5,s0
   117bc:	00492c03          	lw	s8,4(s2)
   117c0:	8ff9                	and	a5,a5,a4
   117c2:	e3b9                	bnez	a5,11808 <__call_exitprocs+0xa0>
   117c4:	9682                	jalr	a3
   117c6:	00492703          	lw	a4,4(s2)
   117ca:	f3c1a783          	lw	a5,-196(gp) # 1c9b4 <__atexit>
   117ce:	05871b63          	bne	a4,s8,11824 <__call_exitprocs+0xbc>
   117d2:	05279963          	bne	a5,s2,11824 <__call_exitprocs+0xbc>
   117d6:	147d                	addi	s0,s0,-1
   117d8:	14f1                	addi	s1,s1,-4
   117da:	fd3412e3          	bne	s0,s3,1179e <__call_exitprocs+0x36>
   117de:	5422                	lw	s0,40(sp)
   117e0:	5492                	lw	s1,36(sp)
   117e2:	49f2                	lw	s3,28(sp)
   117e4:	4ad2                	lw	s5,20(sp)
   117e6:	4b42                	lw	s6,16(sp)
   117e8:	4bb2                	lw	s7,12(sp)
   117ea:	4c22                	lw	s8,8(sp)
   117ec:	50b2                	lw	ra,44(sp)
   117ee:	5902                	lw	s2,32(sp)
   117f0:	4a62                	lw	s4,24(sp)
   117f2:	6145                	addi	sp,sp,48
   117f4:	8082                	ret
   117f6:	1044a783          	lw	a5,260(s1)
   117fa:	fb7784e3          	beq	a5,s7,117a2 <__call_exitprocs+0x3a>
   117fe:	147d                	addi	s0,s0,-1
   11800:	14f1                	addi	s1,s1,-4
   11802:	ff341ae3          	bne	s0,s3,117f6 <__call_exitprocs+0x8e>
   11806:	bfe1                	j	117de <__call_exitprocs+0x76>
   11808:	18c92783          	lw	a5,396(s2)
   1180c:	0844a583          	lw	a1,132(s1)
   11810:	8f7d                	and	a4,a4,a5
   11812:	ef19                	bnez	a4,11830 <__call_exitprocs+0xc8>
   11814:	855a                	mv	a0,s6
   11816:	9682                	jalr	a3
   11818:	00492703          	lw	a4,4(s2)
   1181c:	f3c1a783          	lw	a5,-196(gp) # 1c9b4 <__atexit>
   11820:	fb8709e3          	beq	a4,s8,117d2 <__call_exitprocs+0x6a>
   11824:	dfcd                	beqz	a5,117de <__call_exitprocs+0x76>
   11826:	893e                	mv	s2,a5
   11828:	b79d                	j	1178e <__call_exitprocs+0x26>
   1182a:	00892223          	sw	s0,4(s2)
   1182e:	b751                	j	117b2 <__call_exitprocs+0x4a>
   11830:	852e                	mv	a0,a1
   11832:	9682                	jalr	a3
   11834:	bf49                	j	117c6 <__call_exitprocs+0x5e>

00011836 <atexit>:
   11836:	85aa                	mv	a1,a0
   11838:	4681                	li	a3,0
   1183a:	4601                	li	a2,0
   1183c:	4501                	li	a0,0
   1183e:	6010306f          	j	1563e <__register_exitproc>

00011842 <_malloc_trim_r>:
   11842:	1101                	addi	sp,sp,-32
   11844:	c64e                	sw	s3,12(sp)
   11846:	69f1                	lui	s3,0x1c
   11848:	cc22                	sw	s0,24(sp)
   1184a:	ca26                	sw	s1,20(sp)
   1184c:	c84a                	sw	s2,16(sp)
   1184e:	c452                	sw	s4,8(sp)
   11850:	ce06                	sw	ra,28(sp)
   11852:	8a2e                	mv	s4,a1
   11854:	892a                	mv	s2,a0
   11856:	27898993          	addi	s3,s3,632 # 1c278 <__malloc_av_>
   1185a:	f1cff0ef          	jal	10f76 <__malloc_lock>
   1185e:	0089a703          	lw	a4,8(s3)
   11862:	6785                	lui	a5,0x1
   11864:	17bd                	addi	a5,a5,-17 # fef <exit-0xf0a5>
   11866:	4344                	lw	s1,4(a4)
   11868:	6705                	lui	a4,0x1
   1186a:	98f1                	andi	s1,s1,-4
   1186c:	00f48433          	add	s0,s1,a5
   11870:	41440433          	sub	s0,s0,s4
   11874:	8031                	srli	s0,s0,0xc
   11876:	147d                	addi	s0,s0,-1
   11878:	0432                	slli	s0,s0,0xc
   1187a:	00e44a63          	blt	s0,a4,1188e <_malloc_trim_r+0x4c>
   1187e:	4581                	li	a1,0
   11880:	854a                	mv	a0,s2
   11882:	39fd                	jal	11580 <_sbrk_r>
   11884:	0089a783          	lw	a5,8(s3)
   11888:	97a6                	add	a5,a5,s1
   1188a:	00f50e63          	beq	a0,a5,118a6 <_malloc_trim_r+0x64>
   1188e:	854a                	mv	a0,s2
   11890:	ee8ff0ef          	jal	10f78 <__malloc_unlock>
   11894:	40f2                	lw	ra,28(sp)
   11896:	4462                	lw	s0,24(sp)
   11898:	44d2                	lw	s1,20(sp)
   1189a:	4942                	lw	s2,16(sp)
   1189c:	49b2                	lw	s3,12(sp)
   1189e:	4a22                	lw	s4,8(sp)
   118a0:	4501                	li	a0,0
   118a2:	6105                	addi	sp,sp,32
   118a4:	8082                	ret
   118a6:	408005b3          	neg	a1,s0
   118aa:	854a                	mv	a0,s2
   118ac:	39d1                	jal	11580 <_sbrk_r>
   118ae:	57fd                	li	a5,-1
   118b0:	02f50963          	beq	a0,a5,118e2 <_malloc_trim_r+0xa0>
   118b4:	f6418793          	addi	a5,gp,-156 # 1c9dc <__malloc_current_mallinfo>
   118b8:	4398                	lw	a4,0(a5)
   118ba:	0089a683          	lw	a3,8(s3)
   118be:	8c81                	sub	s1,s1,s0
   118c0:	0014e493          	ori	s1,s1,1
   118c4:	8f01                	sub	a4,a4,s0
   118c6:	854a                	mv	a0,s2
   118c8:	c2c4                	sw	s1,4(a3)
   118ca:	c398                	sw	a4,0(a5)
   118cc:	eacff0ef          	jal	10f78 <__malloc_unlock>
   118d0:	40f2                	lw	ra,28(sp)
   118d2:	4462                	lw	s0,24(sp)
   118d4:	44d2                	lw	s1,20(sp)
   118d6:	4942                	lw	s2,16(sp)
   118d8:	49b2                	lw	s3,12(sp)
   118da:	4a22                	lw	s4,8(sp)
   118dc:	4505                	li	a0,1
   118de:	6105                	addi	sp,sp,32
   118e0:	8082                	ret
   118e2:	4581                	li	a1,0
   118e4:	854a                	mv	a0,s2
   118e6:	3969                	jal	11580 <_sbrk_r>
   118e8:	0089a703          	lw	a4,8(s3)
   118ec:	46bd                	li	a3,15
   118ee:	40e507b3          	sub	a5,a0,a4
   118f2:	f8f6dee3          	bge	a3,a5,1188e <_malloc_trim_r+0x4c>
   118f6:	f1c1a683          	lw	a3,-228(gp) # 1c994 <__malloc_sbrk_base>
   118fa:	0017e793          	ori	a5,a5,1
   118fe:	c35c                	sw	a5,4(a4)
   11900:	8d15                	sub	a0,a0,a3
   11902:	f6a1a223          	sw	a0,-156(gp) # 1c9dc <__malloc_current_mallinfo>
   11906:	b761                	j	1188e <_malloc_trim_r+0x4c>

00011908 <_free_r>:
   11908:	10058c63          	beqz	a1,11a20 <_free_r+0x118>
   1190c:	1141                	addi	sp,sp,-16
   1190e:	c422                	sw	s0,8(sp)
   11910:	c226                	sw	s1,4(sp)
   11912:	842e                	mv	s0,a1
   11914:	84aa                	mv	s1,a0
   11916:	c606                	sw	ra,12(sp)
   11918:	e5eff0ef          	jal	10f76 <__malloc_lock>
   1191c:	ffc42503          	lw	a0,-4(s0)
   11920:	ff840713          	addi	a4,s0,-8
   11924:	65f1                	lui	a1,0x1c
   11926:	ffe57793          	andi	a5,a0,-2
   1192a:	00f70633          	add	a2,a4,a5
   1192e:	27858593          	addi	a1,a1,632 # 1c278 <__malloc_av_>
   11932:	4254                	lw	a3,4(a2)
   11934:	0085a803          	lw	a6,8(a1)
   11938:	9af1                	andi	a3,a3,-4
   1193a:	12c80563          	beq	a6,a2,11a64 <_free_r+0x15c>
   1193e:	c254                	sw	a3,4(a2)
   11940:	8905                	andi	a0,a0,1
   11942:	00d60833          	add	a6,a2,a3
   11946:	e93d                	bnez	a0,119bc <_free_r+0xb4>
   11948:	ff842303          	lw	t1,-8(s0)
   1194c:	00482803          	lw	a6,4(a6)
   11950:	6571                	lui	a0,0x1c
   11952:	40670733          	sub	a4,a4,t1
   11956:	00872883          	lw	a7,8(a4) # 1008 <exit-0xf08c>
   1195a:	28050513          	addi	a0,a0,640 # 1c280 <__malloc_av_+0x8>
   1195e:	979a                	add	a5,a5,t1
   11960:	00187813          	andi	a6,a6,1
   11964:	0ea88363          	beq	a7,a0,11a4a <_free_r+0x142>
   11968:	00c72303          	lw	t1,12(a4)
   1196c:	0068a623          	sw	t1,12(a7)
   11970:	01132423          	sw	a7,8(t1)
   11974:	12080063          	beqz	a6,11a94 <_free_r+0x18c>
   11978:	0017e693          	ori	a3,a5,1
   1197c:	c354                	sw	a3,4(a4)
   1197e:	c21c                	sw	a5,0(a2)
   11980:	1ff00693          	li	a3,511
   11984:	04f6e963          	bltu	a3,a5,119d6 <_free_r+0xce>
   11988:	ff87f693          	andi	a3,a5,-8
   1198c:	06a1                	addi	a3,a3,8
   1198e:	41c8                	lw	a0,4(a1)
   11990:	96ae                	add	a3,a3,a1
   11992:	4290                	lw	a2,0(a3)
   11994:	0057d813          	srli	a6,a5,0x5
   11998:	4785                	li	a5,1
   1199a:	010797b3          	sll	a5,a5,a6
   1199e:	8fc9                	or	a5,a5,a0
   119a0:	ff868513          	addi	a0,a3,-8
   119a4:	c748                	sw	a0,12(a4)
   119a6:	c710                	sw	a2,8(a4)
   119a8:	c1dc                	sw	a5,4(a1)
   119aa:	c298                	sw	a4,0(a3)
   119ac:	c658                	sw	a4,12(a2)
   119ae:	4422                	lw	s0,8(sp)
   119b0:	40b2                	lw	ra,12(sp)
   119b2:	8526                	mv	a0,s1
   119b4:	4492                	lw	s1,4(sp)
   119b6:	0141                	addi	sp,sp,16
   119b8:	dc0ff06f          	j	10f78 <__malloc_unlock>
   119bc:	00482503          	lw	a0,4(a6)
   119c0:	8905                	andi	a0,a0,1
   119c2:	c125                	beqz	a0,11a22 <_free_r+0x11a>
   119c4:	0017e693          	ori	a3,a5,1
   119c8:	fed42e23          	sw	a3,-4(s0)
   119cc:	c21c                	sw	a5,0(a2)
   119ce:	1ff00693          	li	a3,511
   119d2:	faf6fbe3          	bgeu	a3,a5,11988 <_free_r+0x80>
   119d6:	0097d693          	srli	a3,a5,0x9
   119da:	4611                	li	a2,4
   119dc:	0ad66e63          	bltu	a2,a3,11a98 <_free_r+0x190>
   119e0:	0067d693          	srli	a3,a5,0x6
   119e4:	03968513          	addi	a0,a3,57
   119e8:	03868613          	addi	a2,a3,56
   119ec:	050e                	slli	a0,a0,0x3
   119ee:	952e                	add	a0,a0,a1
   119f0:	4114                	lw	a3,0(a0)
   119f2:	1561                	addi	a0,a0,-8
   119f4:	00d51663          	bne	a0,a3,11a00 <_free_r+0xf8>
   119f8:	a8f9                	j	11ad6 <_free_r+0x1ce>
   119fa:	4694                	lw	a3,8(a3)
   119fc:	00d50663          	beq	a0,a3,11a08 <_free_r+0x100>
   11a00:	42d0                	lw	a2,4(a3)
   11a02:	9a71                	andi	a2,a2,-4
   11a04:	fec7ebe3          	bltu	a5,a2,119fa <_free_r+0xf2>
   11a08:	46c8                	lw	a0,12(a3)
   11a0a:	c748                	sw	a0,12(a4)
   11a0c:	c714                	sw	a3,8(a4)
   11a0e:	4422                	lw	s0,8(sp)
   11a10:	c518                	sw	a4,8(a0)
   11a12:	40b2                	lw	ra,12(sp)
   11a14:	8526                	mv	a0,s1
   11a16:	4492                	lw	s1,4(sp)
   11a18:	c6d8                	sw	a4,12(a3)
   11a1a:	0141                	addi	sp,sp,16
   11a1c:	d5cff06f          	j	10f78 <__malloc_unlock>
   11a20:	8082                	ret
   11a22:	6571                	lui	a0,0x1c
   11a24:	97b6                	add	a5,a5,a3
   11a26:	28050513          	addi	a0,a0,640 # 1c280 <__malloc_av_+0x8>
   11a2a:	4614                	lw	a3,8(a2)
   11a2c:	08a68b63          	beq	a3,a0,11ac2 <_free_r+0x1ba>
   11a30:	00c62803          	lw	a6,12(a2) # 200c <exit-0xe088>
   11a34:	0017e513          	ori	a0,a5,1
   11a38:	00f70633          	add	a2,a4,a5
   11a3c:	0106a623          	sw	a6,12(a3)
   11a40:	00d82423          	sw	a3,8(a6)
   11a44:	c348                	sw	a0,4(a4)
   11a46:	c21c                	sw	a5,0(a2)
   11a48:	bf25                	j	11980 <_free_r+0x78>
   11a4a:	0c081d63          	bnez	a6,11b24 <_free_r+0x21c>
   11a4e:	460c                	lw	a1,8(a2)
   11a50:	4650                	lw	a2,12(a2)
   11a52:	96be                	add	a3,a3,a5
   11a54:	0016e793          	ori	a5,a3,1
   11a58:	c5d0                	sw	a2,12(a1)
   11a5a:	c60c                	sw	a1,8(a2)
   11a5c:	c35c                	sw	a5,4(a4)
   11a5e:	9736                	add	a4,a4,a3
   11a60:	c314                	sw	a3,0(a4)
   11a62:	b7b1                	j	119ae <_free_r+0xa6>
   11a64:	8905                	andi	a0,a0,1
   11a66:	96be                	add	a3,a3,a5
   11a68:	e909                	bnez	a0,11a7a <_free_r+0x172>
   11a6a:	ff842503          	lw	a0,-8(s0)
   11a6e:	8f09                	sub	a4,a4,a0
   11a70:	475c                	lw	a5,12(a4)
   11a72:	4710                	lw	a2,8(a4)
   11a74:	96aa                	add	a3,a3,a0
   11a76:	c65c                	sw	a5,12(a2)
   11a78:	c790                	sw	a2,8(a5)
   11a7a:	0016e613          	ori	a2,a3,1
   11a7e:	f201a783          	lw	a5,-224(gp) # 1c998 <__malloc_trim_threshold>
   11a82:	c350                	sw	a2,4(a4)
   11a84:	c598                	sw	a4,8(a1)
   11a86:	f2f6e4e3          	bltu	a3,a5,119ae <_free_r+0xa6>
   11a8a:	f301a583          	lw	a1,-208(gp) # 1c9a8 <__malloc_top_pad>
   11a8e:	8526                	mv	a0,s1
   11a90:	3b4d                	jal	11842 <_malloc_trim_r>
   11a92:	bf31                	j	119ae <_free_r+0xa6>
   11a94:	97b6                	add	a5,a5,a3
   11a96:	bf51                	j	11a2a <_free_r+0x122>
   11a98:	4651                	li	a2,20
   11a9a:	00d67e63          	bgeu	a2,a3,11ab6 <_free_r+0x1ae>
   11a9e:	05400613          	li	a2,84
   11aa2:	04d66463          	bltu	a2,a3,11aea <_free_r+0x1e2>
   11aa6:	00c7d693          	srli	a3,a5,0xc
   11aaa:	06f68513          	addi	a0,a3,111
   11aae:	06e68613          	addi	a2,a3,110
   11ab2:	050e                	slli	a0,a0,0x3
   11ab4:	bf2d                	j	119ee <_free_r+0xe6>
   11ab6:	05c68513          	addi	a0,a3,92
   11aba:	05b68613          	addi	a2,a3,91
   11abe:	050e                	slli	a0,a0,0x3
   11ac0:	b73d                	j	119ee <_free_r+0xe6>
   11ac2:	c9d8                	sw	a4,20(a1)
   11ac4:	c998                	sw	a4,16(a1)
   11ac6:	0017e693          	ori	a3,a5,1
   11aca:	c748                	sw	a0,12(a4)
   11acc:	c708                	sw	a0,8(a4)
   11ace:	c354                	sw	a3,4(a4)
   11ad0:	973e                	add	a4,a4,a5
   11ad2:	c31c                	sw	a5,0(a4)
   11ad4:	bde9                	j	119ae <_free_r+0xa6>
   11ad6:	0045a803          	lw	a6,4(a1)
   11ada:	8609                	srai	a2,a2,0x2
   11adc:	4785                	li	a5,1
   11ade:	00c797b3          	sll	a5,a5,a2
   11ae2:	0107e7b3          	or	a5,a5,a6
   11ae6:	c1dc                	sw	a5,4(a1)
   11ae8:	b70d                	j	11a0a <_free_r+0x102>
   11aea:	15400613          	li	a2,340
   11aee:	00d66a63          	bltu	a2,a3,11b02 <_free_r+0x1fa>
   11af2:	00f7d693          	srli	a3,a5,0xf
   11af6:	07868513          	addi	a0,a3,120
   11afa:	07768613          	addi	a2,a3,119
   11afe:	050e                	slli	a0,a0,0x3
   11b00:	b5fd                	j	119ee <_free_r+0xe6>
   11b02:	55400613          	li	a2,1364
   11b06:	00d66a63          	bltu	a2,a3,11b1a <_free_r+0x212>
   11b0a:	0127d693          	srli	a3,a5,0x12
   11b0e:	07d68513          	addi	a0,a3,125
   11b12:	07c68613          	addi	a2,a3,124
   11b16:	050e                	slli	a0,a0,0x3
   11b18:	bdd9                	j	119ee <_free_r+0xe6>
   11b1a:	3f800513          	li	a0,1016
   11b1e:	07e00613          	li	a2,126
   11b22:	b5f1                	j	119ee <_free_r+0xe6>
   11b24:	0017e693          	ori	a3,a5,1
   11b28:	c354                	sw	a3,4(a4)
   11b2a:	c21c                	sw	a5,0(a2)
   11b2c:	b549                	j	119ae <_free_r+0xa6>

00011b2e <_vfprintf_r>:
   11b2e:	7145                	addi	sp,sp,-464
   11b30:	1c112623          	sw	ra,460(sp)
   11b34:	1c812423          	sw	s0,456(sp)
   11b38:	1c912223          	sw	s1,452(sp)
   11b3c:	1b612823          	sw	s6,432(sp)
   11b40:	84ae                	mv	s1,a1
   11b42:	8b32                	mv	s6,a2
   11b44:	ca36                	sw	a3,20(sp)
   11b46:	842a                	mv	s0,a0
   11b48:	c42a                	sw	a0,8(sp)
   11b4a:	694030ef          	jal	151de <_localeconv_r>
   11b4e:	411c                	lw	a5,0(a0)
   11b50:	853e                	mv	a0,a5
   11b52:	d83e                	sw	a5,48(sp)
   11b54:	3e45                	jal	11704 <strlen>
   11b56:	d62a                	sw	a0,44(sp)
   11b58:	c982                	sw	zero,208(sp)
   11b5a:	cb82                	sw	zero,212(sp)
   11b5c:	cd82                	sw	zero,216(sp)
   11b5e:	cf82                	sw	zero,220(sp)
   11b60:	c409                	beqz	s0,11b6a <_vfprintf_r+0x3c>
   11b62:	5858                	lw	a4,52(s0)
   11b64:	e319                	bnez	a4,11b6a <_vfprintf_r+0x3c>
   11b66:	1880106f          	j	12cee <_vfprintf_r+0x11c0>
   11b6a:	00c49703          	lh	a4,12(s1)
   11b6e:	01271693          	slli	a3,a4,0x12
   11b72:	0006cd63          	bltz	a3,11b8c <_vfprintf_r+0x5e>
   11b76:	50f4                	lw	a3,100(s1)
   11b78:	6589                	lui	a1,0x2
   11b7a:	7679                	lui	a2,0xffffe
   11b7c:	8f4d                	or	a4,a4,a1
   11b7e:	167d                	addi	a2,a2,-1 # ffffdfff <__BSS_END__+0xfffe1333>
   11b80:	0742                	slli	a4,a4,0x10
   11b82:	8741                	srai	a4,a4,0x10
   11b84:	8ef1                	and	a3,a3,a2
   11b86:	00e49623          	sh	a4,12(s1)
   11b8a:	d0f4                	sw	a3,100(s1)
   11b8c:	00877693          	andi	a3,a4,8
   11b90:	22068963          	beqz	a3,11dc2 <_vfprintf_r+0x294>
   11b94:	4894                	lw	a3,16(s1)
   11b96:	22068663          	beqz	a3,11dc2 <_vfprintf_r+0x294>
   11b9a:	8b69                	andi	a4,a4,26
   11b9c:	46a9                	li	a3,10
   11b9e:	22d70f63          	beq	a4,a3,11ddc <_vfprintf_r+0x2ae>
   11ba2:	1b312e23          	sw	s3,444(sp)
   11ba6:	1b412c23          	sw	s4,440(sp)
   11baa:	1ba12023          	sw	s10,416(sp)
   11bae:	676d                	lui	a4,0x1b
   11bb0:	1d212023          	sw	s2,448(sp)
   11bb4:	1b512a23          	sw	s5,436(sp)
   11bb8:	1b712623          	sw	s7,428(sp)
   11bbc:	1b812423          	sw	s8,424(sp)
   11bc0:	1b912223          	sw	s9,420(sp)
   11bc4:	19b12e23          	sw	s11,412(sp)
   11bc8:	8d5a                	mv	s10,s6
   11bca:	b7470793          	addi	a5,a4,-1164 # 1ab74 <__clzsi2+0x1da>
   11bce:	000d4703          	lbu	a4,0(s10)
   11bd2:	0ec10993          	addi	s3,sp,236
   11bd6:	6a6d                	lui	s4,0x1b
   11bd8:	c3ce                	sw	s3,196(sp)
   11bda:	c782                	sw	zero,204(sp)
   11bdc:	c582                	sw	zero,200(sp)
   11bde:	d002                	sw	zero,32(sp)
   11be0:	da02                	sw	zero,52(sp)
   11be2:	c082                	sw	zero,64(sp)
   11be4:	de02                	sw	zero,60(sp)
   11be6:	c482                	sw	zero,72(sp)
   11be8:	c282                	sw	zero,68(sp)
   11bea:	c602                	sw	zero,12(sp)
   11bec:	cc3e                	sw	a5,24(sp)
   11bee:	844e                	mv	s0,s3
   11bf0:	d78a0a13          	addi	s4,s4,-648 # 1ad78 <zeroes.0>
   11bf4:	16070f63          	beqz	a4,11d72 <_vfprintf_r+0x244>
   11bf8:	896a                	mv	s2,s10
   11bfa:	02500693          	li	a3,37
   11bfe:	2ed70963          	beq	a4,a3,11ef0 <_vfprintf_r+0x3c2>
   11c02:	00194703          	lbu	a4,1(s2)
   11c06:	0905                	addi	s2,s2,1
   11c08:	fb7d                	bnez	a4,11bfe <_vfprintf_r+0xd0>
   11c0a:	41a90ab3          	sub	s5,s2,s10
   11c0e:	17a90263          	beq	s2,s10,11d72 <_vfprintf_r+0x244>
   11c12:	46be                	lw	a3,204(sp)
   11c14:	472e                	lw	a4,200(sp)
   11c16:	01a42023          	sw	s10,0(s0)
   11c1a:	96d6                	add	a3,a3,s5
   11c1c:	0705                	addi	a4,a4,1
   11c1e:	01542223          	sw	s5,4(s0)
   11c22:	c7b6                	sw	a3,204(sp)
   11c24:	c5ba                	sw	a4,200(sp)
   11c26:	469d                	li	a3,7
   11c28:	0421                	addi	s0,s0,8
   11c2a:	2ce6ca63          	blt	a3,a4,11efe <_vfprintf_r+0x3d0>
   11c2e:	47b2                	lw	a5,12(sp)
   11c30:	00094703          	lbu	a4,0(s2)
   11c34:	97d6                	add	a5,a5,s5
   11c36:	c63e                	sw	a5,12(sp)
   11c38:	12070d63          	beqz	a4,11d72 <_vfprintf_r+0x244>
   11c3c:	00194883          	lbu	a7,1(s2)
   11c40:	0a0103a3          	sb	zero,167(sp)
   11c44:	0905                	addi	s2,s2,1
   11c46:	5afd                	li	s5,-1
   11c48:	4b81                	li	s7,0
   11c4a:	4c81                	li	s9,0
   11c4c:	05a00b13          	li	s6,90
   11c50:	0905                	addi	s2,s2,1
   11c52:	fe088793          	addi	a5,a7,-32
   11c56:	02fb6b63          	bltu	s6,a5,11c8c <_vfprintf_r+0x15e>
   11c5a:	4762                	lw	a4,24(sp)
   11c5c:	078a                	slli	a5,a5,0x2
   11c5e:	97ba                	add	a5,a5,a4
   11c60:	439c                	lw	a5,0(a5)
   11c62:	8782                	jr	a5
   11c64:	4b81                	li	s7,0
   11c66:	fd088793          	addi	a5,a7,-48
   11c6a:	46a5                	li	a3,9
   11c6c:	00094883          	lbu	a7,0(s2)
   11c70:	002b9713          	slli	a4,s7,0x2
   11c74:	9bba                	add	s7,s7,a4
   11c76:	0b86                	slli	s7,s7,0x1
   11c78:	9bbe                	add	s7,s7,a5
   11c7a:	fd088793          	addi	a5,a7,-48
   11c7e:	0905                	addi	s2,s2,1
   11c80:	fef6f6e3          	bgeu	a3,a5,11c6c <_vfprintf_r+0x13e>
   11c84:	fe088793          	addi	a5,a7,-32
   11c88:	fcfb79e3          	bgeu	s6,a5,11c5a <_vfprintf_r+0x12c>
   11c8c:	0e088363          	beqz	a7,11d72 <_vfprintf_r+0x244>
   11c90:	13110623          	sb	a7,300(sp)
   11c94:	0a0103a3          	sb	zero,167(sp)
   11c98:	4d85                	li	s11,1
   11c9a:	4b05                	li	s6,1
   11c9c:	12c10d13          	addi	s10,sp,300
   11ca0:	c802                	sw	zero,16(sp)
   11ca2:	4a81                	li	s5,0
   11ca4:	d402                	sw	zero,40(sp)
   11ca6:	d202                	sw	zero,36(sp)
   11ca8:	ce02                	sw	zero,28(sp)
   11caa:	002cf293          	andi	t0,s9,2
   11cae:	00028363          	beqz	t0,11cb4 <_vfprintf_r+0x186>
   11cb2:	0d89                	addi	s11,s11,2
   11cb4:	084cff93          	andi	t6,s9,132
   11cb8:	463e                	lw	a2,204(sp)
   11cba:	000f9663          	bnez	t6,11cc6 <_vfprintf_r+0x198>
   11cbe:	41bb8733          	sub	a4,s7,s11
   11cc2:	0ce046e3          	bgtz	a4,1258e <_vfprintf_r+0xa60>
   11cc6:	0a714703          	lbu	a4,167(sp)
   11cca:	cf19                	beqz	a4,11ce8 <_vfprintf_r+0x1ba>
   11ccc:	472e                	lw	a4,200(sp)
   11cce:	0a710593          	addi	a1,sp,167
   11cd2:	c00c                	sw	a1,0(s0)
   11cd4:	0605                	addi	a2,a2,1
   11cd6:	4585                	li	a1,1
   11cd8:	0705                	addi	a4,a4,1
   11cda:	c04c                	sw	a1,4(s0)
   11cdc:	c7b2                	sw	a2,204(sp)
   11cde:	c5ba                	sw	a4,200(sp)
   11ce0:	459d                	li	a1,7
   11ce2:	0421                	addi	s0,s0,8
   11ce4:	2ee5c663          	blt	a1,a4,11fd0 <_vfprintf_r+0x4a2>
   11ce8:	00028f63          	beqz	t0,11d06 <_vfprintf_r+0x1d8>
   11cec:	472e                	lw	a4,200(sp)
   11cee:	4589                	li	a1,2
   11cf0:	0609                	addi	a2,a2,2
   11cf2:	0705                	addi	a4,a4,1
   11cf4:	113c                	addi	a5,sp,168
   11cf6:	c04c                	sw	a1,4(s0)
   11cf8:	c01c                	sw	a5,0(s0)
   11cfa:	c7b2                	sw	a2,204(sp)
   11cfc:	c5ba                	sw	a4,200(sp)
   11cfe:	459d                	li	a1,7
   11d00:	0421                	addi	s0,s0,8
   11d02:	12e5c9e3          	blt	a1,a4,12634 <_vfprintf_r+0xb06>
   11d06:	08000713          	li	a4,128
   11d0a:	72ef8d63          	beq	t6,a4,12444 <_vfprintf_r+0x916>
   11d0e:	416a8ab3          	sub	s5,s5,s6
   11d12:	7d504963          	bgtz	s5,124e4 <_vfprintf_r+0x9b6>
   11d16:	100cf713          	andi	a4,s9,256
   11d1a:	60071d63          	bnez	a4,12334 <_vfprintf_r+0x806>
   11d1e:	47ae                	lw	a5,200(sp)
   11d20:	965a                	add	a2,a2,s6
   11d22:	01a42023          	sw	s10,0(s0)
   11d26:	0785                	addi	a5,a5,1
   11d28:	01642223          	sw	s6,4(s0)
   11d2c:	c7b2                	sw	a2,204(sp)
   11d2e:	c5be                	sw	a5,200(sp)
   11d30:	471d                	li	a4,7
   11d32:	36f74463          	blt	a4,a5,1209a <_vfprintf_r+0x56c>
   11d36:	0421                	addi	s0,s0,8
   11d38:	004cfe13          	andi	t3,s9,4
   11d3c:	000e0663          	beqz	t3,11d48 <_vfprintf_r+0x21a>
   11d40:	41bb8ab3          	sub	s5,s7,s11
   11d44:	115046e3          	bgtz	s5,12650 <_vfprintf_r+0xb22>
   11d48:	835e                	mv	t1,s7
   11d4a:	01bbd363          	bge	s7,s11,11d50 <_vfprintf_r+0x222>
   11d4e:	836e                	mv	t1,s11
   11d50:	47b2                	lw	a5,12(sp)
   11d52:	979a                	add	a5,a5,t1
   11d54:	c63e                	sw	a5,12(sp)
   11d56:	00061be3          	bnez	a2,1256c <_vfprintf_r+0xa3e>
   11d5a:	47c2                	lw	a5,16(sp)
   11d5c:	c582                	sw	zero,200(sp)
   11d5e:	c781                	beqz	a5,11d66 <_vfprintf_r+0x238>
   11d60:	45c2                	lw	a1,16(sp)
   11d62:	4522                	lw	a0,8(sp)
   11d64:	3655                	jal	11908 <_free_r>
   11d66:	844e                	mv	s0,s3
   11d68:	8d4a                	mv	s10,s2
   11d6a:	000d4703          	lbu	a4,0(s10)
   11d6e:	e80715e3          	bnez	a4,11bf8 <_vfprintf_r+0xca>
   11d72:	47be                	lw	a5,204(sp)
   11d74:	c399                	beqz	a5,11d7a <_vfprintf_r+0x24c>
   11d76:	3200106f          	j	13096 <_vfprintf_r+0x1568>
   11d7a:	00c4d783          	lhu	a5,12(s1)
   11d7e:	1c012903          	lw	s2,448(sp)
   11d82:	1bc12983          	lw	s3,444(sp)
   11d86:	0407f793          	andi	a5,a5,64
   11d8a:	1b812a03          	lw	s4,440(sp)
   11d8e:	1b412a83          	lw	s5,436(sp)
   11d92:	1ac12b83          	lw	s7,428(sp)
   11d96:	1a812c03          	lw	s8,424(sp)
   11d9a:	1a412c83          	lw	s9,420(sp)
   11d9e:	1a012d03          	lw	s10,416(sp)
   11da2:	19c12d83          	lw	s11,412(sp)
   11da6:	c399                	beqz	a5,11dac <_vfprintf_r+0x27e>
   11da8:	6ae0106f          	j	13456 <_vfprintf_r+0x1928>
   11dac:	1cc12083          	lw	ra,460(sp)
   11db0:	1c812403          	lw	s0,456(sp)
   11db4:	4532                	lw	a0,12(sp)
   11db6:	1c412483          	lw	s1,452(sp)
   11dba:	1b012b03          	lw	s6,432(sp)
   11dbe:	6179                	addi	sp,sp,464
   11dc0:	8082                	ret
   11dc2:	4522                	lw	a0,8(sp)
   11dc4:	85a6                	mv	a1,s1
   11dc6:	092030ef          	jal	14e58 <__swsetup_r>
   11dca:	c119                	beqz	a0,11dd0 <_vfprintf_r+0x2a2>
   11dcc:	68a0106f          	j	13456 <_vfprintf_r+0x1928>
   11dd0:	00c49703          	lh	a4,12(s1)
   11dd4:	46a9                	li	a3,10
   11dd6:	8b69                	andi	a4,a4,26
   11dd8:	dcd715e3          	bne	a4,a3,11ba2 <_vfprintf_r+0x74>
   11ddc:	00e49703          	lh	a4,14(s1)
   11de0:	dc0741e3          	bltz	a4,11ba2 <_vfprintf_r+0x74>
   11de4:	46d2                	lw	a3,20(sp)
   11de6:	4522                	lw	a0,8(sp)
   11de8:	865a                	mv	a2,s6
   11dea:	85a6                	mv	a1,s1
   11dec:	0ed010ef          	jal	136d8 <__sbprintf>
   11df0:	c62a                	sw	a0,12(sp)
   11df2:	bf6d                	j	11dac <_vfprintf_r+0x27e>
   11df4:	4c22                	lw	s8,8(sp)
   11df6:	8562                	mv	a0,s8
   11df8:	3e6030ef          	jal	151de <_localeconv_r>
   11dfc:	415c                	lw	a5,4(a0)
   11dfe:	853e                	mv	a0,a5
   11e00:	c2be                	sw	a5,68(sp)
   11e02:	903ff0ef          	jal	11704 <strlen>
   11e06:	87aa                	mv	a5,a0
   11e08:	8562                	mv	a0,s8
   11e0a:	c4be                	sw	a5,72(sp)
   11e0c:	8c3e                	mv	s8,a5
   11e0e:	3d0030ef          	jal	151de <_localeconv_r>
   11e12:	451c                	lw	a5,8(a0)
   11e14:	de3e                	sw	a5,60(sp)
   11e16:	2a0c10e3          	bnez	s8,128b6 <_vfprintf_r+0xd88>
   11e1a:	00094883          	lbu	a7,0(s2)
   11e1e:	bd0d                	j	11c50 <_vfprintf_r+0x122>
   11e20:	00094883          	lbu	a7,0(s2)
   11e24:	020cec93          	ori	s9,s9,32
   11e28:	b525                	j	11c50 <_vfprintf_r+0x122>
   11e2a:	010cec93          	ori	s9,s9,16
   11e2e:	020cf793          	andi	a5,s9,32
   11e32:	2a078063          	beqz	a5,120d2 <_vfprintf_r+0x5a4>
   11e36:	47d2                	lw	a5,20(sp)
   11e38:	00778c13          	addi	s8,a5,7
   11e3c:	ff8c7c13          	andi	s8,s8,-8
   11e40:	004c2783          	lw	a5,4(s8)
   11e44:	000c2b03          	lw	s6,0(s8)
   11e48:	008c0713          	addi	a4,s8,8
   11e4c:	ca3a                	sw	a4,20(sp)
   11e4e:	8dbe                	mv	s11,a5
   11e50:	2a07c663          	bltz	a5,120fc <_vfprintf_r+0x5ce>
   11e54:	8ee6                	mv	t4,s9
   11e56:	380ac563          	bltz	s5,121e0 <_vfprintf_r+0x6b2>
   11e5a:	01bb67b3          	or	a5,s6,s11
   11e5e:	f7fcfe93          	andi	t4,s9,-129
   11e62:	36079f63          	bnez	a5,121e0 <_vfprintf_r+0x6b2>
   11e66:	380a9263          	bnez	s5,121ea <_vfprintf_r+0x6bc>
   11e6a:	4b01                	li	s6,0
   11e6c:	8cf6                	mv	s9,t4
   11e6e:	19010d13          	addi	s10,sp,400
   11e72:	0a714703          	lbu	a4,167(sp)
   11e76:	8dd6                	mv	s11,s5
   11e78:	016ad363          	bge	s5,s6,11e7e <_vfprintf_r+0x350>
   11e7c:	8dda                	mv	s11,s6
   11e7e:	c802                	sw	zero,16(sp)
   11e80:	d402                	sw	zero,40(sp)
   11e82:	d202                	sw	zero,36(sp)
   11e84:	ce02                	sw	zero,28(sp)
   11e86:	e20702e3          	beqz	a4,11caa <_vfprintf_r+0x17c>
   11e8a:	0d85                	addi	s11,s11,1
   11e8c:	bd39                	j	11caa <_vfprintf_r+0x17c>
   11e8e:	010cec93          	ori	s9,s9,16
   11e92:	020cf793          	andi	a5,s9,32
   11e96:	20078c63          	beqz	a5,120ae <_vfprintf_r+0x580>
   11e9a:	47d2                	lw	a5,20(sp)
   11e9c:	00778c13          	addi	s8,a5,7
   11ea0:	ff8c7c13          	andi	s8,s8,-8
   11ea4:	000c2b03          	lw	s6,0(s8)
   11ea8:	004c2d83          	lw	s11,4(s8)
   11eac:	008c0793          	addi	a5,s8,8
   11eb0:	ca3e                	sw	a5,20(sp)
   11eb2:	bffcfe93          	andi	t4,s9,-1025
   11eb6:	4781                	li	a5,0
   11eb8:	4701                	li	a4,0
   11eba:	0ae103a3          	sb	a4,167(sp)
   11ebe:	240acf63          	bltz	s5,1211c <_vfprintf_r+0x5ee>
   11ec2:	01bb6733          	or	a4,s6,s11
   11ec6:	f7fefc93          	andi	s9,t4,-129
   11eca:	6c071063          	bnez	a4,1258a <_vfprintf_r+0xa5c>
   11ece:	520a9763          	bnez	s5,123fc <_vfprintf_r+0x8ce>
   11ed2:	180790e3          	bnez	a5,12852 <_vfprintf_r+0xd24>
   11ed6:	001efb13          	andi	s6,t4,1
   11eda:	19010d13          	addi	s10,sp,400
   11ede:	f80b0ae3          	beqz	s6,11e72 <_vfprintf_r+0x344>
   11ee2:	03000793          	li	a5,48
   11ee6:	18f107a3          	sb	a5,399(sp)
   11eea:	18f10d13          	addi	s10,sp,399
   11eee:	b751                	j	11e72 <_vfprintf_r+0x344>
   11ef0:	41a90ab3          	sub	s5,s2,s10
   11ef4:	d1a91fe3          	bne	s2,s10,11c12 <_vfprintf_r+0xe4>
   11ef8:	00094703          	lbu	a4,0(s2)
   11efc:	bb35                	j	11c38 <_vfprintf_r+0x10a>
   11efe:	4522                	lw	a0,8(sp)
   11f00:	01d0                	addi	a2,sp,196
   11f02:	85a6                	mv	a1,s1
   11f04:	123010ef          	jal	13826 <__sprint_r>
   11f08:	e60519e3          	bnez	a0,11d7a <_vfprintf_r+0x24c>
   11f0c:	844e                	mv	s0,s3
   11f0e:	b305                	j	11c2e <_vfprintf_r+0x100>
   11f10:	008cf713          	andi	a4,s9,8
   11f14:	180717e3          	bnez	a4,128a2 <_vfprintf_r+0xd74>
   11f18:	47d2                	lw	a5,20(sp)
   11f1a:	0908                	addi	a0,sp,144
   11f1c:	c846                	sw	a7,16(sp)
   11f1e:	00778c13          	addi	s8,a5,7
   11f22:	ff8c7c13          	andi	s8,s8,-8
   11f26:	000c2583          	lw	a1,0(s8)
   11f2a:	004c2603          	lw	a2,4(s8)
   11f2e:	008c0793          	addi	a5,s8,8
   11f32:	ca3e                	sw	a5,20(sp)
   11f34:	0db080ef          	jal	1a80e <__extenddftf2>
   11f38:	45ca                	lw	a1,144(sp)
   11f3a:	465a                	lw	a2,148(sp)
   11f3c:	46ea                	lw	a3,152(sp)
   11f3e:	477a                	lw	a4,156(sp)
   11f40:	48c2                	lw	a7,16(sp)
   11f42:	0988                	addi	a0,sp,208
   11f44:	c846                	sw	a7,16(sp)
   11f46:	cfba                	sw	a4,220(sp)
   11f48:	c9ae                	sw	a1,208(sp)
   11f4a:	cbb2                	sw	a2,212(sp)
   11f4c:	cdb6                	sw	a3,216(sp)
   11f4e:	10d030ef          	jal	1585a <_ldcheck>
   11f52:	d72a                	sw	a0,172(sp)
   11f54:	4709                	li	a4,2
   11f56:	48c2                	lw	a7,16(sp)
   11f58:	5ce50be3          	beq	a0,a4,12d2e <_vfprintf_r+0x1200>
   11f5c:	4705                	li	a4,1
   11f5e:	6ae505e3          	beq	a0,a4,12e08 <_vfprintf_r+0x12da>
   11f62:	06100713          	li	a4,97
   11f66:	2ae88ce3          	beq	a7,a4,12a1e <_vfprintf_r+0xef0>
   11f6a:	04100713          	li	a4,65
   11f6e:	05800793          	li	a5,88
   11f72:	2ae888e3          	beq	a7,a4,12a22 <_vfprintf_r+0xef4>
   11f76:	577d                	li	a4,-1
   11f78:	00ea9463          	bne	s5,a4,11f80 <_vfprintf_r+0x452>
   11f7c:	62a0106f          	j	135a6 <_vfprintf_r+0x1a78>
   11f80:	fdf8f713          	andi	a4,a7,-33
   11f84:	04700693          	li	a3,71
   11f88:	c802                	sw	zero,16(sp)
   11f8a:	00d71563          	bne	a4,a3,11f94 <_vfprintf_r+0x466>
   11f8e:	000a9363          	bnez	s5,11f94 <_vfprintf_r+0x466>
   11f92:	4a85                	li	s5,1
   11f94:	4c7e                	lw	s8,220(sp)
   11f96:	100ce793          	ori	a5,s9,256
   11f9a:	c6be                	sw	a5,76(sp)
   11f9c:	dc02                	sw	zero,56(sp)
   11f9e:	4fce                	lw	t6,208(sp)
   11fa0:	4f5e                	lw	t5,212(sp)
   11fa2:	4eee                	lw	t4,216(sp)
   11fa4:	000c5963          	bgez	s8,11fb6 <_vfprintf_r+0x488>
   11fa8:	80000737          	lui	a4,0x80000
   11fac:	02d00793          	li	a5,45
   11fb0:	01874c33          	xor	s8,a4,s8
   11fb4:	dc3e                	sw	a5,56(sp)
   11fb6:	fbf88713          	addi	a4,a7,-65
   11fba:	02500693          	li	a3,37
   11fbe:	28e6eee3          	bltu	a3,a4,12a5a <_vfprintf_r+0xf2c>
   11fc2:	66ed                	lui	a3,0x1b
   11fc4:	070a                	slli	a4,a4,0x2
   11fc6:	ce068693          	addi	a3,a3,-800 # 1ace0 <__clzsi2+0x346>
   11fca:	9736                	add	a4,a4,a3
   11fcc:	4318                	lw	a4,0(a4)
   11fce:	8702                	jr	a4
   11fd0:	4522                	lw	a0,8(sp)
   11fd2:	01d0                	addi	a2,sp,196
   11fd4:	85a6                	mv	a1,s1
   11fd6:	c8c6                	sw	a7,80(sp)
   11fd8:	c6fe                	sw	t6,76(sp)
   11fda:	dc16                	sw	t0,56(sp)
   11fdc:	04b010ef          	jal	13826 <__sprint_r>
   11fe0:	58051d63          	bnez	a0,1257a <_vfprintf_r+0xa4c>
   11fe4:	463e                	lw	a2,204(sp)
   11fe6:	48c6                	lw	a7,80(sp)
   11fe8:	4fb6                	lw	t6,76(sp)
   11fea:	52e2                	lw	t0,56(sp)
   11fec:	844e                	mv	s0,s3
   11fee:	b9ed                	j	11ce8 <_vfprintf_r+0x1ba>
   11ff0:	4aae                	lw	s5,200(sp)
   11ff2:	5782                	lw	a5,32(sp)
   11ff4:	4705                	li	a4,1
   11ff6:	01a42023          	sw	s10,0(s0)
   11ffa:	00160c13          	addi	s8,a2,1
   11ffe:	0a85                	addi	s5,s5,1
   12000:	00840b13          	addi	s6,s0,8
   12004:	7af75763          	bge	a4,a5,127b2 <_vfprintf_r+0xc84>
   12008:	4705                	li	a4,1
   1200a:	c058                	sw	a4,4(s0)
   1200c:	c7e2                	sw	s8,204(sp)
   1200e:	c5d6                	sw	s5,200(sp)
   12010:	471d                	li	a4,7
   12012:	395741e3          	blt	a4,s5,12b94 <_vfprintf_r+0x1066>
   12016:	57b2                	lw	a5,44(sp)
   12018:	5742                	lw	a4,48(sp)
   1201a:	0a85                	addi	s5,s5,1
   1201c:	9c3e                	add	s8,s8,a5
   1201e:	00eb2023          	sw	a4,0(s6)
   12022:	00fb2223          	sw	a5,4(s6)
   12026:	c7e2                	sw	s8,204(sp)
   12028:	c5d6                	sw	s5,200(sp)
   1202a:	471d                	li	a4,7
   1202c:	0b21                	addi	s6,s6,8
   1202e:	37574fe3          	blt	a4,s5,12bac <_vfprintf_r+0x107e>
   12032:	474e                	lw	a4,208(sp)
   12034:	5782                	lw	a5,32(sp)
   12036:	010c                	addi	a1,sp,128
   12038:	c93a                	sw	a4,144(sp)
   1203a:	475e                	lw	a4,212(sp)
   1203c:	0908                	addi	a0,sp,144
   1203e:	c102                	sw	zero,128(sp)
   12040:	cb3a                	sw	a4,148(sp)
   12042:	476e                	lw	a4,216(sp)
   12044:	c302                	sw	zero,132(sp)
   12046:	c502                	sw	zero,136(sp)
   12048:	cd3a                	sw	a4,152(sp)
   1204a:	477e                	lw	a4,220(sp)
   1204c:	c702                	sw	zero,140(sp)
   1204e:	fff78413          	addi	s0,a5,-1
   12052:	cf3a                	sw	a4,156(sp)
   12054:	4d6060ef          	jal	1852a <__eqtf2>
   12058:	78050263          	beqz	a0,127dc <_vfprintf_r+0xcae>
   1205c:	001d0793          	addi	a5,s10,1
   12060:	0a85                	addi	s5,s5,1
   12062:	9c22                	add	s8,s8,s0
   12064:	00fb2023          	sw	a5,0(s6)
   12068:	008b2223          	sw	s0,4(s6)
   1206c:	c7e2                	sw	s8,204(sp)
   1206e:	c5d6                	sw	s5,200(sp)
   12070:	479d                	li	a5,7
   12072:	0b21                	addi	s6,s6,8
   12074:	7557c963          	blt	a5,s5,127c6 <_vfprintf_r+0xc98>
   12078:	4686                	lw	a3,64(sp)
   1207a:	1958                	addi	a4,sp,180
   1207c:	001a8793          	addi	a5,s5,1
   12080:	01868633          	add	a2,a3,s8
   12084:	00eb2023          	sw	a4,0(s6)
   12088:	00db2223          	sw	a3,4(s6)
   1208c:	c7b2                	sw	a2,204(sp)
   1208e:	c5be                	sw	a5,200(sp)
   12090:	471d                	li	a4,7
   12092:	008b0413          	addi	s0,s6,8
   12096:	caf751e3          	bge	a4,a5,11d38 <_vfprintf_r+0x20a>
   1209a:	4522                	lw	a0,8(sp)
   1209c:	01d0                	addi	a2,sp,196
   1209e:	85a6                	mv	a1,s1
   120a0:	786010ef          	jal	13826 <__sprint_r>
   120a4:	4c051b63          	bnez	a0,1257a <_vfprintf_r+0xa4c>
   120a8:	463e                	lw	a2,204(sp)
   120aa:	844e                	mv	s0,s3
   120ac:	b171                	j	11d38 <_vfprintf_r+0x20a>
   120ae:	4752                	lw	a4,20(sp)
   120b0:	010cf793          	andi	a5,s9,16
   120b4:	00072b03          	lw	s6,0(a4) # 80000000 <__BSS_END__+0x7ffe3334>
   120b8:	0711                	addi	a4,a4,4
   120ba:	ca3a                	sw	a4,20(sp)
   120bc:	7e079063          	bnez	a5,1289c <_vfprintf_r+0xd6e>
   120c0:	040cf793          	andi	a5,s9,64
   120c4:	7c078863          	beqz	a5,12894 <_vfprintf_r+0xd66>
   120c8:	0b42                	slli	s6,s6,0x10
   120ca:	010b5b13          	srli	s6,s6,0x10
   120ce:	4d81                	li	s11,0
   120d0:	b3cd                	j	11eb2 <_vfprintf_r+0x384>
   120d2:	4752                	lw	a4,20(sp)
   120d4:	010cf793          	andi	a5,s9,16
   120d8:	00072b03          	lw	s6,0(a4)
   120dc:	0711                	addi	a4,a4,4
   120de:	ca3a                	sw	a4,20(sp)
   120e0:	7a079563          	bnez	a5,1288a <_vfprintf_r+0xd5c>
   120e4:	040cf793          	andi	a5,s9,64
   120e8:	78078d63          	beqz	a5,12882 <_vfprintf_r+0xd54>
   120ec:	0b42                	slli	s6,s6,0x10
   120ee:	410b5b13          	srai	s6,s6,0x10
   120f2:	41fb5d93          	srai	s11,s6,0x1f
   120f6:	87ee                	mv	a5,s11
   120f8:	d407dee3          	bgez	a5,11e54 <_vfprintf_r+0x326>
   120fc:	02d00713          	li	a4,45
   12100:	016037b3          	snez	a5,s6
   12104:	41b00db3          	neg	s11,s11
   12108:	0ae103a3          	sb	a4,167(sp)
   1210c:	40fd8db3          	sub	s11,s11,a5
   12110:	41600b33          	neg	s6,s6
   12114:	8ee6                	mv	t4,s9
   12116:	4785                	li	a5,1
   12118:	da0ad5e3          	bgez	s5,11ec2 <_vfprintf_r+0x394>
   1211c:	4705                	li	a4,1
   1211e:	0ce78163          	beq	a5,a4,121e0 <_vfprintf_r+0x6b2>
   12122:	4709                	li	a4,2
   12124:	2ee78563          	beq	a5,a4,1240e <_vfprintf_r+0x8e0>
   12128:	19010d13          	addi	s10,sp,400
   1212c:	01dd9793          	slli	a5,s11,0x1d
   12130:	007b7713          	andi	a4,s6,7
   12134:	003b5b13          	srli	s6,s6,0x3
   12138:	03070713          	addi	a4,a4,48
   1213c:	0167eb33          	or	s6,a5,s6
   12140:	003ddd93          	srli	s11,s11,0x3
   12144:	feed0fa3          	sb	a4,-1(s10)
   12148:	01bb67b3          	or	a5,s6,s11
   1214c:	866a                	mv	a2,s10
   1214e:	1d7d                	addi	s10,s10,-1
   12150:	fff1                	bnez	a5,1212c <_vfprintf_r+0x5fe>
   12152:	001ef693          	andi	a3,t4,1
   12156:	2e068263          	beqz	a3,1243a <_vfprintf_r+0x90c>
   1215a:	03000693          	li	a3,48
   1215e:	2cd70e63          	beq	a4,a3,1243a <_vfprintf_r+0x90c>
   12162:	1679                	addi	a2,a2,-2
   12164:	0b1c                	addi	a5,sp,400
   12166:	fedd0fa3          	sb	a3,-1(s10)
   1216a:	40c78b33          	sub	s6,a5,a2
   1216e:	8cf6                	mv	s9,t4
   12170:	8d32                	mv	s10,a2
   12172:	b301                	j	11e72 <_vfprintf_r+0x344>
   12174:	4752                	lw	a4,20(sp)
   12176:	0a0103a3          	sb	zero,167(sp)
   1217a:	4d85                	li	s11,1
   1217c:	431c                	lw	a5,0(a4)
   1217e:	0711                	addi	a4,a4,4
   12180:	ca3a                	sw	a4,20(sp)
   12182:	12f10623          	sb	a5,300(sp)
   12186:	4b05                	li	s6,1
   12188:	12c10d13          	addi	s10,sp,300
   1218c:	be11                	j	11ca0 <_vfprintf_r+0x172>
   1218e:	47d2                	lw	a5,20(sp)
   12190:	0a0103a3          	sb	zero,167(sp)
   12194:	0007ad03          	lw	s10,0(a5)
   12198:	00478c13          	addi	s8,a5,4
   1219c:	7e0d0a63          	beqz	s10,12990 <_vfprintf_r+0xe62>
   121a0:	420ac4e3          	bltz	s5,12dc8 <_vfprintf_r+0x129a>
   121a4:	8656                	mv	a2,s5
   121a6:	4581                	li	a1,0
   121a8:	856a                	mv	a0,s10
   121aa:	ca46                	sw	a7,20(sp)
   121ac:	68f020ef          	jal	1503a <memchr>
   121b0:	c82a                	sw	a0,16(sp)
   121b2:	48d2                	lw	a7,20(sp)
   121b4:	e119                	bnez	a0,121ba <_vfprintf_r+0x68c>
   121b6:	2580106f          	j	1340e <_vfprintf_r+0x18e0>
   121ba:	47c2                	lw	a5,16(sp)
   121bc:	0a714703          	lbu	a4,167(sp)
   121c0:	ca62                	sw	s8,20(sp)
   121c2:	41a78b33          	sub	s6,a5,s10
   121c6:	fffb4693          	not	a3,s6
   121ca:	86fd                	srai	a3,a3,0x1f
   121cc:	c802                	sw	zero,16(sp)
   121ce:	d402                	sw	zero,40(sp)
   121d0:	d202                	sw	zero,36(sp)
   121d2:	ce02                	sw	zero,28(sp)
   121d4:	00db7db3          	and	s11,s6,a3
   121d8:	4a81                	li	s5,0
   121da:	ca0718e3          	bnez	a4,11e8a <_vfprintf_r+0x35c>
   121de:	b4f1                	j	11caa <_vfprintf_r+0x17c>
   121e0:	1e0d98e3          	bnez	s11,12bd0 <_vfprintf_r+0x10a2>
   121e4:	47a5                	li	a5,9
   121e6:	1f67e5e3          	bltu	a5,s6,12bd0 <_vfprintf_r+0x10a2>
   121ea:	030b0b13          	addi	s6,s6,48
   121ee:	196107a3          	sb	s6,399(sp)
   121f2:	8cf6                	mv	s9,t4
   121f4:	4b05                	li	s6,1
   121f6:	18f10d13          	addi	s10,sp,399
   121fa:	b9a5                	j	11e72 <_vfprintf_r+0x344>
   121fc:	47d2                	lw	a5,20(sp)
   121fe:	0007ab83          	lw	s7,0(a5)
   12202:	0791                	addi	a5,a5,4
   12204:	660bd163          	bgez	s7,12866 <_vfprintf_r+0xd38>
   12208:	41700bb3          	neg	s7,s7
   1220c:	ca3e                	sw	a5,20(sp)
   1220e:	00094883          	lbu	a7,0(s2)
   12212:	004cec93          	ori	s9,s9,4
   12216:	bc2d                	j	11c50 <_vfprintf_r+0x122>
   12218:	010cee93          	ori	t4,s9,16
   1221c:	020ef793          	andi	a5,t4,32
   12220:	60078763          	beqz	a5,1282e <_vfprintf_r+0xd00>
   12224:	47d2                	lw	a5,20(sp)
   12226:	00778c13          	addi	s8,a5,7
   1222a:	ff8c7c13          	andi	s8,s8,-8
   1222e:	008c0793          	addi	a5,s8,8
   12232:	ca3e                	sw	a5,20(sp)
   12234:	000c2b03          	lw	s6,0(s8)
   12238:	004c2d83          	lw	s11,4(s8)
   1223c:	4785                	li	a5,1
   1223e:	b9ad                	j	11eb8 <_vfprintf_r+0x38a>
   12240:	02b00793          	li	a5,43
   12244:	00094883          	lbu	a7,0(s2)
   12248:	0af103a3          	sb	a5,167(sp)
   1224c:	b411                	j	11c50 <_vfprintf_r+0x122>
   1224e:	4752                	lw	a4,20(sp)
   12250:	67a1                	lui	a5,0x8
   12252:	83078793          	addi	a5,a5,-2000 # 7830 <exit-0x8864>
   12256:	0af11423          	sh	a5,168(sp)
   1225a:	00470793          	addi	a5,a4,4
   1225e:	ca3e                	sw	a5,20(sp)
   12260:	67ed                	lui	a5,0x1b
   12262:	a8478793          	addi	a5,a5,-1404 # 1aa84 <__clzsi2+0xea>
   12266:	da3e                	sw	a5,52(sp)
   12268:	00072b03          	lw	s6,0(a4)
   1226c:	4d81                	li	s11,0
   1226e:	002cee93          	ori	t4,s9,2
   12272:	4789                	li	a5,2
   12274:	07800893          	li	a7,120
   12278:	b181                	j	11eb8 <_vfprintf_r+0x38a>
   1227a:	020cf793          	andi	a5,s9,32
   1227e:	64078963          	beqz	a5,128d0 <_vfprintf_r+0xda2>
   12282:	47d2                	lw	a5,20(sp)
   12284:	46b2                	lw	a3,12(sp)
   12286:	439c                	lw	a5,0(a5)
   12288:	41f6d713          	srai	a4,a3,0x1f
   1228c:	c394                	sw	a3,0(a5)
   1228e:	c3d8                	sw	a4,4(a5)
   12290:	47d2                	lw	a5,20(sp)
   12292:	8d4a                	mv	s10,s2
   12294:	0791                	addi	a5,a5,4
   12296:	ca3e                	sw	a5,20(sp)
   12298:	bcc9                	j	11d6a <_vfprintf_r+0x23c>
   1229a:	00094883          	lbu	a7,0(s2)
   1229e:	06c00793          	li	a5,108
   122a2:	6ef88063          	beq	a7,a5,12982 <_vfprintf_r+0xe54>
   122a6:	010cec93          	ori	s9,s9,16
   122aa:	b25d                	j	11c50 <_vfprintf_r+0x122>
   122ac:	00094883          	lbu	a7,0(s2)
   122b0:	06800793          	li	a5,104
   122b4:	6cf88063          	beq	a7,a5,12974 <_vfprintf_r+0xe46>
   122b8:	040cec93          	ori	s9,s9,64
   122bc:	ba51                	j	11c50 <_vfprintf_r+0x122>
   122be:	00094883          	lbu	a7,0(s2)
   122c2:	008cec93          	ori	s9,s9,8
   122c6:	b269                	j	11c50 <_vfprintf_r+0x122>
   122c8:	00094883          	lbu	a7,0(s2)
   122cc:	001cec93          	ori	s9,s9,1
   122d0:	b241                	j	11c50 <_vfprintf_r+0x122>
   122d2:	0a714783          	lbu	a5,167(sp)
   122d6:	00094883          	lbu	a7,0(s2)
   122da:	96079be3          	bnez	a5,11c50 <_vfprintf_r+0x122>
   122de:	02000793          	li	a5,32
   122e2:	0af103a3          	sb	a5,167(sp)
   122e6:	b2ad                	j	11c50 <_vfprintf_r+0x122>
   122e8:	00094883          	lbu	a7,0(s2)
   122ec:	080cec93          	ori	s9,s9,128
   122f0:	b285                	j	11c50 <_vfprintf_r+0x122>
   122f2:	00094883          	lbu	a7,0(s2)
   122f6:	02a00793          	li	a5,42
   122fa:	00190693          	addi	a3,s2,1
   122fe:	00f89463          	bne	a7,a5,12306 <_vfprintf_r+0x7d8>
   12302:	38e0106f          	j	13690 <_vfprintf_r+0x1b62>
   12306:	fd088793          	addi	a5,a7,-48
   1230a:	4725                	li	a4,9
   1230c:	4a81                	li	s5,0
   1230e:	4625                	li	a2,9
   12310:	02f76063          	bltu	a4,a5,12330 <_vfprintf_r+0x802>
   12314:	0006c883          	lbu	a7,0(a3)
   12318:	002a9713          	slli	a4,s5,0x2
   1231c:	9aba                	add	s5,s5,a4
   1231e:	0a86                	slli	s5,s5,0x1
   12320:	9abe                	add	s5,s5,a5
   12322:	fd088793          	addi	a5,a7,-48
   12326:	0685                	addi	a3,a3,1
   12328:	fef676e3          	bgeu	a2,a5,12314 <_vfprintf_r+0x7e6>
   1232c:	5c0ac863          	bltz	s5,128fc <_vfprintf_r+0xdce>
   12330:	8936                	mv	s2,a3
   12332:	b205                	j	11c52 <_vfprintf_r+0x124>
   12334:	06500713          	li	a4,101
   12338:	cb175ce3          	bge	a4,a7,11ff0 <_vfprintf_r+0x4c2>
   1233c:	474e                	lw	a4,208(sp)
   1233e:	010c                	addi	a1,sp,128
   12340:	0908                	addi	a0,sp,144
   12342:	c93a                	sw	a4,144(sp)
   12344:	475e                	lw	a4,212(sp)
   12346:	dc32                	sw	a2,56(sp)
   12348:	c102                	sw	zero,128(sp)
   1234a:	cb3a                	sw	a4,148(sp)
   1234c:	476e                	lw	a4,216(sp)
   1234e:	c302                	sw	zero,132(sp)
   12350:	c502                	sw	zero,136(sp)
   12352:	cd3a                	sw	a4,152(sp)
   12354:	477e                	lw	a4,220(sp)
   12356:	c702                	sw	zero,140(sp)
   12358:	cf3a                	sw	a4,156(sp)
   1235a:	1d0060ef          	jal	1852a <__eqtf2>
   1235e:	5662                	lw	a2,56(sp)
   12360:	36051363          	bnez	a0,126c6 <_vfprintf_r+0xb98>
   12364:	47ae                	lw	a5,200(sp)
   12366:	676d                	lui	a4,0x1b
   12368:	ab470713          	addi	a4,a4,-1356 # 1aab4 <__clzsi2+0x11a>
   1236c:	c018                	sw	a4,0(s0)
   1236e:	0605                	addi	a2,a2,1
   12370:	4705                	li	a4,1
   12372:	0785                	addi	a5,a5,1
   12374:	c058                	sw	a4,4(s0)
   12376:	c7b2                	sw	a2,204(sp)
   12378:	c5be                	sw	a5,200(sp)
   1237a:	471d                	li	a4,7
   1237c:	0421                	addi	s0,s0,8
   1237e:	16f74de3          	blt	a4,a5,12cf8 <_vfprintf_r+0x11ca>
   12382:	57ba                	lw	a5,172(sp)
   12384:	5702                	lw	a4,32(sp)
   12386:	4ce7db63          	bge	a5,a4,1285c <_vfprintf_r+0xd2e>
   1238a:	57c2                	lw	a5,48(sp)
   1238c:	5732                	lw	a4,44(sp)
   1238e:	0421                	addi	s0,s0,8
   12390:	fef42c23          	sw	a5,-8(s0)
   12394:	47ae                	lw	a5,200(sp)
   12396:	963a                	add	a2,a2,a4
   12398:	fee42e23          	sw	a4,-4(s0)
   1239c:	0785                	addi	a5,a5,1
   1239e:	c7b2                	sw	a2,204(sp)
   123a0:	c5be                	sw	a5,200(sp)
   123a2:	471d                	li	a4,7
   123a4:	5af74e63          	blt	a4,a5,12960 <_vfprintf_r+0xe32>
   123a8:	5782                	lw	a5,32(sp)
   123aa:	fff78a93          	addi	s5,a5,-1
   123ae:	995055e3          	blez	s5,11d38 <_vfprintf_r+0x20a>
   123b2:	686d                	lui	a6,0x1b
   123b4:	d7880813          	addi	a6,a6,-648 # 1ad78 <zeroes.0>
   123b8:	4741                	li	a4,16
   123ba:	47ae                	lw	a5,200(sp)
   123bc:	4b41                	li	s6,16
   123be:	4c1d                	li	s8,7
   123c0:	8d42                	mv	s10,a6
   123c2:	01574763          	blt	a4,s5,123d0 <_vfprintf_r+0x8a2>
   123c6:	14b0006f          	j	12d10 <_vfprintf_r+0x11e2>
   123ca:	1ac1                	addi	s5,s5,-16
   123cc:	155b51e3          	bge	s6,s5,12d0e <_vfprintf_r+0x11e0>
   123d0:	0641                	addi	a2,a2,16
   123d2:	0785                	addi	a5,a5,1
   123d4:	01a42023          	sw	s10,0(s0)
   123d8:	01642223          	sw	s6,4(s0)
   123dc:	c7b2                	sw	a2,204(sp)
   123de:	c5be                	sw	a5,200(sp)
   123e0:	0421                	addi	s0,s0,8
   123e2:	fefc54e3          	bge	s8,a5,123ca <_vfprintf_r+0x89c>
   123e6:	4522                	lw	a0,8(sp)
   123e8:	01d0                	addi	a2,sp,196
   123ea:	85a6                	mv	a1,s1
   123ec:	43a010ef          	jal	13826 <__sprint_r>
   123f0:	18051563          	bnez	a0,1257a <_vfprintf_r+0xa4c>
   123f4:	463e                	lw	a2,204(sp)
   123f6:	47ae                	lw	a5,200(sp)
   123f8:	844e                	mv	s0,s3
   123fa:	bfc1                	j	123ca <_vfprintf_r+0x89c>
   123fc:	4705                	li	a4,1
   123fe:	00e79463          	bne	a5,a4,12406 <_vfprintf_r+0x8d8>
   12402:	1420106f          	j	13544 <_vfprintf_r+0x1a16>
   12406:	4709                	li	a4,2
   12408:	8ee6                	mv	t4,s9
   1240a:	d0e79fe3          	bne	a5,a4,12128 <_vfprintf_r+0x5fa>
   1240e:	56d2                	lw	a3,52(sp)
   12410:	19010d13          	addi	s10,sp,400
   12414:	00fb7793          	andi	a5,s6,15
   12418:	97b6                	add	a5,a5,a3
   1241a:	0007c703          	lbu	a4,0(a5)
   1241e:	004b5b13          	srli	s6,s6,0x4
   12422:	01cd9793          	slli	a5,s11,0x1c
   12426:	0167eb33          	or	s6,a5,s6
   1242a:	004ddd93          	srli	s11,s11,0x4
   1242e:	feed0fa3          	sb	a4,-1(s10)
   12432:	01bb67b3          	or	a5,s6,s11
   12436:	1d7d                	addi	s10,s10,-1
   12438:	fff1                	bnez	a5,12414 <_vfprintf_r+0x8e6>
   1243a:	0b1c                	addi	a5,sp,400
   1243c:	41a78b33          	sub	s6,a5,s10
   12440:	8cf6                	mv	s9,t4
   12442:	bc05                	j	11e72 <_vfprintf_r+0x344>
   12444:	41bb8c33          	sub	s8,s7,s11
   12448:	8d8053e3          	blez	s8,11d0e <_vfprintf_r+0x1e0>
   1244c:	686d                	lui	a6,0x1b
   1244e:	4541                	li	a0,16
   12450:	45ae                	lw	a1,200(sp)
   12452:	d7880813          	addi	a6,a6,-648 # 1ad78 <zeroes.0>
   12456:	05855f63          	bge	a0,s8,124b4 <_vfprintf_r+0x986>
   1245a:	dc4a                	sw	s2,56(sp)
   1245c:	87a2                	mv	a5,s0
   1245e:	4ec1                	li	t4,16
   12460:	8462                	mv	s0,s8
   12462:	4f9d                	li	t6,7
   12464:	8c5a                	mv	s8,s6
   12466:	8942                	mv	s2,a6
   12468:	8b56                	mv	s6,s5
   1246a:	8ac6                	mv	s5,a7
   1246c:	a021                	j	12474 <_vfprintf_r+0x946>
   1246e:	1441                	addi	s0,s0,-16
   12470:	028edb63          	bge	t4,s0,124a6 <_vfprintf_r+0x978>
   12474:	0641                	addi	a2,a2,16
   12476:	0585                	addi	a1,a1,1 # 2001 <exit-0xe093>
   12478:	0127a023          	sw	s2,0(a5)
   1247c:	01d7a223          	sw	t4,4(a5)
   12480:	c7b2                	sw	a2,204(sp)
   12482:	c5ae                	sw	a1,200(sp)
   12484:	07a1                	addi	a5,a5,8
   12486:	febfd4e3          	bge	t6,a1,1246e <_vfprintf_r+0x940>
   1248a:	4522                	lw	a0,8(sp)
   1248c:	01d0                	addi	a2,sp,196
   1248e:	85a6                	mv	a1,s1
   12490:	396010ef          	jal	13826 <__sprint_r>
   12494:	e17d                	bnez	a0,1257a <_vfprintf_r+0xa4c>
   12496:	4ec1                	li	t4,16
   12498:	1441                	addi	s0,s0,-16
   1249a:	463e                	lw	a2,204(sp)
   1249c:	45ae                	lw	a1,200(sp)
   1249e:	87ce                	mv	a5,s3
   124a0:	4f9d                	li	t6,7
   124a2:	fc8ec9e3          	blt	t4,s0,12474 <_vfprintf_r+0x946>
   124a6:	884a                	mv	a6,s2
   124a8:	5962                	lw	s2,56(sp)
   124aa:	88d6                	mv	a7,s5
   124ac:	8ada                	mv	s5,s6
   124ae:	8b62                	mv	s6,s8
   124b0:	8c22                	mv	s8,s0
   124b2:	843e                	mv	s0,a5
   124b4:	9662                	add	a2,a2,s8
   124b6:	0585                	addi	a1,a1,1
   124b8:	01042023          	sw	a6,0(s0)
   124bc:	01842223          	sw	s8,4(s0)
   124c0:	c7b2                	sw	a2,204(sp)
   124c2:	c5ae                	sw	a1,200(sp)
   124c4:	471d                	li	a4,7
   124c6:	0421                	addi	s0,s0,8
   124c8:	84b753e3          	bge	a4,a1,11d0e <_vfprintf_r+0x1e0>
   124cc:	4522                	lw	a0,8(sp)
   124ce:	01d0                	addi	a2,sp,196
   124d0:	85a6                	mv	a1,s1
   124d2:	dc46                	sw	a7,56(sp)
   124d4:	352010ef          	jal	13826 <__sprint_r>
   124d8:	e14d                	bnez	a0,1257a <_vfprintf_r+0xa4c>
   124da:	463e                	lw	a2,204(sp)
   124dc:	58e2                	lw	a7,56(sp)
   124de:	844e                	mv	s0,s3
   124e0:	82fff06f          	j	11d0e <_vfprintf_r+0x1e0>
   124e4:	686d                	lui	a6,0x1b
   124e6:	4741                	li	a4,16
   124e8:	45ae                	lw	a1,200(sp)
   124ea:	d7880813          	addi	a6,a6,-648 # 1ad78 <zeroes.0>
   124ee:	05575763          	bge	a4,s5,1253c <_vfprintf_r+0xa0e>
   124f2:	87a2                	mv	a5,s0
   124f4:	4741                	li	a4,16
   124f6:	8456                	mv	s0,s5
   124f8:	4c1d                	li	s8,7
   124fa:	dc46                	sw	a7,56(sp)
   124fc:	8ad2                	mv	s5,s4
   124fe:	a021                	j	12506 <_vfprintf_r+0x9d8>
   12500:	1441                	addi	s0,s0,-16
   12502:	02875963          	bge	a4,s0,12534 <_vfprintf_r+0xa06>
   12506:	0641                	addi	a2,a2,16
   12508:	0585                	addi	a1,a1,1
   1250a:	0147a023          	sw	s4,0(a5)
   1250e:	c3d8                	sw	a4,4(a5)
   12510:	c7b2                	sw	a2,204(sp)
   12512:	c5ae                	sw	a1,200(sp)
   12514:	07a1                	addi	a5,a5,8
   12516:	febc55e3          	bge	s8,a1,12500 <_vfprintf_r+0x9d2>
   1251a:	4522                	lw	a0,8(sp)
   1251c:	01d0                	addi	a2,sp,196
   1251e:	85a6                	mv	a1,s1
   12520:	306010ef          	jal	13826 <__sprint_r>
   12524:	e939                	bnez	a0,1257a <_vfprintf_r+0xa4c>
   12526:	4741                	li	a4,16
   12528:	1441                	addi	s0,s0,-16
   1252a:	463e                	lw	a2,204(sp)
   1252c:	45ae                	lw	a1,200(sp)
   1252e:	87ce                	mv	a5,s3
   12530:	fc874be3          	blt	a4,s0,12506 <_vfprintf_r+0x9d8>
   12534:	58e2                	lw	a7,56(sp)
   12536:	8856                	mv	a6,s5
   12538:	8aa2                	mv	s5,s0
   1253a:	843e                	mv	s0,a5
   1253c:	9656                	add	a2,a2,s5
   1253e:	0585                	addi	a1,a1,1
   12540:	01042023          	sw	a6,0(s0)
   12544:	01542223          	sw	s5,4(s0)
   12548:	c7b2                	sw	a2,204(sp)
   1254a:	c5ae                	sw	a1,200(sp)
   1254c:	471d                	li	a4,7
   1254e:	0421                	addi	s0,s0,8
   12550:	fcb75363          	bge	a4,a1,11d16 <_vfprintf_r+0x1e8>
   12554:	4522                	lw	a0,8(sp)
   12556:	01d0                	addi	a2,sp,196
   12558:	85a6                	mv	a1,s1
   1255a:	dc46                	sw	a7,56(sp)
   1255c:	2ca010ef          	jal	13826 <__sprint_r>
   12560:	ed09                	bnez	a0,1257a <_vfprintf_r+0xa4c>
   12562:	463e                	lw	a2,204(sp)
   12564:	58e2                	lw	a7,56(sp)
   12566:	844e                	mv	s0,s3
   12568:	faeff06f          	j	11d16 <_vfprintf_r+0x1e8>
   1256c:	4522                	lw	a0,8(sp)
   1256e:	01d0                	addi	a2,sp,196
   12570:	85a6                	mv	a1,s1
   12572:	2b4010ef          	jal	13826 <__sprint_r>
   12576:	fe050263          	beqz	a0,11d5a <_vfprintf_r+0x22c>
   1257a:	45c2                	lw	a1,16(sp)
   1257c:	fe058f63          	beqz	a1,11d7a <_vfprintf_r+0x24c>
   12580:	4522                	lw	a0,8(sp)
   12582:	b86ff0ef          	jal	11908 <_free_r>
   12586:	ff4ff06f          	j	11d7a <_vfprintf_r+0x24c>
   1258a:	8ee6                	mv	t4,s9
   1258c:	be41                	j	1211c <_vfprintf_r+0x5ee>
   1258e:	686d                	lui	a6,0x1b
   12590:	4541                	li	a0,16
   12592:	45ae                	lw	a1,200(sp)
   12594:	d8880c13          	addi	s8,a6,-632 # 1ad88 <blanks.1>
   12598:	06e55363          	bge	a0,a4,125fe <_vfprintf_r+0xad0>
   1259c:	c8ca                	sw	s2,80(sp)
   1259e:	87a2                	mv	a5,s0
   125a0:	8962                	mv	s2,s8
   125a2:	4ec1                	li	t4,16
   125a4:	8c5a                	mv	s8,s6
   125a6:	439d                	li	t2,7
   125a8:	8b56                	mv	s6,s5
   125aa:	dc16                	sw	t0,56(sp)
   125ac:	c6fe                	sw	t6,76(sp)
   125ae:	843a                	mv	s0,a4
   125b0:	8ac6                	mv	s5,a7
   125b2:	a021                	j	125ba <_vfprintf_r+0xa8c>
   125b4:	1441                	addi	s0,s0,-16
   125b6:	028edb63          	bge	t4,s0,125ec <_vfprintf_r+0xabe>
   125ba:	0641                	addi	a2,a2,16
   125bc:	0585                	addi	a1,a1,1
   125be:	0127a023          	sw	s2,0(a5)
   125c2:	01d7a223          	sw	t4,4(a5)
   125c6:	c7b2                	sw	a2,204(sp)
   125c8:	c5ae                	sw	a1,200(sp)
   125ca:	07a1                	addi	a5,a5,8
   125cc:	feb3d4e3          	bge	t2,a1,125b4 <_vfprintf_r+0xa86>
   125d0:	4522                	lw	a0,8(sp)
   125d2:	01d0                	addi	a2,sp,196
   125d4:	85a6                	mv	a1,s1
   125d6:	250010ef          	jal	13826 <__sprint_r>
   125da:	f145                	bnez	a0,1257a <_vfprintf_r+0xa4c>
   125dc:	4ec1                	li	t4,16
   125de:	1441                	addi	s0,s0,-16
   125e0:	463e                	lw	a2,204(sp)
   125e2:	45ae                	lw	a1,200(sp)
   125e4:	87ce                	mv	a5,s3
   125e6:	439d                	li	t2,7
   125e8:	fc8ec9e3          	blt	t4,s0,125ba <_vfprintf_r+0xa8c>
   125ec:	88d6                	mv	a7,s5
   125ee:	52e2                	lw	t0,56(sp)
   125f0:	8ada                	mv	s5,s6
   125f2:	4fb6                	lw	t6,76(sp)
   125f4:	8b62                	mv	s6,s8
   125f6:	8c4a                	mv	s8,s2
   125f8:	4946                	lw	s2,80(sp)
   125fa:	8722                	mv	a4,s0
   125fc:	843e                	mv	s0,a5
   125fe:	963a                	add	a2,a2,a4
   12600:	0585                	addi	a1,a1,1
   12602:	c058                	sw	a4,4(s0)
   12604:	01842023          	sw	s8,0(s0)
   12608:	c7b2                	sw	a2,204(sp)
   1260a:	c5ae                	sw	a1,200(sp)
   1260c:	471d                	li	a4,7
   1260e:	0421                	addi	s0,s0,8
   12610:	eab75b63          	bge	a4,a1,11cc6 <_vfprintf_r+0x198>
   12614:	4522                	lw	a0,8(sp)
   12616:	01d0                	addi	a2,sp,196
   12618:	85a6                	mv	a1,s1
   1261a:	c8c6                	sw	a7,80(sp)
   1261c:	c6fe                	sw	t6,76(sp)
   1261e:	dc16                	sw	t0,56(sp)
   12620:	206010ef          	jal	13826 <__sprint_r>
   12624:	f939                	bnez	a0,1257a <_vfprintf_r+0xa4c>
   12626:	463e                	lw	a2,204(sp)
   12628:	48c6                	lw	a7,80(sp)
   1262a:	4fb6                	lw	t6,76(sp)
   1262c:	52e2                	lw	t0,56(sp)
   1262e:	844e                	mv	s0,s3
   12630:	e96ff06f          	j	11cc6 <_vfprintf_r+0x198>
   12634:	4522                	lw	a0,8(sp)
   12636:	01d0                	addi	a2,sp,196
   12638:	85a6                	mv	a1,s1
   1263a:	c6c6                	sw	a7,76(sp)
   1263c:	dc7e                	sw	t6,56(sp)
   1263e:	1e8010ef          	jal	13826 <__sprint_r>
   12642:	fd05                	bnez	a0,1257a <_vfprintf_r+0xa4c>
   12644:	463e                	lw	a2,204(sp)
   12646:	48b6                	lw	a7,76(sp)
   12648:	5fe2                	lw	t6,56(sp)
   1264a:	844e                	mv	s0,s3
   1264c:	ebaff06f          	j	11d06 <_vfprintf_r+0x1d8>
   12650:	686d                	lui	a6,0x1b
   12652:	4741                	li	a4,16
   12654:	47ae                	lw	a5,200(sp)
   12656:	d8880c13          	addi	s8,a6,-632 # 1ad88 <blanks.1>
   1265a:	05575163          	bge	a4,s5,1269c <_vfprintf_r+0xb6e>
   1265e:	4d22                	lw	s10,8(sp)
   12660:	4b41                	li	s6,16
   12662:	4c9d                	li	s9,7
   12664:	a021                	j	1266c <_vfprintf_r+0xb3e>
   12666:	1ac1                	addi	s5,s5,-16
   12668:	035b5a63          	bge	s6,s5,1269c <_vfprintf_r+0xb6e>
   1266c:	0641                	addi	a2,a2,16
   1266e:	0785                	addi	a5,a5,1
   12670:	01842023          	sw	s8,0(s0)
   12674:	01642223          	sw	s6,4(s0)
   12678:	c7b2                	sw	a2,204(sp)
   1267a:	c5be                	sw	a5,200(sp)
   1267c:	0421                	addi	s0,s0,8
   1267e:	fefcd4e3          	bge	s9,a5,12666 <_vfprintf_r+0xb38>
   12682:	01d0                	addi	a2,sp,196
   12684:	85a6                	mv	a1,s1
   12686:	856a                	mv	a0,s10
   12688:	19e010ef          	jal	13826 <__sprint_r>
   1268c:	ee0517e3          	bnez	a0,1257a <_vfprintf_r+0xa4c>
   12690:	1ac1                	addi	s5,s5,-16
   12692:	463e                	lw	a2,204(sp)
   12694:	47ae                	lw	a5,200(sp)
   12696:	844e                	mv	s0,s3
   12698:	fd5b4ae3          	blt	s6,s5,1266c <_vfprintf_r+0xb3e>
   1269c:	9656                	add	a2,a2,s5
   1269e:	0785                	addi	a5,a5,1
   126a0:	01842023          	sw	s8,0(s0)
   126a4:	01542223          	sw	s5,4(s0)
   126a8:	c7b2                	sw	a2,204(sp)
   126aa:	c5be                	sw	a5,200(sp)
   126ac:	471d                	li	a4,7
   126ae:	e8f75d63          	bge	a4,a5,11d48 <_vfprintf_r+0x21a>
   126b2:	4522                	lw	a0,8(sp)
   126b4:	01d0                	addi	a2,sp,196
   126b6:	85a6                	mv	a1,s1
   126b8:	16e010ef          	jal	13826 <__sprint_r>
   126bc:	ea051fe3          	bnez	a0,1257a <_vfprintf_r+0xa4c>
   126c0:	463e                	lw	a2,204(sp)
   126c2:	e86ff06f          	j	11d48 <_vfprintf_r+0x21a>
   126c6:	553a                	lw	a0,172(sp)
   126c8:	5ca05e63          	blez	a0,12ca4 <_vfprintf_r+0x1176>
   126cc:	47f2                	lw	a5,28(sp)
   126ce:	5702                	lw	a4,32(sp)
   126d0:	8abe                	mv	s5,a5
   126d2:	22f74163          	blt	a4,a5,128f4 <_vfprintf_r+0xdc6>
   126d6:	01505f63          	blez	s5,126f4 <_vfprintf_r+0xbc6>
   126da:	472e                	lw	a4,200(sp)
   126dc:	9656                	add	a2,a2,s5
   126de:	01a42023          	sw	s10,0(s0)
   126e2:	0705                	addi	a4,a4,1
   126e4:	01542223          	sw	s5,4(s0)
   126e8:	c7b2                	sw	a2,204(sp)
   126ea:	c5ba                	sw	a4,200(sp)
   126ec:	459d                	li	a1,7
   126ee:	0421                	addi	s0,s0,8
   126f0:	14e5c7e3          	blt	a1,a4,1303e <_vfprintf_r+0x1510>
   126f4:	fffac713          	not	a4,s5
   126f8:	47f2                	lw	a5,28(sp)
   126fa:	877d                	srai	a4,a4,0x1f
   126fc:	00eafab3          	and	s5,s5,a4
   12700:	41578ab3          	sub	s5,a5,s5
   12704:	2b504163          	bgtz	s5,129a6 <_vfprintf_r+0xe78>
   12708:	47f2                	lw	a5,28(sp)
   1270a:	400cf713          	andi	a4,s9,1024
   1270e:	00fd0c33          	add	s8,s10,a5
   12712:	74071063          	bnez	a4,12e52 <_vfprintf_r+0x1324>
   12716:	5aba                	lw	s5,172(sp)
   12718:	5782                	lw	a5,32(sp)
   1271a:	2cfaca63          	blt	s5,a5,129ee <_vfprintf_r+0xec0>
   1271e:	001cf713          	andi	a4,s9,1
   12722:	2c071663          	bnez	a4,129ee <_vfprintf_r+0xec0>
   12726:	5702                	lw	a4,32(sp)
   12728:	00ed07b3          	add	a5,s10,a4
   1272c:	41570ab3          	sub	s5,a4,s5
   12730:	41878b33          	sub	s6,a5,s8
   12734:	016ad363          	bge	s5,s6,1273a <_vfprintf_r+0xc0c>
   12738:	8b56                	mv	s6,s5
   1273a:	01605f63          	blez	s6,12758 <_vfprintf_r+0xc2a>
   1273e:	47ae                	lw	a5,200(sp)
   12740:	965a                	add	a2,a2,s6
   12742:	01842023          	sw	s8,0(s0)
   12746:	0785                	addi	a5,a5,1
   12748:	01642223          	sw	s6,4(s0)
   1274c:	c7b2                	sw	a2,204(sp)
   1274e:	c5be                	sw	a5,200(sp)
   12750:	471d                	li	a4,7
   12752:	0421                	addi	s0,s0,8
   12754:	4cf74fe3          	blt	a4,a5,13432 <_vfprintf_r+0x1904>
   12758:	fffb4793          	not	a5,s6
   1275c:	87fd                	srai	a5,a5,0x1f
   1275e:	00fb7b33          	and	s6,s6,a5
   12762:	416a8ab3          	sub	s5,s5,s6
   12766:	dd505963          	blez	s5,11d38 <_vfprintf_r+0x20a>
   1276a:	686d                	lui	a6,0x1b
   1276c:	d7880813          	addi	a6,a6,-648 # 1ad78 <zeroes.0>
   12770:	4741                	li	a4,16
   12772:	47ae                	lw	a5,200(sp)
   12774:	4b41                	li	s6,16
   12776:	4c1d                	li	s8,7
   12778:	8d42                	mv	s10,a6
   1277a:	01574663          	blt	a4,s5,12786 <_vfprintf_r+0xc58>
   1277e:	ab49                	j	12d10 <_vfprintf_r+0x11e2>
   12780:	1ac1                	addi	s5,s5,-16
   12782:	595b5663          	bge	s6,s5,12d0e <_vfprintf_r+0x11e0>
   12786:	0641                	addi	a2,a2,16
   12788:	0785                	addi	a5,a5,1
   1278a:	01a42023          	sw	s10,0(s0)
   1278e:	01642223          	sw	s6,4(s0)
   12792:	c7b2                	sw	a2,204(sp)
   12794:	c5be                	sw	a5,200(sp)
   12796:	0421                	addi	s0,s0,8
   12798:	fefc54e3          	bge	s8,a5,12780 <_vfprintf_r+0xc52>
   1279c:	4522                	lw	a0,8(sp)
   1279e:	01d0                	addi	a2,sp,196
   127a0:	85a6                	mv	a1,s1
   127a2:	084010ef          	jal	13826 <__sprint_r>
   127a6:	dc051ae3          	bnez	a0,1257a <_vfprintf_r+0xa4c>
   127aa:	463e                	lw	a2,204(sp)
   127ac:	47ae                	lw	a5,200(sp)
   127ae:	844e                	mv	s0,s3
   127b0:	bfc1                	j	12780 <_vfprintf_r+0xc52>
   127b2:	001cf593          	andi	a1,s9,1
   127b6:	840599e3          	bnez	a1,12008 <_vfprintf_r+0x4da>
   127ba:	c058                	sw	a4,4(s0)
   127bc:	c7e2                	sw	s8,204(sp)
   127be:	c5d6                	sw	s5,200(sp)
   127c0:	479d                	li	a5,7
   127c2:	8b57dbe3          	bge	a5,s5,12078 <_vfprintf_r+0x54a>
   127c6:	4522                	lw	a0,8(sp)
   127c8:	01d0                	addi	a2,sp,196
   127ca:	85a6                	mv	a1,s1
   127cc:	05a010ef          	jal	13826 <__sprint_r>
   127d0:	da0515e3          	bnez	a0,1257a <_vfprintf_r+0xa4c>
   127d4:	4c3e                	lw	s8,204(sp)
   127d6:	4aae                	lw	s5,200(sp)
   127d8:	8b4e                	mv	s6,s3
   127da:	b879                	j	12078 <_vfprintf_r+0x54a>
   127dc:	5702                	lw	a4,32(sp)
   127de:	4785                	li	a5,1
   127e0:	88e7dce3          	bge	a5,a4,12078 <_vfprintf_r+0x54a>
   127e4:	686d                	lui	a6,0x1b
   127e6:	47c5                	li	a5,17
   127e8:	d7880813          	addi	a6,a6,-648 # 1ad78 <zeroes.0>
   127ec:	60e7d863          	bge	a5,a4,12dfc <_vfprintf_r+0x12ce>
   127f0:	ce4a                	sw	s2,28(sp)
   127f2:	47c1                	li	a5,16
   127f4:	4d1d                	li	s10,7
   127f6:	8942                	mv	s2,a6
   127f8:	a021                	j	12800 <_vfprintf_r+0xcd2>
   127fa:	1441                	addi	s0,s0,-16
   127fc:	5e87de63          	bge	a5,s0,12df8 <_vfprintf_r+0x12ca>
   12800:	0c41                	addi	s8,s8,16
   12802:	0a85                	addi	s5,s5,1
   12804:	012b2023          	sw	s2,0(s6)
   12808:	00fb2223          	sw	a5,4(s6)
   1280c:	c7e2                	sw	s8,204(sp)
   1280e:	c5d6                	sw	s5,200(sp)
   12810:	0b21                	addi	s6,s6,8
   12812:	ff5d54e3          	bge	s10,s5,127fa <_vfprintf_r+0xccc>
   12816:	4522                	lw	a0,8(sp)
   12818:	01d0                	addi	a2,sp,196
   1281a:	85a6                	mv	a1,s1
   1281c:	00a010ef          	jal	13826 <__sprint_r>
   12820:	d4051de3          	bnez	a0,1257a <_vfprintf_r+0xa4c>
   12824:	4c3e                	lw	s8,204(sp)
   12826:	4aae                	lw	s5,200(sp)
   12828:	8b4e                	mv	s6,s3
   1282a:	47c1                	li	a5,16
   1282c:	b7f9                	j	127fa <_vfprintf_r+0xccc>
   1282e:	4752                	lw	a4,20(sp)
   12830:	010ef793          	andi	a5,t4,16
   12834:	00072b03          	lw	s6,0(a4)
   12838:	0711                	addi	a4,a4,4
   1283a:	ca3a                	sw	a4,20(sp)
   1283c:	ef9d                	bnez	a5,1287a <_vfprintf_r+0xd4c>
   1283e:	040ef793          	andi	a5,t4,64
   12842:	c79d                	beqz	a5,12870 <_vfprintf_r+0xd42>
   12844:	0b42                	slli	s6,s6,0x10
   12846:	010b5b13          	srli	s6,s6,0x10
   1284a:	4d81                	li	s11,0
   1284c:	4785                	li	a5,1
   1284e:	e6aff06f          	j	11eb8 <_vfprintf_r+0x38a>
   12852:	4b01                	li	s6,0
   12854:	19010d13          	addi	s10,sp,400
   12858:	e1aff06f          	j	11e72 <_vfprintf_r+0x344>
   1285c:	001cf793          	andi	a5,s9,1
   12860:	cc078c63          	beqz	a5,11d38 <_vfprintf_r+0x20a>
   12864:	b61d                	j	1238a <_vfprintf_r+0x85c>
   12866:	00094883          	lbu	a7,0(s2)
   1286a:	ca3e                	sw	a5,20(sp)
   1286c:	be4ff06f          	j	11c50 <_vfprintf_r+0x122>
   12870:	200ef793          	andi	a5,t4,512
   12874:	c399                	beqz	a5,1287a <_vfprintf_r+0xd4c>
   12876:	0ffb7b13          	zext.b	s6,s6
   1287a:	4d81                	li	s11,0
   1287c:	4785                	li	a5,1
   1287e:	e3aff06f          	j	11eb8 <_vfprintf_r+0x38a>
   12882:	200cf793          	andi	a5,s9,512
   12886:	7e079063          	bnez	a5,13066 <_vfprintf_r+0x1538>
   1288a:	41fb5d93          	srai	s11,s6,0x1f
   1288e:	87ee                	mv	a5,s11
   12890:	dc0ff06f          	j	11e50 <_vfprintf_r+0x322>
   12894:	200cf793          	andi	a5,s9,512
   12898:	7e079363          	bnez	a5,1307e <_vfprintf_r+0x1550>
   1289c:	4d81                	li	s11,0
   1289e:	e14ff06f          	j	11eb2 <_vfprintf_r+0x384>
   128a2:	47d2                	lw	a5,20(sp)
   128a4:	4398                	lw	a4,0(a5)
   128a6:	0791                	addi	a5,a5,4
   128a8:	ca3e                	sw	a5,20(sp)
   128aa:	430c                	lw	a1,0(a4)
   128ac:	4350                	lw	a2,4(a4)
   128ae:	4714                	lw	a3,8(a4)
   128b0:	4758                	lw	a4,12(a4)
   128b2:	e90ff06f          	j	11f42 <_vfprintf_r+0x414>
   128b6:	57f2                	lw	a5,60(sp)
   128b8:	00094883          	lbu	a7,0(s2)
   128bc:	b8078a63          	beqz	a5,11c50 <_vfprintf_r+0x122>
   128c0:	0007c783          	lbu	a5,0(a5)
   128c4:	b8078663          	beqz	a5,11c50 <_vfprintf_r+0x122>
   128c8:	400cec93          	ori	s9,s9,1024
   128cc:	b84ff06f          	j	11c50 <_vfprintf_r+0x122>
   128d0:	010cf793          	andi	a5,s9,16
   128d4:	4a079663          	bnez	a5,12d80 <_vfprintf_r+0x1252>
   128d8:	040cf793          	andi	a5,s9,64
   128dc:	76079e63          	bnez	a5,13058 <_vfprintf_r+0x152a>
   128e0:	200cfe13          	andi	t3,s9,512
   128e4:	480e0e63          	beqz	t3,12d80 <_vfprintf_r+0x1252>
   128e8:	47d2                	lw	a5,20(sp)
   128ea:	4732                	lw	a4,12(sp)
   128ec:	439c                	lw	a5,0(a5)
   128ee:	00e78023          	sb	a4,0(a5)
   128f2:	ba79                	j	12290 <_vfprintf_r+0x762>
   128f4:	8aba                	mv	s5,a4
   128f6:	df5042e3          	bgtz	s5,126da <_vfprintf_r+0xbac>
   128fa:	bbed                	j	126f4 <_vfprintf_r+0xbc6>
   128fc:	5afd                	li	s5,-1
   128fe:	8936                	mv	s2,a3
   12900:	b52ff06f          	j	11c52 <_vfprintf_r+0x124>
   12904:	67ed                	lui	a5,0x1b
   12906:	a9878793          	addi	a5,a5,-1384 # 1aa98 <__clzsi2+0xfe>
   1290a:	da3e                	sw	a5,52(sp)
   1290c:	020cf793          	andi	a5,s9,32
   12910:	26078263          	beqz	a5,12b74 <_vfprintf_r+0x1046>
   12914:	47d2                	lw	a5,20(sp)
   12916:	00778c13          	addi	s8,a5,7
   1291a:	ff8c7c13          	andi	s8,s8,-8
   1291e:	000c2b03          	lw	s6,0(s8)
   12922:	004c2d83          	lw	s11,4(s8)
   12926:	008c0793          	addi	a5,s8,8
   1292a:	ca3e                	sw	a5,20(sp)
   1292c:	001cf793          	andi	a5,s9,1
   12930:	cf81                	beqz	a5,12948 <_vfprintf_r+0xe1a>
   12932:	01bb67b3          	or	a5,s6,s11
   12936:	cb89                	beqz	a5,12948 <_vfprintf_r+0xe1a>
   12938:	03000793          	li	a5,48
   1293c:	0af10423          	sb	a5,168(sp)
   12940:	0b1104a3          	sb	a7,169(sp)
   12944:	002cec93          	ori	s9,s9,2
   12948:	bffcfe93          	andi	t4,s9,-1025
   1294c:	4789                	li	a5,2
   1294e:	d6aff06f          	j	11eb8 <_vfprintf_r+0x38a>
   12952:	8ee6                	mv	t4,s9
   12954:	b0e1                	j	1221c <_vfprintf_r+0x6ee>
   12956:	67ed                	lui	a5,0x1b
   12958:	a8478793          	addi	a5,a5,-1404 # 1aa84 <__clzsi2+0xea>
   1295c:	da3e                	sw	a5,52(sp)
   1295e:	b77d                	j	1290c <_vfprintf_r+0xdde>
   12960:	4522                	lw	a0,8(sp)
   12962:	01d0                	addi	a2,sp,196
   12964:	85a6                	mv	a1,s1
   12966:	6c1000ef          	jal	13826 <__sprint_r>
   1296a:	c00518e3          	bnez	a0,1257a <_vfprintf_r+0xa4c>
   1296e:	463e                	lw	a2,204(sp)
   12970:	844e                	mv	s0,s3
   12972:	bc1d                	j	123a8 <_vfprintf_r+0x87a>
   12974:	00194883          	lbu	a7,1(s2)
   12978:	200cec93          	ori	s9,s9,512
   1297c:	0905                	addi	s2,s2,1
   1297e:	ad2ff06f          	j	11c50 <_vfprintf_r+0x122>
   12982:	00194883          	lbu	a7,1(s2)
   12986:	020cec93          	ori	s9,s9,32
   1298a:	0905                	addi	s2,s2,1
   1298c:	ac4ff06f          	j	11c50 <_vfprintf_r+0x122>
   12990:	4799                	li	a5,6
   12992:	8b56                	mv	s6,s5
   12994:	6d57e063          	bltu	a5,s5,13054 <_vfprintf_r+0x1526>
   12998:	67ed                	lui	a5,0x1b
   1299a:	8dda                	mv	s11,s6
   1299c:	ca62                	sw	s8,20(sp)
   1299e:	aac78d13          	addi	s10,a5,-1364 # 1aaac <__clzsi2+0x112>
   129a2:	afeff06f          	j	11ca0 <_vfprintf_r+0x172>
   129a6:	686d                	lui	a6,0x1b
   129a8:	45c1                	li	a1,16
   129aa:	472e                	lw	a4,200(sp)
   129ac:	d7880813          	addi	a6,a6,-648 # 1ad78 <zeroes.0>
   129b0:	4755db63          	bge	a1,s5,12e26 <_vfprintf_r+0x12f8>
   129b4:	87a2                	mv	a5,s0
   129b6:	4c41                	li	s8,16
   129b8:	4b1d                	li	s6,7
   129ba:	8442                	mv	s0,a6
   129bc:	a021                	j	129c4 <_vfprintf_r+0xe96>
   129be:	1ac1                	addi	s5,s5,-16
   129c0:	475c5163          	bge	s8,s5,12e22 <_vfprintf_r+0x12f4>
   129c4:	0641                	addi	a2,a2,16
   129c6:	0705                	addi	a4,a4,1
   129c8:	c380                	sw	s0,0(a5)
   129ca:	0187a223          	sw	s8,4(a5)
   129ce:	c7b2                	sw	a2,204(sp)
   129d0:	c5ba                	sw	a4,200(sp)
   129d2:	07a1                	addi	a5,a5,8
   129d4:	feeb55e3          	bge	s6,a4,129be <_vfprintf_r+0xe90>
   129d8:	4522                	lw	a0,8(sp)
   129da:	01d0                	addi	a2,sp,196
   129dc:	85a6                	mv	a1,s1
   129de:	649000ef          	jal	13826 <__sprint_r>
   129e2:	b8051ce3          	bnez	a0,1257a <_vfprintf_r+0xa4c>
   129e6:	463e                	lw	a2,204(sp)
   129e8:	472e                	lw	a4,200(sp)
   129ea:	87ce                	mv	a5,s3
   129ec:	bfc9                	j	129be <_vfprintf_r+0xe90>
   129ee:	5742                	lw	a4,48(sp)
   129f0:	57b2                	lw	a5,44(sp)
   129f2:	459d                	li	a1,7
   129f4:	c018                	sw	a4,0(s0)
   129f6:	472e                	lw	a4,200(sp)
   129f8:	963e                	add	a2,a2,a5
   129fa:	c05c                	sw	a5,4(s0)
   129fc:	0705                	addi	a4,a4,1
   129fe:	c7b2                	sw	a2,204(sp)
   12a00:	c5ba                	sw	a4,200(sp)
   12a02:	0421                	addi	s0,s0,8
   12a04:	d2e5d1e3          	bge	a1,a4,12726 <_vfprintf_r+0xbf8>
   12a08:	4522                	lw	a0,8(sp)
   12a0a:	01d0                	addi	a2,sp,196
   12a0c:	85a6                	mv	a1,s1
   12a0e:	619000ef          	jal	13826 <__sprint_r>
   12a12:	b60514e3          	bnez	a0,1257a <_vfprintf_r+0xa4c>
   12a16:	5aba                	lw	s5,172(sp)
   12a18:	463e                	lw	a2,204(sp)
   12a1a:	844e                	mv	s0,s3
   12a1c:	b329                	j	12726 <_vfprintf_r+0xbf8>
   12a1e:	07800793          	li	a5,120
   12a22:	03000713          	li	a4,48
   12a26:	0ae10423          	sb	a4,168(sp)
   12a2a:	0af104a3          	sb	a5,169(sp)
   12a2e:	06300713          	li	a4,99
   12a32:	c802                	sw	zero,16(sp)
   12a34:	002cec93          	ori	s9,s9,2
   12a38:	12c10d13          	addi	s10,sp,300
   12a3c:	d5575c63          	bge	a4,s5,11f94 <_vfprintf_r+0x466>
   12a40:	4522                	lw	a0,8(sp)
   12a42:	001a8593          	addi	a1,s5,1
   12a46:	c846                	sw	a7,16(sp)
   12a48:	f8bfd0ef          	jal	109d2 <_malloc_r>
   12a4c:	48c2                	lw	a7,16(sp)
   12a4e:	8d2a                	mv	s10,a0
   12a50:	460504e3          	beqz	a0,136b8 <_vfprintf_r+0x1b8a>
   12a54:	c82a                	sw	a0,16(sp)
   12a56:	d3eff06f          	j	11f94 <_vfprintf_r+0x466>
   12a5a:	4522                	lw	a0,8(sp)
   12a5c:	09010b13          	addi	s6,sp,144
   12a60:	1178                	addi	a4,sp,172
   12a62:	0bc10813          	addi	a6,sp,188
   12a66:	191c                	addi	a5,sp,176
   12a68:	86d6                	mv	a3,s5
   12a6a:	4609                	li	a2,2
   12a6c:	85da                	mv	a1,s6
   12a6e:	d446                	sw	a7,40(sp)
   12a70:	c97e                	sw	t6,144(sp)
   12a72:	d27e                	sw	t6,36(sp)
   12a74:	cb7a                	sw	t5,148(sp)
   12a76:	d07a                	sw	t5,32(sp)
   12a78:	cd76                	sw	t4,152(sp)
   12a7a:	ce76                	sw	t4,28(sp)
   12a7c:	cf62                	sw	s8,156(sp)
   12a7e:	42d020ef          	jal	156aa <_ldtoa_r>
   12a82:	001cf713          	andi	a4,s9,1
   12a86:	4ef2                	lw	t4,28(sp)
   12a88:	5f02                	lw	t5,32(sp)
   12a8a:	5f92                	lw	t6,36(sp)
   12a8c:	58a2                	lw	a7,40(sp)
   12a8e:	8d2a                	mv	s10,a0
   12a90:	62071563          	bnez	a4,130ba <_vfprintf_r+0x158c>
   12a94:	57ba                	lw	a5,172(sp)
   12a96:	ce3e                	sw	a5,28(sp)
   12a98:	57fa                	lw	a5,188(sp)
   12a9a:	8f89                	sub	a5,a5,a0
   12a9c:	d03e                	sw	a5,32(sp)
   12a9e:	47f2                	lw	a5,28(sp)
   12aa0:	5775                	li	a4,-3
   12aa2:	00e7c463          	blt	a5,a4,12aaa <_vfprintf_r+0xf7c>
   12aa6:	0efadde3          	bge	s5,a5,133a0 <_vfprintf_r+0x1872>
   12aaa:	47f2                	lw	a5,28(sp)
   12aac:	18f9                	addi	a7,a7,-2
   12aae:	fff78713          	addi	a4,a5,-1
   12ab2:	d73a                	sw	a4,172(sp)
   12ab4:	0ff8f693          	zext.b	a3,a7
   12ab8:	4601                	li	a2,0
   12aba:	0ad10a23          	sb	a3,180(sp)
   12abe:	02b00693          	li	a3,43
   12ac2:	00075763          	bgez	a4,12ad0 <_vfprintf_r+0xfa2>
   12ac6:	47f2                	lw	a5,28(sp)
   12ac8:	4705                	li	a4,1
   12aca:	02d00693          	li	a3,45
   12ace:	8f1d                	sub	a4,a4,a5
   12ad0:	0ad10aa3          	sb	a3,181(sp)
   12ad4:	46a5                	li	a3,9
   12ad6:	2ae6d3e3          	bge	a3,a4,1357c <_vfprintf_r+0x1a4e>
   12ada:	0c310813          	addi	a6,sp,195
   12ade:	85c2                	mv	a1,a6
   12ae0:	4529                	li	a0,10
   12ae2:	06300f13          	li	t5,99
   12ae6:	02a767b3          	rem	a5,a4,a0
   12aea:	862e                	mv	a2,a1
   12aec:	86ba                	mv	a3,a4
   12aee:	15fd                	addi	a1,a1,-1
   12af0:	03078793          	addi	a5,a5,48
   12af4:	fef60fa3          	sb	a5,-1(a2)
   12af8:	02a74733          	div	a4,a4,a0
   12afc:	fedf45e3          	blt	t5,a3,12ae6 <_vfprintf_r+0xfb8>
   12b00:	03070713          	addi	a4,a4,48
   12b04:	ffe60693          	addi	a3,a2,-2
   12b08:	fee58fa3          	sb	a4,-1(a1)
   12b0c:	3706fee3          	bgeu	a3,a6,13688 <_vfprintf_r+0x1b5a>
   12b10:	0b610713          	addi	a4,sp,182
   12b14:	0006c783          	lbu	a5,0(a3)
   12b18:	0685                	addi	a3,a3,1
   12b1a:	0705                	addi	a4,a4,1
   12b1c:	fef70fa3          	sb	a5,-1(a4)
   12b20:	ff069ae3          	bne	a3,a6,12b14 <_vfprintf_r+0xfe6>
   12b24:	0b1c                	addi	a5,sp,400
   12b26:	40c78733          	sub	a4,a5,a2
   12b2a:	f3770793          	addi	a5,a4,-201
   12b2e:	c0be                	sw	a5,64(sp)
   12b30:	5782                	lw	a5,32(sp)
   12b32:	4686                	lw	a3,64(sp)
   12b34:	4705                	li	a4,1
   12b36:	00d78b33          	add	s6,a5,a3
   12b3a:	26f75ae3          	bge	a4,a5,135ae <_vfprintf_r+0x1a80>
   12b3e:	57b2                	lw	a5,44(sp)
   12b40:	9b3e                	add	s6,s6,a5
   12b42:	fffb4693          	not	a3,s6
   12b46:	bffcfe13          	andi	t3,s9,-1025
   12b4a:	86fd                	srai	a3,a3,0x1f
   12b4c:	100e6793          	ori	a5,t3,256
   12b50:	c6be                	sw	a5,76(sp)
   12b52:	00db7db3          	and	s11,s6,a3
   12b56:	d402                	sw	zero,40(sp)
   12b58:	d202                	sw	zero,36(sp)
   12b5a:	ce02                	sw	zero,28(sp)
   12b5c:	57e2                	lw	a5,56(sp)
   12b5e:	020788e3          	beqz	a5,1338e <_vfprintf_r+0x1860>
   12b62:	02d00713          	li	a4,45
   12b66:	4cb6                	lw	s9,76(sp)
   12b68:	0ae103a3          	sb	a4,167(sp)
   12b6c:	4a81                	li	s5,0
   12b6e:	0d85                	addi	s11,s11,1
   12b70:	93aff06f          	j	11caa <_vfprintf_r+0x17c>
   12b74:	4752                	lw	a4,20(sp)
   12b76:	010cf793          	andi	a5,s9,16
   12b7a:	00072b03          	lw	s6,0(a4)
   12b7e:	0711                	addi	a4,a4,4
   12b80:	ca3a                	sw	a4,20(sp)
   12b82:	e7a9                	bnez	a5,12bcc <_vfprintf_r+0x109e>
   12b84:	040cf793          	andi	a5,s9,64
   12b88:	cf95                	beqz	a5,12bc4 <_vfprintf_r+0x1096>
   12b8a:	0b42                	slli	s6,s6,0x10
   12b8c:	010b5b13          	srli	s6,s6,0x10
   12b90:	4d81                	li	s11,0
   12b92:	bb69                	j	1292c <_vfprintf_r+0xdfe>
   12b94:	4522                	lw	a0,8(sp)
   12b96:	01d0                	addi	a2,sp,196
   12b98:	85a6                	mv	a1,s1
   12b9a:	48d000ef          	jal	13826 <__sprint_r>
   12b9e:	9c051ee3          	bnez	a0,1257a <_vfprintf_r+0xa4c>
   12ba2:	4c3e                	lw	s8,204(sp)
   12ba4:	4aae                	lw	s5,200(sp)
   12ba6:	8b4e                	mv	s6,s3
   12ba8:	c6eff06f          	j	12016 <_vfprintf_r+0x4e8>
   12bac:	4522                	lw	a0,8(sp)
   12bae:	01d0                	addi	a2,sp,196
   12bb0:	85a6                	mv	a1,s1
   12bb2:	475000ef          	jal	13826 <__sprint_r>
   12bb6:	9c0512e3          	bnez	a0,1257a <_vfprintf_r+0xa4c>
   12bba:	4c3e                	lw	s8,204(sp)
   12bbc:	4aae                	lw	s5,200(sp)
   12bbe:	8b4e                	mv	s6,s3
   12bc0:	c72ff06f          	j	12032 <_vfprintf_r+0x504>
   12bc4:	200cf793          	andi	a5,s9,512
   12bc8:	4a079763          	bnez	a5,13076 <_vfprintf_r+0x1548>
   12bcc:	4d81                	li	s11,0
   12bce:	bbb9                	j	1292c <_vfprintf_r+0xdfe>
   12bd0:	ccccd837          	lui	a6,0xccccd
   12bd4:	ccccdcb7          	lui	s9,0xccccd
   12bd8:	5772                	lw	a4,60(sp)
   12bda:	400eff13          	andi	t5,t4,1024
   12bde:	4601                	li	a2,0
   12be0:	0b0c                	addi	a1,sp,400
   12be2:	4e15                	li	t3,5
   12be4:	ccd80813          	addi	a6,a6,-819 # cccccccd <__BSS_END__+0xcccb0001>
   12be8:	cccc8c93          	addi	s9,s9,-820 # cccccccc <__BSS_END__+0xcccb0000>
   12bec:	0ff00c13          	li	s8,255
   12bf0:	a081                	j	12c30 <_vfprintf_r+0x1102>
   12bf2:	016d37b3          	sltu	a5,s10,s6
   12bf6:	97ea                	add	a5,a5,s10
   12bf8:	03c7f7b3          	remu	a5,a5,t3
   12bfc:	40fb07b3          	sub	a5,s6,a5
   12c00:	00fb35b3          	sltu	a1,s6,a5
   12c04:	40bd85b3          	sub	a1,s11,a1
   12c08:	03978333          	mul	t1,a5,s9
   12c0c:	030585b3          	mul	a1,a1,a6
   12c10:	0307b533          	mulhu	a0,a5,a6
   12c14:	959a                	add	a1,a1,t1
   12c16:	030787b3          	mul	a5,a5,a6
   12c1a:	95aa                	add	a1,a1,a0
   12c1c:	01f59513          	slli	a0,a1,0x1f
   12c20:	8185                	srli	a1,a1,0x1
   12c22:	8385                	srli	a5,a5,0x1
   12c24:	8fc9                	or	a5,a5,a0
   12c26:	7c0d8963          	beqz	s11,133f8 <_vfprintf_r+0x18ca>
   12c2a:	8dae                	mv	s11,a1
   12c2c:	8b3e                	mv	s6,a5
   12c2e:	85b6                	mv	a1,a3
   12c30:	01bb0d33          	add	s10,s6,s11
   12c34:	016d37b3          	sltu	a5,s10,s6
   12c38:	97ea                	add	a5,a5,s10
   12c3a:	03c7f7b3          	remu	a5,a5,t3
   12c3e:	fff58693          	addi	a3,a1,-1
   12c42:	0605                	addi	a2,a2,1
   12c44:	40fb07b3          	sub	a5,s6,a5
   12c48:	00fb3533          	sltu	a0,s6,a5
   12c4c:	40ad8533          	sub	a0,s11,a0
   12c50:	0307b333          	mulhu	t1,a5,a6
   12c54:	03050533          	mul	a0,a0,a6
   12c58:	030787b3          	mul	a5,a5,a6
   12c5c:	951a                	add	a0,a0,t1
   12c5e:	057e                	slli	a0,a0,0x1f
   12c60:	8385                	srli	a5,a5,0x1
   12c62:	8fc9                	or	a5,a5,a0
   12c64:	00279513          	slli	a0,a5,0x2
   12c68:	97aa                	add	a5,a5,a0
   12c6a:	0786                	slli	a5,a5,0x1
   12c6c:	40fb07b3          	sub	a5,s6,a5
   12c70:	03078793          	addi	a5,a5,48
   12c74:	fef58fa3          	sb	a5,-1(a1)
   12c78:	f60f0de3          	beqz	t5,12bf2 <_vfprintf_r+0x10c4>
   12c7c:	00074783          	lbu	a5,0(a4)
   12c80:	f6f619e3          	bne	a2,a5,12bf2 <_vfprintf_r+0x10c4>
   12c84:	f78607e3          	beq	a2,s8,12bf2 <_vfprintf_r+0x10c4>
   12c88:	300d9e63          	bnez	s11,12fa4 <_vfprintf_r+0x1476>
   12c8c:	47a5                	li	a5,9
   12c8e:	3167eb63          	bltu	a5,s6,12fa4 <_vfprintf_r+0x1476>
   12c92:	8d36                	mv	s10,a3
   12c94:	0b1c                	addi	a5,sp,400
   12c96:	d032                	sw	a2,32(sp)
   12c98:	de3a                	sw	a4,60(sp)
   12c9a:	41a78b33          	sub	s6,a5,s10
   12c9e:	8cf6                	mv	s9,t4
   12ca0:	9d2ff06f          	j	11e72 <_vfprintf_r+0x344>
   12ca4:	472e                	lw	a4,200(sp)
   12ca6:	65ed                	lui	a1,0x1b
   12ca8:	ab458593          	addi	a1,a1,-1356 # 1aab4 <__clzsi2+0x11a>
   12cac:	c00c                	sw	a1,0(s0)
   12cae:	0605                	addi	a2,a2,1
   12cb0:	4585                	li	a1,1
   12cb2:	0705                	addi	a4,a4,1
   12cb4:	c04c                	sw	a1,4(s0)
   12cb6:	c7b2                	sw	a2,204(sp)
   12cb8:	c5ba                	sw	a4,200(sp)
   12cba:	459d                	li	a1,7
   12cbc:	0421                	addi	s0,s0,8
   12cbe:	36e5c163          	blt	a1,a4,13020 <_vfprintf_r+0x14f2>
   12cc2:	e569                	bnez	a0,12d8c <_vfprintf_r+0x125e>
   12cc4:	5782                	lw	a5,32(sp)
   12cc6:	001cf713          	andi	a4,s9,1
   12cca:	8f5d                	or	a4,a4,a5
   12ccc:	e319                	bnez	a4,12cd2 <_vfprintf_r+0x11a4>
   12cce:	86aff06f          	j	11d38 <_vfprintf_r+0x20a>
   12cd2:	5742                	lw	a4,48(sp)
   12cd4:	57b2                	lw	a5,44(sp)
   12cd6:	459d                	li	a1,7
   12cd8:	c018                	sw	a4,0(s0)
   12cda:	472e                	lw	a4,200(sp)
   12cdc:	963e                	add	a2,a2,a5
   12cde:	c05c                	sw	a5,4(s0)
   12ce0:	0705                	addi	a4,a4,1
   12ce2:	c7b2                	sw	a2,204(sp)
   12ce4:	c5ba                	sw	a4,200(sp)
   12ce6:	3ae5cf63          	blt	a1,a4,130a4 <_vfprintf_r+0x1576>
   12cea:	0421                	addi	s0,s0,8
   12cec:	a87d                	j	12daa <_vfprintf_r+0x127c>
   12cee:	4522                	lw	a0,8(sp)
   12cf0:	d12fe0ef          	jal	11202 <__sinit>
   12cf4:	e77fe06f          	j	11b6a <_vfprintf_r+0x3c>
   12cf8:	4522                	lw	a0,8(sp)
   12cfa:	01d0                	addi	a2,sp,196
   12cfc:	85a6                	mv	a1,s1
   12cfe:	329000ef          	jal	13826 <__sprint_r>
   12d02:	86051ce3          	bnez	a0,1257a <_vfprintf_r+0xa4c>
   12d06:	463e                	lw	a2,204(sp)
   12d08:	844e                	mv	s0,s3
   12d0a:	e78ff06f          	j	12382 <_vfprintf_r+0x854>
   12d0e:	886a                	mv	a6,s10
   12d10:	01042023          	sw	a6,0(s0)
   12d14:	01542223          	sw	s5,4(s0)
   12d18:	9656                	add	a2,a2,s5
   12d1a:	0785                	addi	a5,a5,1
   12d1c:	c7b2                	sw	a2,204(sp)
   12d1e:	c5be                	sw	a5,200(sp)
   12d20:	471d                	li	a4,7
   12d22:	00f74463          	blt	a4,a5,12d2a <_vfprintf_r+0x11fc>
   12d26:	810ff06f          	j	11d36 <_vfprintf_r+0x208>
   12d2a:	b70ff06f          	j	1209a <_vfprintf_r+0x56c>
   12d2e:	47ce                	lw	a5,208(sp)
   12d30:	010c                	addi	a1,sp,128
   12d32:	0908                	addi	a0,sp,144
   12d34:	c93e                	sw	a5,144(sp)
   12d36:	47de                	lw	a5,212(sp)
   12d38:	c102                	sw	zero,128(sp)
   12d3a:	c302                	sw	zero,132(sp)
   12d3c:	cb3e                	sw	a5,148(sp)
   12d3e:	47ee                	lw	a5,216(sp)
   12d40:	c502                	sw	zero,136(sp)
   12d42:	c702                	sw	zero,140(sp)
   12d44:	cd3e                	sw	a5,152(sp)
   12d46:	47fe                	lw	a5,220(sp)
   12d48:	cf3e                	sw	a5,156(sp)
   12d4a:	1b9050ef          	jal	18702 <__letf2>
   12d4e:	48c2                	lw	a7,16(sp)
   12d50:	6a054863          	bltz	a0,13400 <_vfprintf_r+0x18d2>
   12d54:	0a714703          	lbu	a4,167(sp)
   12d58:	04700793          	li	a5,71
   12d5c:	2d17dd63          	bge	a5,a7,13036 <_vfprintf_r+0x1508>
   12d60:	67ed                	lui	a5,0x1b
   12d62:	a7878d13          	addi	s10,a5,-1416 # 1aa78 <__clzsi2+0xde>
   12d66:	c802                	sw	zero,16(sp)
   12d68:	d402                	sw	zero,40(sp)
   12d6a:	d202                	sw	zero,36(sp)
   12d6c:	ce02                	sw	zero,28(sp)
   12d6e:	f7fcfc93          	andi	s9,s9,-129
   12d72:	4d8d                	li	s11,3
   12d74:	4b0d                	li	s6,3
   12d76:	4a81                	li	s5,0
   12d78:	90071963          	bnez	a4,11e8a <_vfprintf_r+0x35c>
   12d7c:	f2ffe06f          	j	11caa <_vfprintf_r+0x17c>
   12d80:	47d2                	lw	a5,20(sp)
   12d82:	4732                	lw	a4,12(sp)
   12d84:	439c                	lw	a5,0(a5)
   12d86:	c398                	sw	a4,0(a5)
   12d88:	d08ff06f          	j	12290 <_vfprintf_r+0x762>
   12d8c:	5742                	lw	a4,48(sp)
   12d8e:	57b2                	lw	a5,44(sp)
   12d90:	459d                	li	a1,7
   12d92:	c018                	sw	a4,0(s0)
   12d94:	472e                	lw	a4,200(sp)
   12d96:	963e                	add	a2,a2,a5
   12d98:	c05c                	sw	a5,4(s0)
   12d9a:	0705                	addi	a4,a4,1
   12d9c:	c7b2                	sw	a2,204(sp)
   12d9e:	c5ba                	sw	a4,200(sp)
   12da0:	0421                	addi	s0,s0,8
   12da2:	30e5c163          	blt	a1,a4,130a4 <_vfprintf_r+0x1576>
   12da6:	74054963          	bltz	a0,134f8 <_vfprintf_r+0x19ca>
   12daa:	5782                	lw	a5,32(sp)
   12dac:	0705                	addi	a4,a4,1
   12dae:	01a42023          	sw	s10,0(s0)
   12db2:	963e                	add	a2,a2,a5
   12db4:	c05c                	sw	a5,4(s0)
   12db6:	c7b2                	sw	a2,204(sp)
   12db8:	c5ba                	sw	a4,200(sp)
   12dba:	479d                	li	a5,7
   12dbc:	00e7c463          	blt	a5,a4,12dc4 <_vfprintf_r+0x1296>
   12dc0:	f77fe06f          	j	11d36 <_vfprintf_r+0x208>
   12dc4:	ad6ff06f          	j	1209a <_vfprintf_r+0x56c>
   12dc8:	856a                	mv	a0,s10
   12dca:	dc46                	sw	a7,56(sp)
   12dcc:	939fe0ef          	jal	11704 <strlen>
   12dd0:	0a714703          	lbu	a4,167(sp)
   12dd4:	fff54693          	not	a3,a0
   12dd8:	86fd                	srai	a3,a3,0x1f
   12dda:	ca62                	sw	s8,20(sp)
   12ddc:	c802                	sw	zero,16(sp)
   12dde:	d402                	sw	zero,40(sp)
   12de0:	d202                	sw	zero,36(sp)
   12de2:	ce02                	sw	zero,28(sp)
   12de4:	58e2                	lw	a7,56(sp)
   12de6:	8b2a                	mv	s6,a0
   12de8:	00d57db3          	and	s11,a0,a3
   12dec:	4a81                	li	s5,0
   12dee:	c319                	beqz	a4,12df4 <_vfprintf_r+0x12c6>
   12df0:	89aff06f          	j	11e8a <_vfprintf_r+0x35c>
   12df4:	eb7fe06f          	j	11caa <_vfprintf_r+0x17c>
   12df8:	884a                	mv	a6,s2
   12dfa:	4972                	lw	s2,28(sp)
   12dfc:	9c22                	add	s8,s8,s0
   12dfe:	0a85                	addi	s5,s5,1
   12e00:	010b2023          	sw	a6,0(s6)
   12e04:	a64ff06f          	j	12068 <_vfprintf_r+0x53a>
   12e08:	47fe                	lw	a5,220(sp)
   12e0a:	2607cf63          	bltz	a5,13088 <_vfprintf_r+0x155a>
   12e0e:	0a714703          	lbu	a4,167(sp)
   12e12:	04700793          	li	a5,71
   12e16:	6117ca63          	blt	a5,a7,1342a <_vfprintf_r+0x18fc>
   12e1a:	67ed                	lui	a5,0x1b
   12e1c:	a7c78d13          	addi	s10,a5,-1412 # 1aa7c <__clzsi2+0xe2>
   12e20:	b799                	j	12d66 <_vfprintf_r+0x1238>
   12e22:	8822                	mv	a6,s0
   12e24:	843e                	mv	s0,a5
   12e26:	9656                	add	a2,a2,s5
   12e28:	0705                	addi	a4,a4,1
   12e2a:	01042023          	sw	a6,0(s0)
   12e2e:	01542223          	sw	s5,4(s0)
   12e32:	c7b2                	sw	a2,204(sp)
   12e34:	c5ba                	sw	a4,200(sp)
   12e36:	459d                	li	a1,7
   12e38:	0421                	addi	s0,s0,8
   12e3a:	8ce5d7e3          	bge	a1,a4,12708 <_vfprintf_r+0xbda>
   12e3e:	4522                	lw	a0,8(sp)
   12e40:	01d0                	addi	a2,sp,196
   12e42:	85a6                	mv	a1,s1
   12e44:	1e3000ef          	jal	13826 <__sprint_r>
   12e48:	f2051963          	bnez	a0,1257a <_vfprintf_r+0xa4c>
   12e4c:	463e                	lw	a2,204(sp)
   12e4e:	844e                	mv	s0,s3
   12e50:	b865                	j	12708 <_vfprintf_r+0xbda>
   12e52:	5782                	lw	a5,32(sp)
   12e54:	5b12                	lw	s6,36(sp)
   12e56:	68ed                	lui	a7,0x1b
   12e58:	97ea                	add	a5,a5,s10
   12e5a:	dc4a                	sw	s2,56(sp)
   12e5c:	c6e6                	sw	s9,76(sp)
   12e5e:	c8de                	sw	s7,80(sp)
   12e60:	d26e                	sw	s11,36(sp)
   12e62:	5da2                	lw	s11,40(sp)
   12e64:	d46a                	sw	s10,40(sp)
   12e66:	5cf2                	lw	s9,60(sp)
   12e68:	8d62                	mv	s10,s8
   12e6a:	4922                	lw	s2,8(sp)
   12e6c:	4c26                	lw	s8,72(sp)
   12e6e:	481d                	li	a6,7
   12e70:	4741                	li	a4,16
   12e72:	d7888a93          	addi	s5,a7,-648 # 1ad78 <zeroes.0>
   12e76:	85a2                	mv	a1,s0
   12e78:	8bbe                	mv	s7,a5
   12e7a:	07605363          	blez	s6,12ee0 <_vfprintf_r+0x13b2>
   12e7e:	0fb05663          	blez	s11,12f6a <_vfprintf_r+0x143c>
   12e82:	1dfd                	addi	s11,s11,-1
   12e84:	4796                	lw	a5,68(sp)
   12e86:	9662                	add	a2,a2,s8
   12e88:	0185a223          	sw	s8,4(a1)
   12e8c:	c19c                	sw	a5,0(a1)
   12e8e:	47ae                	lw	a5,200(sp)
   12e90:	c7b2                	sw	a2,204(sp)
   12e92:	05a1                	addi	a1,a1,8
   12e94:	0785                	addi	a5,a5,1
   12e96:	c5be                	sw	a5,200(sp)
   12e98:	0cf84c63          	blt	a6,a5,12f70 <_vfprintf_r+0x1442>
   12e9c:	000cc683          	lbu	a3,0(s9)
   12ea0:	41ab8433          	sub	s0,s7,s10
   12ea4:	0086d363          	bge	a3,s0,12eaa <_vfprintf_r+0x137c>
   12ea8:	8436                	mv	s0,a3
   12eaa:	00805f63          	blez	s0,12ec8 <_vfprintf_r+0x139a>
   12eae:	46ae                	lw	a3,200(sp)
   12eb0:	9622                	add	a2,a2,s0
   12eb2:	01a5a023          	sw	s10,0(a1)
   12eb6:	0685                	addi	a3,a3,1
   12eb8:	c1c0                	sw	s0,4(a1)
   12eba:	c7b2                	sw	a2,204(sp)
   12ebc:	c5b6                	sw	a3,200(sp)
   12ebe:	0cd84563          	blt	a6,a3,12f88 <_vfprintf_r+0x145a>
   12ec2:	000cc683          	lbu	a3,0(s9)
   12ec6:	05a1                	addi	a1,a1,8
   12ec8:	fff44513          	not	a0,s0
   12ecc:	857d                	srai	a0,a0,0x1f
   12ece:	00a477b3          	and	a5,s0,a0
   12ed2:	40f68433          	sub	s0,a3,a5
   12ed6:	02804763          	bgtz	s0,12f04 <_vfprintf_r+0x13d6>
   12eda:	9d36                	add	s10,s10,a3
   12edc:	fb6041e3          	bgtz	s6,12e7e <_vfprintf_r+0x1350>
   12ee0:	fbb041e3          	bgtz	s11,12e82 <_vfprintf_r+0x1354>
   12ee4:	5782                	lw	a5,32(sp)
   12ee6:	8c6a                	mv	s8,s10
   12ee8:	5d22                	lw	s10,40(sp)
   12eea:	de66                	sw	s9,60(sp)
   12eec:	5962                	lw	s2,56(sp)
   12eee:	00fd0733          	add	a4,s10,a5
   12ef2:	4cb6                	lw	s9,76(sp)
   12ef4:	4bc6                	lw	s7,80(sp)
   12ef6:	5d92                	lw	s11,36(sp)
   12ef8:	842e                	mv	s0,a1
   12efa:	81877ee3          	bgeu	a4,s8,12716 <_vfprintf_r+0xbe8>
   12efe:	8c3a                	mv	s8,a4
   12f00:	817ff06f          	j	12716 <_vfprintf_r+0xbe8>
   12f04:	6f6d                	lui	t5,0x1b
   12f06:	46ae                	lw	a3,200(sp)
   12f08:	d78f0f13          	addi	t5,t5,-648 # 1ad78 <zeroes.0>
   12f0c:	04875163          	bge	a4,s0,12f4e <_vfprintf_r+0x1420>
   12f10:	ce56                	sw	s5,28(sp)
   12f12:	a021                	j	12f1a <_vfprintf_r+0x13ec>
   12f14:	1441                	addi	s0,s0,-16
   12f16:	02875b63          	bge	a4,s0,12f4c <_vfprintf_r+0x141e>
   12f1a:	0641                	addi	a2,a2,16
   12f1c:	0685                	addi	a3,a3,1
   12f1e:	0155a023          	sw	s5,0(a1)
   12f22:	c1d8                	sw	a4,4(a1)
   12f24:	c7b2                	sw	a2,204(sp)
   12f26:	c5b6                	sw	a3,200(sp)
   12f28:	05a1                	addi	a1,a1,8
   12f2a:	fed855e3          	bge	a6,a3,12f14 <_vfprintf_r+0x13e6>
   12f2e:	01d0                	addi	a2,sp,196
   12f30:	85a6                	mv	a1,s1
   12f32:	854a                	mv	a0,s2
   12f34:	0f3000ef          	jal	13826 <__sprint_r>
   12f38:	e4051163          	bnez	a0,1257a <_vfprintf_r+0xa4c>
   12f3c:	4741                	li	a4,16
   12f3e:	1441                	addi	s0,s0,-16
   12f40:	463e                	lw	a2,204(sp)
   12f42:	46ae                	lw	a3,200(sp)
   12f44:	85ce                	mv	a1,s3
   12f46:	481d                	li	a6,7
   12f48:	fc8749e3          	blt	a4,s0,12f1a <_vfprintf_r+0x13ec>
   12f4c:	4f72                	lw	t5,28(sp)
   12f4e:	9622                	add	a2,a2,s0
   12f50:	0685                	addi	a3,a3,1
   12f52:	01e5a023          	sw	t5,0(a1)
   12f56:	c1c0                	sw	s0,4(a1)
   12f58:	c7b2                	sw	a2,204(sp)
   12f5a:	c5b6                	sw	a3,200(sp)
   12f5c:	48d84063          	blt	a6,a3,133dc <_vfprintf_r+0x18ae>
   12f60:	000cc683          	lbu	a3,0(s9)
   12f64:	05a1                	addi	a1,a1,8
   12f66:	9d36                	add	s10,s10,a3
   12f68:	bf95                	j	12edc <_vfprintf_r+0x13ae>
   12f6a:	1cfd                	addi	s9,s9,-1
   12f6c:	1b7d                	addi	s6,s6,-1
   12f6e:	bf19                	j	12e84 <_vfprintf_r+0x1356>
   12f70:	01d0                	addi	a2,sp,196
   12f72:	85a6                	mv	a1,s1
   12f74:	854a                	mv	a0,s2
   12f76:	0b1000ef          	jal	13826 <__sprint_r>
   12f7a:	e0051063          	bnez	a0,1257a <_vfprintf_r+0xa4c>
   12f7e:	463e                	lw	a2,204(sp)
   12f80:	85ce                	mv	a1,s3
   12f82:	4741                	li	a4,16
   12f84:	481d                	li	a6,7
   12f86:	bf19                	j	12e9c <_vfprintf_r+0x136e>
   12f88:	01d0                	addi	a2,sp,196
   12f8a:	85a6                	mv	a1,s1
   12f8c:	854a                	mv	a0,s2
   12f8e:	099000ef          	jal	13826 <__sprint_r>
   12f92:	de051463          	bnez	a0,1257a <_vfprintf_r+0xa4c>
   12f96:	000cc683          	lbu	a3,0(s9)
   12f9a:	463e                	lw	a2,204(sp)
   12f9c:	85ce                	mv	a1,s3
   12f9e:	4741                	li	a4,16
   12fa0:	481d                	li	a6,7
   12fa2:	b71d                	j	12ec8 <_vfprintf_r+0x139a>
   12fa4:	47a6                	lw	a5,72(sp)
   12fa6:	4596                	lw	a1,68(sp)
   12fa8:	dc42                	sw	a6,56(sp)
   12faa:	8e9d                	sub	a3,a3,a5
   12fac:	863e                	mv	a2,a5
   12fae:	8536                	mv	a0,a3
   12fb0:	d47a                	sw	t5,40(sp)
   12fb2:	d276                	sw	t4,36(sp)
   12fb4:	d046                	sw	a7,32(sp)
   12fb6:	ce3a                	sw	a4,28(sp)
   12fb8:	c836                	sw	a3,16(sp)
   12fba:	10e020ef          	jal	150c8 <strncpy>
   12fbe:	016d37b3          	sltu	a5,s10,s6
   12fc2:	4615                	li	a2,5
   12fc4:	97ea                	add	a5,a5,s10
   12fc6:	02c7f7b3          	remu	a5,a5,a2
   12fca:	4772                	lw	a4,28(sp)
   12fcc:	ccccd337          	lui	t1,0xccccd
   12fd0:	ccccd537          	lui	a0,0xccccd
   12fd4:	00174583          	lbu	a1,1(a4)
   12fd8:	ccd30313          	addi	t1,t1,-819 # cccccccd <__BSS_END__+0xcccb0001>
   12fdc:	ccc50513          	addi	a0,a0,-820 # cccccccc <__BSS_END__+0xcccb0000>
   12fe0:	00b035b3          	snez	a1,a1
   12fe4:	972e                	add	a4,a4,a1
   12fe6:	46c2                	lw	a3,16(sp)
   12fe8:	5882                	lw	a7,32(sp)
   12fea:	5e92                	lw	t4,36(sp)
   12fec:	5f22                	lw	t5,40(sp)
   12fee:	5862                	lw	a6,56(sp)
   12ff0:	4601                	li	a2,0
   12ff2:	4e15                	li	t3,5
   12ff4:	40fb07b3          	sub	a5,s6,a5
   12ff8:	00fb35b3          	sltu	a1,s6,a5
   12ffc:	40bd85b3          	sub	a1,s11,a1
   13000:	02a78533          	mul	a0,a5,a0
   13004:	026585b3          	mul	a1,a1,t1
   13008:	0267bfb3          	mulhu	t6,a5,t1
   1300c:	95aa                	add	a1,a1,a0
   1300e:	02678533          	mul	a0,a5,t1
   13012:	95fe                	add	a1,a1,t6
   13014:	01f59793          	slli	a5,a1,0x1f
   13018:	8185                	srli	a1,a1,0x1
   1301a:	8105                	srli	a0,a0,0x1
   1301c:	8fc9                	or	a5,a5,a0
   1301e:	b131                	j	12c2a <_vfprintf_r+0x10fc>
   13020:	4522                	lw	a0,8(sp)
   13022:	01d0                	addi	a2,sp,196
   13024:	85a6                	mv	a1,s1
   13026:	001000ef          	jal	13826 <__sprint_r>
   1302a:	d4051863          	bnez	a0,1257a <_vfprintf_r+0xa4c>
   1302e:	553a                	lw	a0,172(sp)
   13030:	463e                	lw	a2,204(sp)
   13032:	844e                	mv	s0,s3
   13034:	b179                	j	12cc2 <_vfprintf_r+0x1194>
   13036:	67ed                	lui	a5,0x1b
   13038:	a7478d13          	addi	s10,a5,-1420 # 1aa74 <__clzsi2+0xda>
   1303c:	b32d                	j	12d66 <_vfprintf_r+0x1238>
   1303e:	4522                	lw	a0,8(sp)
   13040:	01d0                	addi	a2,sp,196
   13042:	85a6                	mv	a1,s1
   13044:	7e2000ef          	jal	13826 <__sprint_r>
   13048:	d2051963          	bnez	a0,1257a <_vfprintf_r+0xa4c>
   1304c:	463e                	lw	a2,204(sp)
   1304e:	844e                	mv	s0,s3
   13050:	ea4ff06f          	j	126f4 <_vfprintf_r+0xbc6>
   13054:	4b19                	li	s6,6
   13056:	b289                	j	12998 <_vfprintf_r+0xe6a>
   13058:	47d2                	lw	a5,20(sp)
   1305a:	4732                	lw	a4,12(sp)
   1305c:	439c                	lw	a5,0(a5)
   1305e:	00e79023          	sh	a4,0(a5)
   13062:	a2eff06f          	j	12290 <_vfprintf_r+0x762>
   13066:	0b62                	slli	s6,s6,0x18
   13068:	418b5b13          	srai	s6,s6,0x18
   1306c:	41fb5d93          	srai	s11,s6,0x1f
   13070:	87ee                	mv	a5,s11
   13072:	ddffe06f          	j	11e50 <_vfprintf_r+0x322>
   13076:	0ffb7b13          	zext.b	s6,s6
   1307a:	4d81                	li	s11,0
   1307c:	b845                	j	1292c <_vfprintf_r+0xdfe>
   1307e:	0ffb7b13          	zext.b	s6,s6
   13082:	4d81                	li	s11,0
   13084:	e2ffe06f          	j	11eb2 <_vfprintf_r+0x384>
   13088:	02d00793          	li	a5,45
   1308c:	0af103a3          	sb	a5,167(sp)
   13090:	02d00713          	li	a4,45
   13094:	bbbd                	j	12e12 <_vfprintf_r+0x12e4>
   13096:	4522                	lw	a0,8(sp)
   13098:	01d0                	addi	a2,sp,196
   1309a:	85a6                	mv	a1,s1
   1309c:	78a000ef          	jal	13826 <__sprint_r>
   130a0:	cdbfe06f          	j	11d7a <_vfprintf_r+0x24c>
   130a4:	4522                	lw	a0,8(sp)
   130a6:	01d0                	addi	a2,sp,196
   130a8:	85a6                	mv	a1,s1
   130aa:	2fb5                	jal	13826 <__sprint_r>
   130ac:	cc051763          	bnez	a0,1257a <_vfprintf_r+0xa4c>
   130b0:	553a                	lw	a0,172(sp)
   130b2:	463e                	lw	a2,204(sp)
   130b4:	472e                	lw	a4,200(sp)
   130b6:	844e                	mv	s0,s3
   130b8:	b1fd                	j	12da6 <_vfprintf_r+0x1278>
   130ba:	01550733          	add	a4,a0,s5
   130be:	04700613          	li	a2,71
   130c2:	010c                	addi	a1,sp,128
   130c4:	855a                	mv	a0,s6
   130c6:	d23a                	sw	a4,36(sp)
   130c8:	d032                	sw	a2,32(sp)
   130ca:	ce46                	sw	a7,28(sp)
   130cc:	c97e                	sw	t6,144(sp)
   130ce:	cb7a                	sw	t5,148(sp)
   130d0:	cd76                	sw	t4,152(sp)
   130d2:	cf62                	sw	s8,156(sp)
   130d4:	c102                	sw	zero,128(sp)
   130d6:	c302                	sw	zero,132(sp)
   130d8:	c502                	sw	zero,136(sp)
   130da:	c702                	sw	zero,140(sp)
   130dc:	44e050ef          	jal	1852a <__eqtf2>
   130e0:	48f2                	lw	a7,28(sp)
   130e2:	5602                	lw	a2,32(sp)
   130e4:	5712                	lw	a4,36(sp)
   130e6:	36050463          	beqz	a0,1344e <_vfprintf_r+0x1920>
   130ea:	57fa                	lw	a5,188(sp)
   130ec:	00e7fc63          	bgeu	a5,a4,13104 <_vfprintf_r+0x15d6>
   130f0:	03000593          	li	a1,48
   130f4:	00178693          	addi	a3,a5,1
   130f8:	df36                	sw	a3,188(sp)
   130fa:	00b78023          	sb	a1,0(a5)
   130fe:	57fa                	lw	a5,188(sp)
   13100:	fee7eae3          	bltu	a5,a4,130f4 <_vfprintf_r+0x15c6>
   13104:	573a                	lw	a4,172(sp)
   13106:	ce3a                	sw	a4,28(sp)
   13108:	41a787b3          	sub	a5,a5,s10
   1310c:	04700713          	li	a4,71
   13110:	d03e                	sw	a5,32(sp)
   13112:	98e606e3          	beq	a2,a4,12a9e <_vfprintf_r+0xf70>
   13116:	04600713          	li	a4,70
   1311a:	38e60663          	beq	a2,a4,134a6 <_vfprintf_r+0x1978>
   1311e:	47f2                	lw	a5,28(sp)
   13120:	fff78713          	addi	a4,a5,-1
   13124:	b279                	j	12ab2 <_vfprintf_r+0xf84>
   13126:	001a8693          	addi	a3,s5,1
   1312a:	4609                	li	a2,2
   1312c:	4522                	lw	a0,8(sp)
   1312e:	09010b13          	addi	s6,sp,144
   13132:	1178                	addi	a4,sp,172
   13134:	85da                	mv	a1,s6
   13136:	0bc10813          	addi	a6,sp,188
   1313a:	191c                	addi	a5,sp,176
   1313c:	c8c6                	sw	a7,80(sp)
   1313e:	d436                	sw	a3,40(sp)
   13140:	c97e                	sw	t6,144(sp)
   13142:	d27e                	sw	t6,36(sp)
   13144:	cb7a                	sw	t5,148(sp)
   13146:	d07a                	sw	t5,32(sp)
   13148:	cd76                	sw	t4,152(sp)
   1314a:	ce76                	sw	t4,28(sp)
   1314c:	cf62                	sw	s8,156(sp)
   1314e:	55c020ef          	jal	156aa <_ldtoa_r>
   13152:	48c6                	lw	a7,80(sp)
   13154:	56a2                	lw	a3,40(sp)
   13156:	04600593          	li	a1,70
   1315a:	fdf8f613          	andi	a2,a7,-33
   1315e:	4ef2                	lw	t4,28(sp)
   13160:	5f02                	lw	t5,32(sp)
   13162:	5f92                	lw	t6,36(sp)
   13164:	8d2a                	mv	s10,a0
   13166:	00d50733          	add	a4,a0,a3
   1316a:	54b61363          	bne	a2,a1,136b0 <_vfprintf_r+0x1b82>
   1316e:	000d4503          	lbu	a0,0(s10)
   13172:	03000593          	li	a1,48
   13176:	2eb50463          	beq	a0,a1,1345e <_vfprintf_r+0x1930>
   1317a:	56ba                	lw	a3,172(sp)
   1317c:	010c                	addi	a1,sp,128
   1317e:	9736                	add	a4,a4,a3
   13180:	b791                	j	130c4 <_vfprintf_r+0x1596>
   13182:	09010b13          	addi	s6,sp,144
   13186:	010c                	addi	a1,sp,128
   13188:	1170                	addi	a2,sp,172
   1318a:	855a                	mv	a0,s6
   1318c:	c0c6                	sw	a7,64(sp)
   1318e:	c17e                	sw	t6,128(sp)
   13190:	c37a                	sw	t5,132(sp)
   13192:	c576                	sw	t4,136(sp)
   13194:	ce2e                	sw	a1,28(sp)
   13196:	c762                	sw	s8,140(sp)
   13198:	3b6020ef          	jal	1554e <frexpl>
   1319c:	474a                	lw	a4,144(sp)
   1319e:	45f2                	lw	a1,28(sp)
   131a0:	1890                	addi	a2,sp,112
   131a2:	c13a                	sw	a4,128(sp)
   131a4:	475a                	lw	a4,148(sp)
   131a6:	855a                	mv	a0,s6
   131a8:	d882                	sw	zero,112(sp)
   131aa:	c33a                	sw	a4,132(sp)
   131ac:	476a                	lw	a4,152(sp)
   131ae:	da82                	sw	zero,116(sp)
   131b0:	dc82                	sw	zero,120(sp)
   131b2:	c53a                	sw	a4,136(sp)
   131b4:	477a                	lw	a4,156(sp)
   131b6:	c73a                	sw	a4,140(sp)
   131b8:	3ffc0737          	lui	a4,0x3ffc0
   131bc:	deba                	sw	a4,124(sp)
   131be:	630050ef          	jal	187ee <__multf3>
   131c2:	45f2                	lw	a1,28(sp)
   131c4:	4f4a                	lw	t5,144(sp)
   131c6:	4eda                	lw	t4,148(sp)
   131c8:	486a                	lw	a6,152(sp)
   131ca:	855a                	mv	a0,s6
   131cc:	d42e                	sw	a1,40(sp)
   131ce:	d27a                	sw	t5,36(sp)
   131d0:	d076                	sw	t4,32(sp)
   131d2:	ce42                	sw	a6,28(sp)
   131d4:	c102                	sw	zero,128(sp)
   131d6:	c302                	sw	zero,132(sp)
   131d8:	c502                	sw	zero,136(sp)
   131da:	c702                	sw	zero,140(sp)
   131dc:	34e050ef          	jal	1852a <__eqtf2>
   131e0:	4dfa                	lw	s11,156(sp)
   131e2:	4872                	lw	a6,28(sp)
   131e4:	5e82                	lw	t4,32(sp)
   131e6:	5f12                	lw	t5,36(sp)
   131e8:	55a2                	lw	a1,40(sp)
   131ea:	4886                	lw	a7,64(sp)
   131ec:	e119                	bnez	a0,131f2 <_vfprintf_r+0x16c4>
   131ee:	4705                	li	a4,1
   131f0:	d73a                	sw	a4,172(sp)
   131f2:	06100713          	li	a4,97
   131f6:	44e88b63          	beq	a7,a4,1364c <_vfprintf_r+0x1b1e>
   131fa:	676d                	lui	a4,0x1b
   131fc:	a9870793          	addi	a5,a4,-1384 # 1aa98 <__clzsi2+0xfe>
   13200:	ce3e                	sw	a5,28(sp)
   13202:	d04a                	sw	s2,32(sp)
   13204:	d466                	sw	s9,40(sp)
   13206:	c0de                	sw	s7,64(sp)
   13208:	c6a2                	sw	s0,76(sp)
   1320a:	896a                	mv	s2,s10
   1320c:	c8a6                	sw	s1,80(sp)
   1320e:	caea                	sw	s10,84(sp)
   13210:	44f2                	lw	s1,28(sp)
   13212:	1afd                	addi	s5,s5,-1
   13214:	d246                	sw	a7,36(sp)
   13216:	8bfa                	mv	s7,t5
   13218:	8c76                	mv	s8,t4
   1321a:	8cc2                	mv	s9,a6
   1321c:	8d6e                	mv	s10,s11
   1321e:	842e                	mv	s0,a1
   13220:	a015                	j	13244 <_vfprintf_r+0x1716>
   13222:	85a2                	mv	a1,s0
   13224:	855a                	mv	a0,s6
   13226:	c95e                	sw	s7,144(sp)
   13228:	cb62                	sw	s8,148(sp)
   1322a:	cd66                	sw	s9,152(sp)
   1322c:	cf6a                	sw	s10,156(sp)
   1322e:	c102                	sw	zero,128(sp)
   13230:	c302                	sw	zero,132(sp)
   13232:	c502                	sw	zero,136(sp)
   13234:	c702                	sw	zero,140(sp)
   13236:	fffa8d93          	addi	s11,s5,-1
   1323a:	2f0050ef          	jal	1852a <__eqtf2>
   1323e:	3c050a63          	beqz	a0,13612 <_vfprintf_r+0x1ae4>
   13242:	8aee                	mv	s5,s11
   13244:	400307b7          	lui	a5,0x40030
   13248:	1890                	addi	a2,sp,112
   1324a:	85a2                	mv	a1,s0
   1324c:	855a                	mv	a0,s6
   1324e:	debe                	sw	a5,124(sp)
   13250:	c15e                	sw	s7,128(sp)
   13252:	c362                	sw	s8,132(sp)
   13254:	c566                	sw	s9,136(sp)
   13256:	c76a                	sw	s10,140(sp)
   13258:	d882                	sw	zero,112(sp)
   1325a:	da82                	sw	zero,116(sp)
   1325c:	dc82                	sw	zero,120(sp)
   1325e:	590050ef          	jal	187ee <__multf3>
   13262:	855a                	mv	a0,s6
   13264:	3b4070ef          	jal	1a618 <__fixtfsi>
   13268:	85aa                	mv	a1,a0
   1326a:	8daa                	mv	s11,a0
   1326c:	855a                	mv	a0,s6
   1326e:	4d4a                	lw	s10,144(sp)
   13270:	4cda                	lw	s9,148(sp)
   13272:	4c6a                	lw	s8,152(sp)
   13274:	4bfa                	lw	s7,156(sp)
   13276:	4c6070ef          	jal	1a73c <__floatsitf>
   1327a:	46ca                	lw	a3,144(sp)
   1327c:	1090                	addi	a2,sp,96
   1327e:	188c                	addi	a1,sp,112
   13280:	d0b6                	sw	a3,96(sp)
   13282:	46da                	lw	a3,148(sp)
   13284:	8522                	mv	a0,s0
   13286:	d8ea                	sw	s10,112(sp)
   13288:	d2b6                	sw	a3,100(sp)
   1328a:	46ea                	lw	a3,152(sp)
   1328c:	dae6                	sw	s9,116(sp)
   1328e:	dce2                	sw	s8,120(sp)
   13290:	d4b6                	sw	a3,104(sp)
   13292:	46fa                	lw	a3,156(sp)
   13294:	dede                	sw	s7,124(sp)
   13296:	d6b6                	sw	a3,108(sp)
   13298:	1f2060ef          	jal	1948a <__subtf3>
   1329c:	01b486b3          	add	a3,s1,s11
   132a0:	0006c603          	lbu	a2,0(a3)
   132a4:	8fca                	mv	t6,s2
   132a6:	0905                	addi	s2,s2,1
   132a8:	4b8a                	lw	s7,128(sp)
   132aa:	4c1a                	lw	s8,132(sp)
   132ac:	4caa                	lw	s9,136(sp)
   132ae:	4d3a                	lw	s10,140(sp)
   132b0:	57fd                	li	a5,-1
   132b2:	fec90fa3          	sb	a2,-1(s2)
   132b6:	f6fa96e3          	bne	s5,a5,13222 <_vfprintf_r+0x16f4>
   132ba:	8f5e                	mv	t5,s7
   132bc:	8ee2                	mv	t4,s8
   132be:	8866                	mv	a6,s9
   132c0:	85a2                	mv	a1,s0
   132c2:	ccee                	sw	s11,88(sp)
   132c4:	3ffe0ab7          	lui	s5,0x3ffe0
   132c8:	8dea                	mv	s11,s10
   132ca:	855a                	mv	a0,s6
   132cc:	cefe                	sw	t6,92(sp)
   132ce:	44c6                	lw	s1,80(sp)
   132d0:	4b86                	lw	s7,64(sp)
   132d2:	5ca2                	lw	s9,40(sp)
   132d4:	4436                	lw	s0,76(sp)
   132d6:	c97a                	sw	t5,144(sp)
   132d8:	c8fa                	sw	t5,80(sp)
   132da:	cb76                	sw	t4,148(sp)
   132dc:	c6f6                	sw	t4,76(sp)
   132de:	cd42                	sw	a6,152(sp)
   132e0:	c0c2                	sw	a6,64(sp)
   132e2:	cf6e                	sw	s11,156(sp)
   132e4:	c102                	sw	zero,128(sp)
   132e6:	c302                	sw	zero,132(sp)
   132e8:	c502                	sw	zero,136(sp)
   132ea:	c756                	sw	s5,140(sp)
   132ec:	d42e                	sw	a1,40(sp)
   132ee:	328050ef          	jal	18616 <__getf2>
   132f2:	8c4a                	mv	s8,s2
   132f4:	4d56                	lw	s10,84(sp)
   132f6:	5902                	lw	s2,32(sp)
   132f8:	5892                	lw	a7,36(sp)
   132fa:	4ff6                	lw	t6,92(sp)
   132fc:	00a04e63          	bgtz	a0,13318 <_vfprintf_r+0x17ea>
   13300:	55a2                	lw	a1,40(sp)
   13302:	855a                	mv	a0,s6
   13304:	d07e                	sw	t6,32(sp)
   13306:	224050ef          	jal	1852a <__eqtf2>
   1330a:	5892                	lw	a7,36(sp)
   1330c:	e529                	bnez	a0,13356 <_vfprintf_r+0x1828>
   1330e:	47e6                	lw	a5,88(sp)
   13310:	5f82                	lw	t6,32(sp)
   13312:	0017f693          	andi	a3,a5,1
   13316:	c2a1                	beqz	a3,13356 <_vfprintf_r+0x1828>
   13318:	47f2                	lw	a5,28(sp)
   1331a:	df7e                	sw	t6,188(sp)
   1331c:	fffc4603          	lbu	a2,-1(s8)
   13320:	00f7c583          	lbu	a1,15(a5) # 4003000f <__BSS_END__+0x40013343>
   13324:	86e2                	mv	a3,s8
   13326:	00b61e63          	bne	a2,a1,13342 <_vfprintf_r+0x1814>
   1332a:	03000513          	li	a0,48
   1332e:	fea68fa3          	sb	a0,-1(a3)
   13332:	56fa                	lw	a3,188(sp)
   13334:	fff68793          	addi	a5,a3,-1
   13338:	df3e                	sw	a5,188(sp)
   1333a:	fff6c603          	lbu	a2,-1(a3)
   1333e:	fec588e3          	beq	a1,a2,1332e <_vfprintf_r+0x1800>
   13342:	00160593          	addi	a1,a2,1
   13346:	03900513          	li	a0,57
   1334a:	0ff5f593          	zext.b	a1,a1
   1334e:	02a60c63          	beq	a2,a0,13386 <_vfprintf_r+0x1858>
   13352:	feb68fa3          	sb	a1,-1(a3)
   13356:	57ba                	lw	a5,172(sp)
   13358:	41ac0733          	sub	a4,s8,s10
   1335c:	d03a                	sw	a4,32(sp)
   1335e:	fff78713          	addi	a4,a5,-1
   13362:	ce3e                	sw	a5,28(sp)
   13364:	06100613          	li	a2,97
   13368:	d73a                	sw	a4,172(sp)
   1336a:	07000693          	li	a3,112
   1336e:	00c88663          	beq	a7,a2,1337a <_vfprintf_r+0x184c>
   13372:	05000693          	li	a3,80
   13376:	04100893          	li	a7,65
   1337a:	4605                	li	a2,1
   1337c:	f3eff06f          	j	12aba <_vfprintf_r+0xf8c>
   13380:	86d6                	mv	a3,s5
   13382:	460d                	li	a2,3
   13384:	b365                	j	1312c <_vfprintf_r+0x15fe>
   13386:	47f2                	lw	a5,28(sp)
   13388:	00a7c583          	lbu	a1,10(a5)
   1338c:	b7d9                	j	13352 <_vfprintf_r+0x1824>
   1338e:	0a714703          	lbu	a4,167(sp)
   13392:	4cb6                	lw	s9,76(sp)
   13394:	4a81                	li	s5,0
   13396:	c319                	beqz	a4,1339c <_vfprintf_r+0x186e>
   13398:	af3fe06f          	j	11e8a <_vfprintf_r+0x35c>
   1339c:	90ffe06f          	j	11caa <_vfprintf_r+0x17c>
   133a0:	5782                	lw	a5,32(sp)
   133a2:	4772                	lw	a4,28(sp)
   133a4:	12f74763          	blt	a4,a5,134d2 <_vfprintf_r+0x19a4>
   133a8:	47f2                	lw	a5,28(sp)
   133aa:	001cf713          	andi	a4,s9,1
   133ae:	8b3e                	mv	s6,a5
   133b0:	c701                	beqz	a4,133b8 <_vfprintf_r+0x188a>
   133b2:	5732                	lw	a4,44(sp)
   133b4:	00e78b33          	add	s6,a5,a4
   133b8:	400cfe13          	andi	t3,s9,1024
   133bc:	000e0563          	beqz	t3,133c6 <_vfprintf_r+0x1898>
   133c0:	47f2                	lw	a5,28(sp)
   133c2:	1ef04c63          	bgtz	a5,135ba <_vfprintf_r+0x1a8c>
   133c6:	fffb4693          	not	a3,s6
   133ca:	86fd                	srai	a3,a3,0x1f
   133cc:	00db7db3          	and	s11,s6,a3
   133d0:	06700893          	li	a7,103
   133d4:	d402                	sw	zero,40(sp)
   133d6:	d202                	sw	zero,36(sp)
   133d8:	f84ff06f          	j	12b5c <_vfprintf_r+0x102e>
   133dc:	01d0                	addi	a2,sp,196
   133de:	85a6                	mv	a1,s1
   133e0:	854a                	mv	a0,s2
   133e2:	2191                	jal	13826 <__sprint_r>
   133e4:	98051b63          	bnez	a0,1257a <_vfprintf_r+0xa4c>
   133e8:	000cc683          	lbu	a3,0(s9)
   133ec:	463e                	lw	a2,204(sp)
   133ee:	85ce                	mv	a1,s3
   133f0:	4741                	li	a4,16
   133f2:	481d                	li	a6,7
   133f4:	9d36                	add	s10,s10,a3
   133f6:	b4dd                	j	12edc <_vfprintf_r+0x13ae>
   133f8:	4525                	li	a0,9
   133fa:	836568e3          	bltu	a0,s6,12c2a <_vfprintf_r+0x10fc>
   133fe:	b851                	j	12c92 <_vfprintf_r+0x1164>
   13400:	02d00793          	li	a5,45
   13404:	0af103a3          	sb	a5,167(sp)
   13408:	02d00713          	li	a4,45
   1340c:	b2b1                	j	12d58 <_vfprintf_r+0x122a>
   1340e:	0a714703          	lbu	a4,167(sp)
   13412:	ca62                	sw	s8,20(sp)
   13414:	d402                	sw	zero,40(sp)
   13416:	d202                	sw	zero,36(sp)
   13418:	ce02                	sw	zero,28(sp)
   1341a:	8dd6                	mv	s11,s5
   1341c:	8b56                	mv	s6,s5
   1341e:	4a81                	li	s5,0
   13420:	c319                	beqz	a4,13426 <_vfprintf_r+0x18f8>
   13422:	a69fe06f          	j	11e8a <_vfprintf_r+0x35c>
   13426:	885fe06f          	j	11caa <_vfprintf_r+0x17c>
   1342a:	67ed                	lui	a5,0x1b
   1342c:	a8078d13          	addi	s10,a5,-1408 # 1aa80 <__clzsi2+0xe6>
   13430:	ba1d                	j	12d66 <_vfprintf_r+0x1238>
   13432:	4522                	lw	a0,8(sp)
   13434:	01d0                	addi	a2,sp,196
   13436:	85a6                	mv	a1,s1
   13438:	26fd                	jal	13826 <__sprint_r>
   1343a:	94051063          	bnez	a0,1257a <_vfprintf_r+0xa4c>
   1343e:	5aba                	lw	s5,172(sp)
   13440:	5782                	lw	a5,32(sp)
   13442:	463e                	lw	a2,204(sp)
   13444:	844e                	mv	s0,s3
   13446:	41578ab3          	sub	s5,a5,s5
   1344a:	b0eff06f          	j	12758 <_vfprintf_r+0xc2a>
   1344e:	57ba                	lw	a5,172(sp)
   13450:	ce3e                	sw	a5,28(sp)
   13452:	87ba                	mv	a5,a4
   13454:	b955                	j	13108 <_vfprintf_r+0x15da>
   13456:	57fd                	li	a5,-1
   13458:	c63e                	sw	a5,12(sp)
   1345a:	953fe06f          	j	11dac <_vfprintf_r+0x27e>
   1345e:	010c                	addi	a1,sp,128
   13460:	855a                	mv	a0,s6
   13462:	ceba                	sw	a4,92(sp)
   13464:	ccb2                	sw	a2,88(sp)
   13466:	cac6                	sw	a7,84(sp)
   13468:	c8b6                	sw	a3,80(sp)
   1346a:	c97e                	sw	t6,144(sp)
   1346c:	d47e                	sw	t6,40(sp)
   1346e:	cb7a                	sw	t5,148(sp)
   13470:	d27a                	sw	t5,36(sp)
   13472:	cd76                	sw	t4,152(sp)
   13474:	d076                	sw	t4,32(sp)
   13476:	ce2e                	sw	a1,28(sp)
   13478:	cf62                	sw	s8,156(sp)
   1347a:	c102                	sw	zero,128(sp)
   1347c:	c302                	sw	zero,132(sp)
   1347e:	c502                	sw	zero,136(sp)
   13480:	c702                	sw	zero,140(sp)
   13482:	0a8050ef          	jal	1852a <__eqtf2>
   13486:	45f2                	lw	a1,28(sp)
   13488:	5e82                	lw	t4,32(sp)
   1348a:	5f12                	lw	t5,36(sp)
   1348c:	5fa2                	lw	t6,40(sp)
   1348e:	46c6                	lw	a3,80(sp)
   13490:	48d6                	lw	a7,84(sp)
   13492:	4666                	lw	a2,88(sp)
   13494:	4776                	lw	a4,92(sp)
   13496:	1c051063          	bnez	a0,13656 <_vfprintf_r+0x1b28>
   1349a:	57ba                	lw	a5,172(sp)
   1349c:	973e                	add	a4,a4,a5
   1349e:	ce3e                	sw	a5,28(sp)
   134a0:	41a707b3          	sub	a5,a4,s10
   134a4:	d03e                	sw	a5,32(sp)
   134a6:	47f2                	lw	a5,28(sp)
   134a8:	001cf713          	andi	a4,s9,1
   134ac:	01576733          	or	a4,a4,s5
   134b0:	1af05963          	blez	a5,13662 <_vfprintf_r+0x1b34>
   134b4:	18071463          	bnez	a4,1363c <_vfprintf_r+0x1b0e>
   134b8:	4b72                	lw	s6,28(sp)
   134ba:	06600893          	li	a7,102
   134be:	400cfe13          	andi	t3,s9,1024
   134c2:	0e0e1e63          	bnez	t3,135be <_vfprintf_r+0x1a90>
   134c6:	fffb4693          	not	a3,s6
   134ca:	86fd                	srai	a3,a3,0x1f
   134cc:	00db7db3          	and	s11,s6,a3
   134d0:	b711                	j	133d4 <_vfprintf_r+0x18a6>
   134d2:	5782                	lw	a5,32(sp)
   134d4:	5732                	lw	a4,44(sp)
   134d6:	06700893          	li	a7,103
   134da:	00e78b33          	add	s6,a5,a4
   134de:	47f2                	lw	a5,28(sp)
   134e0:	fcf04fe3          	bgtz	a5,134be <_vfprintf_r+0x1990>
   134e4:	40fb0f33          	sub	t5,s6,a5
   134e8:	001f0b13          	addi	s6,t5,1
   134ec:	fffb4693          	not	a3,s6
   134f0:	86fd                	srai	a3,a3,0x1f
   134f2:	00db7db3          	and	s11,s6,a3
   134f6:	bdf9                	j	133d4 <_vfprintf_r+0x18a6>
   134f8:	686d                	lui	a6,0x1b
   134fa:	55c1                	li	a1,-16
   134fc:	40a00ab3          	neg	s5,a0
   13500:	d7880813          	addi	a6,a6,-648 # 1ad78 <zeroes.0>
   13504:	04b55563          	bge	a0,a1,1354e <_vfprintf_r+0x1a20>
   13508:	ce4a                	sw	s2,28(sp)
   1350a:	4b41                	li	s6,16
   1350c:	4c1d                	li	s8,7
   1350e:	8942                	mv	s2,a6
   13510:	a021                	j	13518 <_vfprintf_r+0x19ea>
   13512:	1ac1                	addi	s5,s5,-16 # 3ffdfff0 <__BSS_END__+0x3ffc3324>
   13514:	035b5b63          	bge	s6,s5,1354a <_vfprintf_r+0x1a1c>
   13518:	0641                	addi	a2,a2,16
   1351a:	0705                	addi	a4,a4,1
   1351c:	01242023          	sw	s2,0(s0)
   13520:	01642223          	sw	s6,4(s0)
   13524:	c7b2                	sw	a2,204(sp)
   13526:	c5ba                	sw	a4,200(sp)
   13528:	0421                	addi	s0,s0,8
   1352a:	feec54e3          	bge	s8,a4,13512 <_vfprintf_r+0x19e4>
   1352e:	4522                	lw	a0,8(sp)
   13530:	01d0                	addi	a2,sp,196
   13532:	85a6                	mv	a1,s1
   13534:	2ccd                	jal	13826 <__sprint_r>
   13536:	c119                	beqz	a0,1353c <_vfprintf_r+0x1a0e>
   13538:	842ff06f          	j	1257a <_vfprintf_r+0xa4c>
   1353c:	463e                	lw	a2,204(sp)
   1353e:	472e                	lw	a4,200(sp)
   13540:	844e                	mv	s0,s3
   13542:	bfc1                	j	13512 <_vfprintf_r+0x19e4>
   13544:	8ee6                	mv	t4,s9
   13546:	ca5fe06f          	j	121ea <_vfprintf_r+0x6bc>
   1354a:	884a                	mv	a6,s2
   1354c:	4972                	lw	s2,28(sp)
   1354e:	9656                	add	a2,a2,s5
   13550:	0705                	addi	a4,a4,1
   13552:	01042023          	sw	a6,0(s0)
   13556:	01542223          	sw	s5,4(s0)
   1355a:	c7b2                	sw	a2,204(sp)
   1355c:	c5ba                	sw	a4,200(sp)
   1355e:	459d                	li	a1,7
   13560:	f8e5d563          	bge	a1,a4,12cea <_vfprintf_r+0x11bc>
   13564:	4522                	lw	a0,8(sp)
   13566:	01d0                	addi	a2,sp,196
   13568:	85a6                	mv	a1,s1
   1356a:	2c75                	jal	13826 <__sprint_r>
   1356c:	c119                	beqz	a0,13572 <_vfprintf_r+0x1a44>
   1356e:	80cff06f          	j	1257a <_vfprintf_r+0xa4c>
   13572:	463e                	lw	a2,204(sp)
   13574:	472e                	lw	a4,200(sp)
   13576:	844e                	mv	s0,s3
   13578:	833ff06f          	j	12daa <_vfprintf_r+0x127c>
   1357c:	0b610693          	addi	a3,sp,182
   13580:	e619                	bnez	a2,1358e <_vfprintf_r+0x1a60>
   13582:	03000693          	li	a3,48
   13586:	0ad10b23          	sb	a3,182(sp)
   1358a:	0b710693          	addi	a3,sp,183
   1358e:	0b1c                	addi	a5,sp,400
   13590:	40f68633          	sub	a2,a3,a5
   13594:	03070713          	addi	a4,a4,48
   13598:	0dd60793          	addi	a5,a2,221
   1359c:	00e68023          	sb	a4,0(a3)
   135a0:	c0be                	sw	a5,64(sp)
   135a2:	d8eff06f          	j	12b30 <_vfprintf_r+0x1002>
   135a6:	c802                	sw	zero,16(sp)
   135a8:	4a99                	li	s5,6
   135aa:	9ebfe06f          	j	11f94 <_vfprintf_r+0x466>
   135ae:	001cf713          	andi	a4,s9,1
   135b2:	d8070863          	beqz	a4,12b42 <_vfprintf_r+0x1014>
   135b6:	d88ff06f          	j	12b3e <_vfprintf_r+0x1010>
   135ba:	06700893          	li	a7,103
   135be:	5672                	lw	a2,60(sp)
   135c0:	0ff00693          	li	a3,255
   135c4:	00064703          	lbu	a4,0(a2)
   135c8:	0ed70163          	beq	a4,a3,136aa <_vfprintf_r+0x1b7c>
   135cc:	47f2                	lw	a5,28(sp)
   135ce:	4501                	li	a0,0
   135d0:	4581                	li	a1,0
   135d2:	00f75a63          	bge	a4,a5,135e6 <_vfprintf_r+0x1ab8>
   135d6:	8f99                	sub	a5,a5,a4
   135d8:	00164703          	lbu	a4,1(a2)
   135dc:	c71d                	beqz	a4,1360a <_vfprintf_r+0x1adc>
   135de:	0585                	addi	a1,a1,1
   135e0:	0605                	addi	a2,a2,1
   135e2:	fed718e3          	bne	a4,a3,135d2 <_vfprintf_r+0x1aa4>
   135e6:	de32                	sw	a2,60(sp)
   135e8:	d22e                	sw	a1,36(sp)
   135ea:	d42a                	sw	a0,40(sp)
   135ec:	ce3e                	sw	a5,28(sp)
   135ee:	57a2                	lw	a5,40(sp)
   135f0:	5712                	lw	a4,36(sp)
   135f2:	973e                	add	a4,a4,a5
   135f4:	47a6                	lw	a5,72(sp)
   135f6:	02f70733          	mul	a4,a4,a5
   135fa:	9b3a                	add	s6,s6,a4
   135fc:	fffb4693          	not	a3,s6
   13600:	86fd                	srai	a3,a3,0x1f
   13602:	00db7db3          	and	s11,s6,a3
   13606:	d56ff06f          	j	12b5c <_vfprintf_r+0x102e>
   1360a:	00064703          	lbu	a4,0(a2)
   1360e:	0505                	addi	a0,a0,1
   13610:	bfc9                	j	135e2 <_vfprintf_r+0x1ab4>
   13612:	8c4a                	mv	s8,s2
   13614:	001a8693          	addi	a3,s5,1
   13618:	5892                	lw	a7,36(sp)
   1361a:	5ca2                	lw	s9,40(sp)
   1361c:	4b86                	lw	s7,64(sp)
   1361e:	4436                	lw	s0,76(sp)
   13620:	5902                	lw	s2,32(sp)
   13622:	44c6                	lw	s1,80(sp)
   13624:	4d56                	lw	s10,84(sp)
   13626:	96e2                	add	a3,a3,s8
   13628:	03000613          	li	a2,48
   1362c:	d20ac5e3          	bltz	s5,13356 <_vfprintf_r+0x1828>
   13630:	0c05                	addi	s8,s8,1
   13632:	fecc0fa3          	sb	a2,-1(s8)
   13636:	ff869de3          	bne	a3,s8,13630 <_vfprintf_r+0x1b02>
   1363a:	bb31                	j	13356 <_vfprintf_r+0x1828>
   1363c:	5732                	lw	a4,44(sp)
   1363e:	06600893          	li	a7,102
   13642:	00ea8f33          	add	t5,s5,a4
   13646:	00ff0b33          	add	s6,t5,a5
   1364a:	bd95                	j	134be <_vfprintf_r+0x1990>
   1364c:	676d                	lui	a4,0x1b
   1364e:	a8470793          	addi	a5,a4,-1404 # 1aa84 <__clzsi2+0xea>
   13652:	ce3e                	sw	a5,28(sp)
   13654:	b67d                	j	13202 <_vfprintf_r+0x16d4>
   13656:	4505                	li	a0,1
   13658:	40d506b3          	sub	a3,a0,a3
   1365c:	d736                	sw	a3,172(sp)
   1365e:	9736                	add	a4,a4,a3
   13660:	b495                	j	130c4 <_vfprintf_r+0x1596>
   13662:	e711                	bnez	a4,1366e <_vfprintf_r+0x1b40>
   13664:	4d85                	li	s11,1
   13666:	06600893          	li	a7,102
   1366a:	4b05                	li	s6,1
   1366c:	b3a5                	j	133d4 <_vfprintf_r+0x18a6>
   1366e:	57b2                	lw	a5,44(sp)
   13670:	06600893          	li	a7,102
   13674:	00178f13          	addi	t5,a5,1
   13678:	015f0b33          	add	s6,t5,s5
   1367c:	fffb4693          	not	a3,s6
   13680:	86fd                	srai	a3,a3,0x1f
   13682:	00db7db3          	and	s11,s6,a3
   13686:	b3b9                	j	133d4 <_vfprintf_r+0x18a6>
   13688:	4789                	li	a5,2
   1368a:	c0be                	sw	a5,64(sp)
   1368c:	ca4ff06f          	j	12b30 <_vfprintf_r+0x1002>
   13690:	47d2                	lw	a5,20(sp)
   13692:	0007aa83          	lw	s5,0(a5)
   13696:	0791                	addi	a5,a5,4
   13698:	000ad363          	bgez	s5,1369e <_vfprintf_r+0x1b70>
   1369c:	5afd                	li	s5,-1
   1369e:	00194883          	lbu	a7,1(s2)
   136a2:	ca3e                	sw	a5,20(sp)
   136a4:	8936                	mv	s2,a3
   136a6:	daafe06f          	j	11c50 <_vfprintf_r+0x122>
   136aa:	d402                	sw	zero,40(sp)
   136ac:	d202                	sw	zero,36(sp)
   136ae:	b781                	j	135ee <_vfprintf_r+0x1ac0>
   136b0:	04500613          	li	a2,69
   136b4:	010c                	addi	a1,sp,128
   136b6:	b439                	j	130c4 <_vfprintf_r+0x1596>
   136b8:	00c4d783          	lhu	a5,12(s1)
   136bc:	0407e793          	ori	a5,a5,64
   136c0:	00f49623          	sh	a5,12(s1)
   136c4:	eb6fe06f          	j	11d7a <_vfprintf_r+0x24c>

000136c8 <vfprintf>:
   136c8:	87aa                	mv	a5,a0
   136ca:	f241a503          	lw	a0,-220(gp) # 1c99c <_impure_ptr>
   136ce:	86b2                	mv	a3,a2
   136d0:	862e                	mv	a2,a1
   136d2:	85be                	mv	a1,a5
   136d4:	c5afe06f          	j	11b2e <_vfprintf_r>

000136d8 <__sbprintf>:
   136d8:	b8010113          	addi	sp,sp,-1152
   136dc:	00c59783          	lh	a5,12(a1)
   136e0:	00e5d703          	lhu	a4,14(a1)
   136e4:	46812c23          	sw	s0,1144(sp)
   136e8:	842e                	mv	s0,a1
   136ea:	65c1                	lui	a1,0x10
   136ec:	15f5                	addi	a1,a1,-3 # fffd <exit-0x97>
   136ee:	06442e03          	lw	t3,100(s0)
   136f2:	01c42303          	lw	t1,28(s0)
   136f6:	02442883          	lw	a7,36(s0)
   136fa:	0742                	slli	a4,a4,0x10
   136fc:	8fed                	and	a5,a5,a1
   136fe:	8fd9                	or	a5,a5,a4
   13700:	40000813          	li	a6,1024
   13704:	ca3e                	sw	a5,20(sp)
   13706:	002c                	addi	a1,sp,8
   13708:	189c                	addi	a5,sp,112
   1370a:	46912a23          	sw	s1,1140(sp)
   1370e:	47212823          	sw	s2,1136(sp)
   13712:	46112e23          	sw	ra,1148(sp)
   13716:	892a                	mv	s2,a0
   13718:	d6f2                	sw	t3,108(sp)
   1371a:	d21a                	sw	t1,36(sp)
   1371c:	d646                	sw	a7,44(sp)
   1371e:	c43e                	sw	a5,8(sp)
   13720:	cc3e                	sw	a5,24(sp)
   13722:	c842                	sw	a6,16(sp)
   13724:	ce42                	sw	a6,28(sp)
   13726:	d002                	sw	zero,32(sp)
   13728:	c06fe0ef          	jal	11b2e <_vfprintf_r>
   1372c:	84aa                	mv	s1,a0
   1372e:	02055963          	bgez	a0,13760 <__sbprintf+0x88>
   13732:	01415783          	lhu	a5,20(sp)
   13736:	0407f793          	andi	a5,a5,64
   1373a:	c799                	beqz	a5,13748 <__sbprintf+0x70>
   1373c:	00c45783          	lhu	a5,12(s0)
   13740:	0407e793          	ori	a5,a5,64
   13744:	00f41623          	sh	a5,12(s0)
   13748:	47c12083          	lw	ra,1148(sp)
   1374c:	47812403          	lw	s0,1144(sp)
   13750:	47012903          	lw	s2,1136(sp)
   13754:	8526                	mv	a0,s1
   13756:	47412483          	lw	s1,1140(sp)
   1375a:	48010113          	addi	sp,sp,1152
   1375e:	8082                	ret
   13760:	002c                	addi	a1,sp,8
   13762:	854a                	mv	a0,s2
   13764:	156010ef          	jal	148ba <_fflush_r>
   13768:	d569                	beqz	a0,13732 <__sbprintf+0x5a>
   1376a:	54fd                	li	s1,-1
   1376c:	b7d9                	j	13732 <__sbprintf+0x5a>

0001376e <__sprint_r.part.0>:
   1376e:	51fc                	lw	a5,100(a1)
   13770:	7179                	addi	sp,sp,-48
   13772:	c85a                	sw	s6,16(sp)
   13774:	d606                	sw	ra,44(sp)
   13776:	01279713          	slli	a4,a5,0x12
   1377a:	8b32                	mv	s6,a2
   1377c:	08075b63          	bgez	a4,13812 <__sprint_r.part.0+0xa4>
   13780:	461c                	lw	a5,8(a2)
   13782:	d04a                	sw	s2,32(sp)
   13784:	ce4e                	sw	s3,28(sp)
   13786:	ca56                	sw	s5,20(sp)
   13788:	c65e                	sw	s7,12(sp)
   1378a:	892e                	mv	s2,a1
   1378c:	00062b83          	lw	s7,0(a2)
   13790:	89aa                	mv	s3,a0
   13792:	5afd                	li	s5,-1
   13794:	cbad                	beqz	a5,13806 <__sprint_r.part.0+0x98>
   13796:	d422                	sw	s0,40(sp)
   13798:	d226                	sw	s1,36(sp)
   1379a:	cc52                	sw	s4,24(sp)
   1379c:	c462                	sw	s8,8(sp)
   1379e:	004bac03          	lw	s8,4(s7)
   137a2:	000ba403          	lw	s0,0(s7)
   137a6:	002c5a13          	srli	s4,s8,0x2
   137aa:	040a0263          	beqz	s4,137ee <__sprint_r.part.0+0x80>
   137ae:	4481                	li	s1,0
   137b0:	a021                	j	137b8 <__sprint_r.part.0+0x4a>
   137b2:	0411                	addi	s0,s0,4
   137b4:	029a0b63          	beq	s4,s1,137ea <__sprint_r.part.0+0x7c>
   137b8:	400c                	lw	a1,0(s0)
   137ba:	864a                	mv	a2,s2
   137bc:	854e                	mv	a0,s3
   137be:	015010ef          	jal	14fd2 <_fputwc_r>
   137c2:	0485                	addi	s1,s1,1
   137c4:	ff5517e3          	bne	a0,s5,137b2 <__sprint_r.part.0+0x44>
   137c8:	5422                	lw	s0,40(sp)
   137ca:	5492                	lw	s1,36(sp)
   137cc:	5902                	lw	s2,32(sp)
   137ce:	49f2                	lw	s3,28(sp)
   137d0:	4a62                	lw	s4,24(sp)
   137d2:	4ad2                	lw	s5,20(sp)
   137d4:	4bb2                	lw	s7,12(sp)
   137d6:	4c22                	lw	s8,8(sp)
   137d8:	557d                	li	a0,-1
   137da:	50b2                	lw	ra,44(sp)
   137dc:	000b2423          	sw	zero,8(s6)
   137e0:	000b2223          	sw	zero,4(s6)
   137e4:	4b42                	lw	s6,16(sp)
   137e6:	6145                	addi	sp,sp,48
   137e8:	8082                	ret
   137ea:	008b2783          	lw	a5,8(s6)
   137ee:	ffcc7c13          	andi	s8,s8,-4
   137f2:	418787b3          	sub	a5,a5,s8
   137f6:	00fb2423          	sw	a5,8(s6)
   137fa:	0ba1                	addi	s7,s7,8
   137fc:	f3cd                	bnez	a5,1379e <__sprint_r.part.0+0x30>
   137fe:	5422                	lw	s0,40(sp)
   13800:	5492                	lw	s1,36(sp)
   13802:	4a62                	lw	s4,24(sp)
   13804:	4c22                	lw	s8,8(sp)
   13806:	5902                	lw	s2,32(sp)
   13808:	49f2                	lw	s3,28(sp)
   1380a:	4ad2                	lw	s5,20(sp)
   1380c:	4bb2                	lw	s7,12(sp)
   1380e:	4501                	li	a0,0
   13810:	b7e9                	j	137da <__sprint_r.part.0+0x6c>
   13812:	12a010ef          	jal	1493c <__sfvwrite_r>
   13816:	50b2                	lw	ra,44(sp)
   13818:	000b2423          	sw	zero,8(s6)
   1381c:	000b2223          	sw	zero,4(s6)
   13820:	4b42                	lw	s6,16(sp)
   13822:	6145                	addi	sp,sp,48
   13824:	8082                	ret

00013826 <__sprint_r>:
   13826:	4618                	lw	a4,8(a2)
   13828:	c311                	beqz	a4,1382c <__sprint_r+0x6>
   1382a:	b791                	j	1376e <__sprint_r.part.0>
   1382c:	00062223          	sw	zero,4(a2)
   13830:	4501                	li	a0,0
   13832:	8082                	ret

00013834 <_vfiprintf_r>:
   13834:	7169                	addi	sp,sp,-304
   13836:	11312e23          	sw	s3,284(sp)
   1383a:	11612823          	sw	s6,272(sp)
   1383e:	11712623          	sw	s7,268(sp)
   13842:	11812423          	sw	s8,264(sp)
   13846:	12112623          	sw	ra,300(sp)
   1384a:	11a12023          	sw	s10,256(sp)
   1384e:	8c2a                	mv	s8,a0
   13850:	8b2e                	mv	s6,a1
   13852:	89b2                	mv	s3,a2
   13854:	8bb6                	mv	s7,a3
   13856:	c501                	beqz	a0,1385e <_vfiprintf_r+0x2a>
   13858:	595c                	lw	a5,52(a0)
   1385a:	480787e3          	beqz	a5,144e8 <_vfiprintf_r+0xcb4>
   1385e:	00cb1783          	lh	a5,12(s6)
   13862:	01279713          	slli	a4,a5,0x12
   13866:	00074f63          	bltz	a4,13884 <_vfiprintf_r+0x50>
   1386a:	064b2703          	lw	a4,100(s6)
   1386e:	6609                	lui	a2,0x2
   13870:	76f9                	lui	a3,0xffffe
   13872:	8fd1                	or	a5,a5,a2
   13874:	16fd                	addi	a3,a3,-1 # ffffdfff <__BSS_END__+0xfffe1333>
   13876:	07c2                	slli	a5,a5,0x10
   13878:	87c1                	srai	a5,a5,0x10
   1387a:	8f75                	and	a4,a4,a3
   1387c:	00fb1623          	sh	a5,12(s6)
   13880:	06eb2223          	sw	a4,100(s6)
   13884:	0087f713          	andi	a4,a5,8
   13888:	cf61                	beqz	a4,13960 <_vfiprintf_r+0x12c>
   1388a:	010b2703          	lw	a4,16(s6)
   1388e:	cb69                	beqz	a4,13960 <_vfiprintf_r+0x12c>
   13890:	8be9                	andi	a5,a5,26
   13892:	4729                	li	a4,10
   13894:	0ee78263          	beq	a5,a4,13978 <_vfiprintf_r+0x144>
   13898:	67ed                	lui	a5,0x1b
   1389a:	4d01                	li	s10,0
   1389c:	11512a23          	sw	s5,276(sp)
   138a0:	11912223          	sw	s9,260(sp)
   138a4:	04c10a93          	addi	s5,sp,76
   138a8:	d9878793          	addi	a5,a5,-616 # 1ad98 <blanks.1+0x10>
   138ac:	6ced                	lui	s9,0x1b
   138ae:	12812423          	sw	s0,296(sp)
   138b2:	13212023          	sw	s2,288(sp)
   138b6:	11412c23          	sw	s4,280(sp)
   138ba:	896a                	mv	s2,s10
   138bc:	12912223          	sw	s1,292(sp)
   138c0:	dfee                	sw	s11,252(sp)
   138c2:	c0d6                	sw	s5,64(sp)
   138c4:	c482                	sw	zero,72(sp)
   138c6:	c282                	sw	zero,68(sp)
   138c8:	8456                	mv	s0,s5
   138ca:	c202                	sw	zero,4(sp)
   138cc:	ca02                	sw	zero,20(sp)
   138ce:	cc02                	sw	zero,24(sp)
   138d0:	ce02                	sw	zero,28(sp)
   138d2:	c03e                	sw	a5,0(sp)
   138d4:	4a41                	li	s4,16
   138d6:	f04c8c93          	addi	s9,s9,-252 # 1af04 <zeroes.0>
   138da:	8d5e                	mv	s10,s7
   138dc:	0009c783          	lbu	a5,0(s3)
   138e0:	22078d63          	beqz	a5,13b1a <_vfiprintf_r+0x2e6>
   138e4:	84ce                	mv	s1,s3
   138e6:	02500713          	li	a4,37
   138ea:	2ae78863          	beq	a5,a4,13b9a <_vfiprintf_r+0x366>
   138ee:	0014c783          	lbu	a5,1(s1)
   138f2:	0485                	addi	s1,s1,1
   138f4:	fbfd                	bnez	a5,138ea <_vfiprintf_r+0xb6>
   138f6:	41348bb3          	sub	s7,s1,s3
   138fa:	23348063          	beq	s1,s3,13b1a <_vfiprintf_r+0x2e6>
   138fe:	4726                	lw	a4,72(sp)
   13900:	4796                	lw	a5,68(sp)
   13902:	01342023          	sw	s3,0(s0)
   13906:	975e                	add	a4,a4,s7
   13908:	0785                	addi	a5,a5,1
   1390a:	01742223          	sw	s7,4(s0)
   1390e:	c4ba                	sw	a4,72(sp)
   13910:	c2be                	sw	a5,68(sp)
   13912:	469d                	li	a3,7
   13914:	0421                	addi	s0,s0,8
   13916:	00f6da63          	bge	a3,a5,1392a <_vfiprintf_r+0xf6>
   1391a:	100705e3          	beqz	a4,14224 <_vfiprintf_r+0x9f0>
   1391e:	0090                	addi	a2,sp,64
   13920:	85da                	mv	a1,s6
   13922:	8562                	mv	a0,s8
   13924:	35a9                	jal	1376e <__sprint_r.part.0>
   13926:	e551                	bnez	a0,139b2 <_vfiprintf_r+0x17e>
   13928:	8456                	mv	s0,s5
   1392a:	0004c783          	lbu	a5,0(s1)
   1392e:	995e                	add	s2,s2,s7
   13930:	1e078563          	beqz	a5,13b1a <_vfiprintf_r+0x2e6>
   13934:	0014c783          	lbu	a5,1(s1)
   13938:	00148993          	addi	s3,s1,1
   1393c:	02010da3          	sb	zero,59(sp)
   13940:	5dfd                	li	s11,-1
   13942:	4b81                	li	s7,0
   13944:	4881                	li	a7,0
   13946:	05a00493          	li	s1,90
   1394a:	0985                	addi	s3,s3,1
   1394c:	86be                	mv	a3,a5
   1394e:	fe068713          	addi	a4,a3,-32
   13952:	0ce4e763          	bltu	s1,a4,13a20 <_vfiprintf_r+0x1ec>
   13956:	4782                	lw	a5,0(sp)
   13958:	070a                	slli	a4,a4,0x2
   1395a:	973e                	add	a4,a4,a5
   1395c:	431c                	lw	a5,0(a4)
   1395e:	8782                	jr	a5
   13960:	85da                	mv	a1,s6
   13962:	8562                	mv	a0,s8
   13964:	4f4010ef          	jal	14e58 <__swsetup_r>
   13968:	440513e3          	bnez	a0,145ae <_vfiprintf_r+0xd7a>
   1396c:	00cb1783          	lh	a5,12(s6)
   13970:	4729                	li	a4,10
   13972:	8be9                	andi	a5,a5,26
   13974:	f2e792e3          	bne	a5,a4,13898 <_vfiprintf_r+0x64>
   13978:	00eb1783          	lh	a5,14(s6)
   1397c:	f007cee3          	bltz	a5,13898 <_vfiprintf_r+0x64>
   13980:	12c12083          	lw	ra,300(sp)
   13984:	10012d03          	lw	s10,256(sp)
   13988:	86de                	mv	a3,s7
   1398a:	864e                	mv	a2,s3
   1398c:	10c12b83          	lw	s7,268(sp)
   13990:	11c12983          	lw	s3,284(sp)
   13994:	85da                	mv	a1,s6
   13996:	8562                	mv	a0,s8
   13998:	11012b03          	lw	s6,272(sp)
   1399c:	10812c03          	lw	s8,264(sp)
   139a0:	6155                	addi	sp,sp,304
   139a2:	4430006f          	j	145e4 <__sbprintf>
   139a6:	0090                	addi	a2,sp,64
   139a8:	85da                	mv	a1,s6
   139aa:	8562                	mv	a0,s8
   139ac:	33c9                	jal	1376e <__sprint_r.part.0>
   139ae:	16050063          	beqz	a0,13b0e <_vfiprintf_r+0x2da>
   139b2:	8d4a                	mv	s10,s2
   139b4:	00cb5783          	lhu	a5,12(s6)
   139b8:	12812403          	lw	s0,296(sp)
   139bc:	12412483          	lw	s1,292(sp)
   139c0:	0407f793          	andi	a5,a5,64
   139c4:	12012903          	lw	s2,288(sp)
   139c8:	11812a03          	lw	s4,280(sp)
   139cc:	11412a83          	lw	s5,276(sp)
   139d0:	10412c83          	lw	s9,260(sp)
   139d4:	5dfe                	lw	s11,252(sp)
   139d6:	3c079ce3          	bnez	a5,145ae <_vfiprintf_r+0xd7a>
   139da:	12c12083          	lw	ra,300(sp)
   139de:	11c12983          	lw	s3,284(sp)
   139e2:	11012b03          	lw	s6,272(sp)
   139e6:	10c12b83          	lw	s7,268(sp)
   139ea:	10812c03          	lw	s8,264(sp)
   139ee:	856a                	mv	a0,s10
   139f0:	10012d03          	lw	s10,256(sp)
   139f4:	6155                	addi	sp,sp,304
   139f6:	8082                	ret
   139f8:	4b81                	li	s7,0
   139fa:	fd068793          	addi	a5,a3,-48
   139fe:	4625                	li	a2,9
   13a00:	0009c683          	lbu	a3,0(s3)
   13a04:	002b9713          	slli	a4,s7,0x2
   13a08:	9bba                	add	s7,s7,a4
   13a0a:	0b86                	slli	s7,s7,0x1
   13a0c:	9bbe                	add	s7,s7,a5
   13a0e:	fd068793          	addi	a5,a3,-48
   13a12:	0985                	addi	s3,s3,1
   13a14:	fef676e3          	bgeu	a2,a5,13a00 <_vfiprintf_r+0x1cc>
   13a18:	fe068713          	addi	a4,a3,-32
   13a1c:	f2e4fde3          	bgeu	s1,a4,13956 <_vfiprintf_r+0x122>
   13a20:	0e068d63          	beqz	a3,13b1a <_vfiprintf_r+0x2e6>
   13a24:	08d10623          	sb	a3,140(sp)
   13a28:	02010da3          	sb	zero,59(sp)
   13a2c:	4305                	li	t1,1
   13a2e:	4e85                	li	t4,1
   13a30:	0164                	addi	s1,sp,140
   13a32:	4d81                	li	s11,0
   13a34:	4f81                	li	t6,0
   13a36:	4716                	lw	a4,68(sp)
   13a38:	0848f293          	andi	t0,a7,132
   13a3c:	47a6                	lw	a5,72(sp)
   13a3e:	00170613          	addi	a2,a4,1
   13a42:	85b2                	mv	a1,a2
   13a44:	00029663          	bnez	t0,13a50 <_vfiprintf_r+0x21c>
   13a48:	406b86b3          	sub	a3,s7,t1
   13a4c:	70d04363          	bgtz	a3,14152 <_vfiprintf_r+0x91e>
   13a50:	03b14683          	lbu	a3,59(sp)
   13a54:	ce99                	beqz	a3,13a72 <_vfiprintf_r+0x23e>
   13a56:	03b10713          	addi	a4,sp,59
   13a5a:	0785                	addi	a5,a5,1
   13a5c:	c018                	sw	a4,0(s0)
   13a5e:	4705                	li	a4,1
   13a60:	c058                	sw	a4,4(s0)
   13a62:	c4be                	sw	a5,72(sp)
   13a64:	c2ae                	sw	a1,68(sp)
   13a66:	471d                	li	a4,7
   13a68:	66b74363          	blt	a4,a1,140ce <_vfiprintf_r+0x89a>
   13a6c:	872e                	mv	a4,a1
   13a6e:	0421                	addi	s0,s0,8
   13a70:	0585                	addi	a1,a1,1
   13a72:	040f8163          	beqz	t6,13ab4 <_vfiprintf_r+0x280>
   13a76:	1878                	addi	a4,sp,60
   13a78:	0789                	addi	a5,a5,2
   13a7a:	c018                	sw	a4,0(s0)
   13a7c:	4709                	li	a4,2
   13a7e:	c058                	sw	a4,4(s0)
   13a80:	c4be                	sw	a5,72(sp)
   13a82:	c2ae                	sw	a1,68(sp)
   13a84:	471d                	li	a4,7
   13a86:	68b75463          	bge	a4,a1,1410e <_vfiprintf_r+0x8da>
   13a8a:	7e078263          	beqz	a5,1426e <_vfiprintf_r+0xa3a>
   13a8e:	0090                	addi	a2,sp,64
   13a90:	85da                	mv	a1,s6
   13a92:	8562                	mv	a0,s8
   13a94:	d01a                	sw	t1,32(sp)
   13a96:	c876                	sw	t4,16(sp)
   13a98:	c616                	sw	t0,12(sp)
   13a9a:	c446                	sw	a7,8(sp)
   13a9c:	cd3ff0ef          	jal	1376e <__sprint_r.part.0>
   13aa0:	f909                	bnez	a0,139b2 <_vfiprintf_r+0x17e>
   13aa2:	4716                	lw	a4,68(sp)
   13aa4:	47a6                	lw	a5,72(sp)
   13aa6:	5302                	lw	t1,32(sp)
   13aa8:	4ec2                	lw	t4,16(sp)
   13aaa:	42b2                	lw	t0,12(sp)
   13aac:	48a2                	lw	a7,8(sp)
   13aae:	8456                	mv	s0,s5
   13ab0:	00170593          	addi	a1,a4,1
   13ab4:	08000693          	li	a3,128
   13ab8:	4ad28f63          	beq	t0,a3,13f76 <_vfiprintf_r+0x742>
   13abc:	41dd8db3          	sub	s11,s11,t4
   13ac0:	57b04c63          	bgtz	s11,14038 <_vfiprintf_r+0x804>
   13ac4:	97f6                	add	a5,a5,t4
   13ac6:	c004                	sw	s1,0(s0)
   13ac8:	01d42223          	sw	t4,4(s0)
   13acc:	c4be                	sw	a5,72(sp)
   13ace:	c2ae                	sw	a1,68(sp)
   13ad0:	471d                	li	a4,7
   13ad2:	48b75c63          	bge	a4,a1,13f6a <_vfiprintf_r+0x736>
   13ad6:	cbe9                	beqz	a5,13ba8 <_vfiprintf_r+0x374>
   13ad8:	0090                	addi	a2,sp,64
   13ada:	85da                	mv	a1,s6
   13adc:	8562                	mv	a0,s8
   13ade:	c61a                	sw	t1,12(sp)
   13ae0:	c446                	sw	a7,8(sp)
   13ae2:	c8dff0ef          	jal	1376e <__sprint_r.part.0>
   13ae6:	ec0516e3          	bnez	a0,139b2 <_vfiprintf_r+0x17e>
   13aea:	47a6                	lw	a5,72(sp)
   13aec:	4332                	lw	t1,12(sp)
   13aee:	48a2                	lw	a7,8(sp)
   13af0:	8456                	mv	s0,s5
   13af2:	0048f893          	andi	a7,a7,4
   13af6:	00088663          	beqz	a7,13b02 <_vfiprintf_r+0x2ce>
   13afa:	406b84b3          	sub	s1,s7,t1
   13afe:	0a904f63          	bgtz	s1,13bbc <_vfiprintf_r+0x388>
   13b02:	006bd363          	bge	s7,t1,13b08 <_vfiprintf_r+0x2d4>
   13b06:	8b9a                	mv	s7,t1
   13b08:	995e                	add	s2,s2,s7
   13b0a:	e8079ee3          	bnez	a5,139a6 <_vfiprintf_r+0x172>
   13b0e:	0009c783          	lbu	a5,0(s3)
   13b12:	c282                	sw	zero,68(sp)
   13b14:	8456                	mv	s0,s5
   13b16:	dc0797e3          	bnez	a5,138e4 <_vfiprintf_r+0xb0>
   13b1a:	47a6                	lw	a5,72(sp)
   13b1c:	8d4a                	mv	s10,s2
   13b1e:	e8078be3          	beqz	a5,139b4 <_vfiprintf_r+0x180>
   13b22:	0090                	addi	a2,sp,64
   13b24:	85da                	mv	a1,s6
   13b26:	8562                	mv	a0,s8
   13b28:	c47ff0ef          	jal	1376e <__sprint_r.part.0>
   13b2c:	b561                	j	139b4 <_vfiprintf_r+0x180>
   13b2e:	000d2b83          	lw	s7,0(s10)
   13b32:	0d11                	addi	s10,s10,4
   13b34:	1e0bc863          	bltz	s7,13d24 <_vfiprintf_r+0x4f0>
   13b38:	0009c783          	lbu	a5,0(s3)
   13b3c:	b539                	j	1394a <_vfiprintf_r+0x116>
   13b3e:	0009c783          	lbu	a5,0(s3)
   13b42:	0208e893          	ori	a7,a7,32
   13b46:	b511                	j	1394a <_vfiprintf_r+0x116>
   13b48:	0108e893          	ori	a7,a7,16
   13b4c:	0208f793          	andi	a5,a7,32
   13b50:	0e078f63          	beqz	a5,13c4e <_vfiprintf_r+0x41a>
   13b54:	0d1d                	addi	s10,s10,7
   13b56:	ff8d7d13          	andi	s10,s10,-8
   13b5a:	004d2703          	lw	a4,4(s10)
   13b5e:	000d2783          	lw	a5,0(s10)
   13b62:	0d21                	addi	s10,s10,8
   13b64:	833a                	mv	t1,a4
   13b66:	10074463          	bltz	a4,13c6e <_vfiprintf_r+0x43a>
   13b6a:	120dc263          	bltz	s11,13c8e <_vfiprintf_r+0x45a>
   13b6e:	0067e733          	or	a4,a5,t1
   13b72:	f7f8f893          	andi	a7,a7,-129
   13b76:	10071c63          	bnez	a4,13c8e <_vfiprintf_r+0x45a>
   13b7a:	200d9ae3          	bnez	s11,1458e <_vfiprintf_r+0xd5a>
   13b7e:	03b14783          	lbu	a5,59(sp)
   13b82:	4301                	li	t1,0
   13b84:	4e81                	li	t4,0
   13b86:	1984                	addi	s1,sp,240
   13b88:	c391                	beqz	a5,13b8c <_vfiprintf_r+0x358>
   13b8a:	0305                	addi	t1,t1,1
   13b8c:	0028ff93          	andi	t6,a7,2
   13b90:	ea0f83e3          	beqz	t6,13a36 <_vfiprintf_r+0x202>
   13b94:	0309                	addi	t1,t1,2
   13b96:	4f89                	li	t6,2
   13b98:	bd79                	j	13a36 <_vfiprintf_r+0x202>
   13b9a:	41348bb3          	sub	s7,s1,s3
   13b9e:	d73490e3          	bne	s1,s3,138fe <_vfiprintf_r+0xca>
   13ba2:	0004c783          	lbu	a5,0(s1)
   13ba6:	b369                	j	13930 <_vfiprintf_r+0xfc>
   13ba8:	c282                	sw	zero,68(sp)
   13baa:	0048f893          	andi	a7,a7,4
   13bae:	64088263          	beqz	a7,141f2 <_vfiprintf_r+0x9be>
   13bb2:	406b84b3          	sub	s1,s7,t1
   13bb6:	62905e63          	blez	s1,141f2 <_vfiprintf_r+0x9be>
   13bba:	8456                	mv	s0,s5
   13bbc:	4741                	li	a4,16
   13bbe:	4696                	lw	a3,68(sp)
   13bc0:	1e9750e3          	bge	a4,s1,145a0 <_vfiprintf_r+0xd6c>
   13bc4:	6e6d                	lui	t3,0x1b
   13bc6:	f14e0e13          	addi	t3,t3,-236 # 1af14 <blanks.1>
   13bca:	85a2                	mv	a1,s0
   13bcc:	4dc1                	li	s11,16
   13bce:	489d                	li	a7,7
   13bd0:	c41a                	sw	t1,8(sp)
   13bd2:	8472                	mv	s0,t3
   13bd4:	a801                	j	13be4 <_vfiprintf_r+0x3b0>
   13bd6:	00268613          	addi	a2,a3,2
   13bda:	05a1                	addi	a1,a1,8
   13bdc:	86ba                	mv	a3,a4
   13bde:	14c1                	addi	s1,s1,-16
   13be0:	029dde63          	bge	s11,s1,13c1c <_vfiprintf_r+0x3e8>
   13be4:	07c1                	addi	a5,a5,16
   13be6:	00168713          	addi	a4,a3,1
   13bea:	c180                	sw	s0,0(a1)
   13bec:	01b5a223          	sw	s11,4(a1)
   13bf0:	c4be                	sw	a5,72(sp)
   13bf2:	c2ba                	sw	a4,68(sp)
   13bf4:	fee8d1e3          	bge	a7,a4,13bd6 <_vfiprintf_r+0x3a2>
   13bf8:	36078b63          	beqz	a5,13f6e <_vfiprintf_r+0x73a>
   13bfc:	0090                	addi	a2,sp,64
   13bfe:	85da                	mv	a1,s6
   13c00:	8562                	mv	a0,s8
   13c02:	b6dff0ef          	jal	1376e <__sprint_r.part.0>
   13c06:	da0516e3          	bnez	a0,139b2 <_vfiprintf_r+0x17e>
   13c0a:	4696                	lw	a3,68(sp)
   13c0c:	14c1                	addi	s1,s1,-16
   13c0e:	47a6                	lw	a5,72(sp)
   13c10:	85d6                	mv	a1,s5
   13c12:	00168613          	addi	a2,a3,1
   13c16:	489d                	li	a7,7
   13c18:	fc9dc6e3          	blt	s11,s1,13be4 <_vfiprintf_r+0x3b0>
   13c1c:	4322                	lw	t1,8(sp)
   13c1e:	8e22                	mv	t3,s0
   13c20:	842e                	mv	s0,a1
   13c22:	97a6                	add	a5,a5,s1
   13c24:	01c42023          	sw	t3,0(s0)
   13c28:	c044                	sw	s1,4(s0)
   13c2a:	c4be                	sw	a5,72(sp)
   13c2c:	c2b2                	sw	a2,68(sp)
   13c2e:	471d                	li	a4,7
   13c30:	ecc759e3          	bge	a4,a2,13b02 <_vfiprintf_r+0x2ce>
   13c34:	5a078f63          	beqz	a5,141f2 <_vfiprintf_r+0x9be>
   13c38:	0090                	addi	a2,sp,64
   13c3a:	85da                	mv	a1,s6
   13c3c:	8562                	mv	a0,s8
   13c3e:	c41a                	sw	t1,8(sp)
   13c40:	b2fff0ef          	jal	1376e <__sprint_r.part.0>
   13c44:	d60517e3          	bnez	a0,139b2 <_vfiprintf_r+0x17e>
   13c48:	47a6                	lw	a5,72(sp)
   13c4a:	4322                	lw	t1,8(sp)
   13c4c:	bd5d                	j	13b02 <_vfiprintf_r+0x2ce>
   13c4e:	0108f713          	andi	a4,a7,16
   13c52:	000d2783          	lw	a5,0(s10)
   13c56:	0d11                	addi	s10,s10,4
   13c58:	e371                	bnez	a4,13d1c <_vfiprintf_r+0x4e8>
   13c5a:	0408f713          	andi	a4,a7,64
   13c5e:	cb5d                	beqz	a4,13d14 <_vfiprintf_r+0x4e0>
   13c60:	07c2                	slli	a5,a5,0x10
   13c62:	87c1                	srai	a5,a5,0x10
   13c64:	41f7d313          	srai	t1,a5,0x1f
   13c68:	871a                	mv	a4,t1
   13c6a:	f00750e3          	bgez	a4,13b6a <_vfiprintf_r+0x336>
   13c6e:	02d00693          	li	a3,45
   13c72:	00f03733          	snez	a4,a5
   13c76:	40600333          	neg	t1,t1
   13c7a:	02d10da3          	sb	a3,59(sp)
   13c7e:	40e30333          	sub	t1,t1,a4
   13c82:	40f007b3          	neg	a5,a5
   13c86:	000dc463          	bltz	s11,13c8e <_vfiprintf_r+0x45a>
   13c8a:	f7f8f893          	andi	a7,a7,-129
   13c8e:	60031f63          	bnez	t1,142ac <_vfiprintf_r+0xa78>
   13c92:	4725                	li	a4,9
   13c94:	60f76c63          	bltu	a4,a5,142ac <_vfiprintf_r+0xa78>
   13c98:	03078793          	addi	a5,a5,48
   13c9c:	0ff7f793          	zext.b	a5,a5
   13ca0:	0ef107a3          	sb	a5,239(sp)
   13ca4:	836e                	mv	t1,s11
   13ca6:	01b04363          	bgtz	s11,13cac <_vfiprintf_r+0x478>
   13caa:	4305                	li	t1,1
   13cac:	4e85                	li	t4,1
   13cae:	0ef10493          	addi	s1,sp,239
   13cb2:	03b14783          	lbu	a5,59(sp)
   13cb6:	ec079ae3          	bnez	a5,13b8a <_vfiprintf_r+0x356>
   13cba:	bdc9                	j	13b8c <_vfiprintf_r+0x358>
   13cbc:	000d2483          	lw	s1,0(s10)
   13cc0:	02010da3          	sb	zero,59(sp)
   13cc4:	0d11                	addi	s10,s10,4
   13cc6:	04048ae3          	beqz	s1,1451a <_vfiprintf_r+0xce6>
   13cca:	c446                	sw	a7,8(sp)
   13ccc:	740dcd63          	bltz	s11,14426 <_vfiprintf_r+0xbf2>
   13cd0:	866e                	mv	a2,s11
   13cd2:	4581                	li	a1,0
   13cd4:	8526                	mv	a0,s1
   13cd6:	364010ef          	jal	1503a <memchr>
   13cda:	48a2                	lw	a7,8(sp)
   13cdc:	8eee                	mv	t4,s11
   13cde:	c119                	beqz	a0,13ce4 <_vfiprintf_r+0x4b0>
   13ce0:	40950eb3          	sub	t4,a0,s1
   13ce4:	03b14783          	lbu	a5,59(sp)
   13ce8:	fffec313          	not	t1,t4
   13cec:	41f35313          	srai	t1,t1,0x1f
   13cf0:	006ef333          	and	t1,t4,t1
   13cf4:	4d81                	li	s11,0
   13cf6:	4f81                	li	t6,0
   13cf8:	e80799e3          	bnez	a5,13b8a <_vfiprintf_r+0x356>
   13cfc:	bb2d                	j	13a36 <_vfiprintf_r+0x202>
   13cfe:	000d2783          	lw	a5,0(s10)
   13d02:	02010da3          	sb	zero,59(sp)
   13d06:	0d11                	addi	s10,s10,4
   13d08:	08f10623          	sb	a5,140(sp)
   13d0c:	4305                	li	t1,1
   13d0e:	4e85                	li	t4,1
   13d10:	0164                	addi	s1,sp,140
   13d12:	b305                	j	13a32 <_vfiprintf_r+0x1fe>
   13d14:	2008f713          	andi	a4,a7,512
   13d18:	04071ce3          	bnez	a4,14570 <_vfiprintf_r+0xd3c>
   13d1c:	41f7d313          	srai	t1,a5,0x1f
   13d20:	871a                	mv	a4,t1
   13d22:	b591                	j	13b66 <_vfiprintf_r+0x332>
   13d24:	41700bb3          	neg	s7,s7
   13d28:	0009c783          	lbu	a5,0(s3)
   13d2c:	0048e893          	ori	a7,a7,4
   13d30:	b929                	j	1394a <_vfiprintf_r+0x116>
   13d32:	02b00713          	li	a4,43
   13d36:	0009c783          	lbu	a5,0(s3)
   13d3a:	02e10da3          	sb	a4,59(sp)
   13d3e:	b131                	j	1394a <_vfiprintf_r+0x116>
   13d40:	0009c783          	lbu	a5,0(s3)
   13d44:	0808e893          	ori	a7,a7,128
   13d48:	b109                	j	1394a <_vfiprintf_r+0x116>
   13d4a:	0009c683          	lbu	a3,0(s3)
   13d4e:	02a00793          	li	a5,42
   13d52:	00198613          	addi	a2,s3,1
   13d56:	06f684e3          	beq	a3,a5,145be <_vfiprintf_r+0xd8a>
   13d5a:	fd068793          	addi	a5,a3,-48
   13d5e:	4725                	li	a4,9
   13d60:	4d81                	li	s11,0
   13d62:	45a5                	li	a1,9
   13d64:	02f76063          	bltu	a4,a5,13d84 <_vfiprintf_r+0x550>
   13d68:	00064683          	lbu	a3,0(a2) # 2000 <exit-0xe094>
   13d6c:	002d9713          	slli	a4,s11,0x2
   13d70:	9dba                	add	s11,s11,a4
   13d72:	0d86                	slli	s11,s11,0x1
   13d74:	9dbe                	add	s11,s11,a5
   13d76:	fd068793          	addi	a5,a3,-48
   13d7a:	0605                	addi	a2,a2,1
   13d7c:	fef5f6e3          	bgeu	a1,a5,13d68 <_vfiprintf_r+0x534>
   13d80:	620dc763          	bltz	s11,143ae <_vfiprintf_r+0xb7a>
   13d84:	89b2                	mv	s3,a2
   13d86:	b6e1                	j	1394e <_vfiprintf_r+0x11a>
   13d88:	8562                	mv	a0,s8
   13d8a:	c446                	sw	a7,8(sp)
   13d8c:	452010ef          	jal	151de <_localeconv_r>
   13d90:	415c                	lw	a5,4(a0)
   13d92:	853e                	mv	a0,a5
   13d94:	ce3e                	sw	a5,28(sp)
   13d96:	96ffd0ef          	jal	11704 <strlen>
   13d9a:	87aa                	mv	a5,a0
   13d9c:	8562                	mv	a0,s8
   13d9e:	cc3e                	sw	a5,24(sp)
   13da0:	43e010ef          	jal	151de <_localeconv_r>
   13da4:	4518                	lw	a4,8(a0)
   13da6:	47e2                	lw	a5,24(sp)
   13da8:	48a2                	lw	a7,8(sp)
   13daa:	ca3a                	sw	a4,20(sp)
   13dac:	d80786e3          	beqz	a5,13b38 <_vfiprintf_r+0x304>
   13db0:	4752                	lw	a4,20(sp)
   13db2:	0009c783          	lbu	a5,0(s3)
   13db6:	b8070ae3          	beqz	a4,1394a <_vfiprintf_r+0x116>
   13dba:	00074703          	lbu	a4,0(a4)
   13dbe:	b80706e3          	beqz	a4,1394a <_vfiprintf_r+0x116>
   13dc2:	4008e893          	ori	a7,a7,1024
   13dc6:	b651                	j	1394a <_vfiprintf_r+0x116>
   13dc8:	0009c783          	lbu	a5,0(s3)
   13dcc:	0018e893          	ori	a7,a7,1
   13dd0:	bead                	j	1394a <_vfiprintf_r+0x116>
   13dd2:	03b14703          	lbu	a4,59(sp)
   13dd6:	0009c783          	lbu	a5,0(s3)
   13dda:	b60718e3          	bnez	a4,1394a <_vfiprintf_r+0x116>
   13dde:	02000713          	li	a4,32
   13de2:	02e10da3          	sb	a4,59(sp)
   13de6:	b695                	j	1394a <_vfiprintf_r+0x116>
   13de8:	0108e713          	ori	a4,a7,16
   13dec:	02077793          	andi	a5,a4,32
   13df0:	44078c63          	beqz	a5,14248 <_vfiprintf_r+0xa14>
   13df4:	0d1d                	addi	s10,s10,7
   13df6:	ff8d7d13          	andi	s10,s10,-8
   13dfa:	000d2783          	lw	a5,0(s10)
   13dfe:	004d2603          	lw	a2,4(s10)
   13e02:	0d21                	addi	s10,s10,8
   13e04:	02010da3          	sb	zero,59(sp)
   13e08:	bff77893          	andi	a7,a4,-1025
   13e0c:	0a0dc163          	bltz	s11,13eae <_vfiprintf_r+0x67a>
   13e10:	00c7e6b3          	or	a3,a5,a2
   13e14:	b7f77713          	andi	a4,a4,-1153
   13e18:	6c069363          	bnez	a3,144de <_vfiprintf_r+0xcaa>
   13e1c:	8ec6                	mv	t4,a7
   13e1e:	4781                	li	a5,0
   13e20:	88ba                	mv	a7,a4
   13e22:	060d9e63          	bnez	s11,13e9e <_vfiprintf_r+0x66a>
   13e26:	d4079ce3          	bnez	a5,13b7e <_vfiprintf_r+0x34a>
   13e2a:	001efe93          	andi	t4,t4,1
   13e2e:	540e8563          	beqz	t4,14378 <_vfiprintf_r+0xb44>
   13e32:	03000793          	li	a5,48
   13e36:	0ef107a3          	sb	a5,239(sp)
   13e3a:	8376                	mv	t1,t4
   13e3c:	0ef10493          	addi	s1,sp,239
   13e40:	bd8d                	j	13cb2 <_vfiprintf_r+0x47e>
   13e42:	0009c783          	lbu	a5,0(s3)
   13e46:	06c00713          	li	a4,108
   13e4a:	6ae78a63          	beq	a5,a4,144fe <_vfiprintf_r+0xcca>
   13e4e:	0108e893          	ori	a7,a7,16
   13e52:	bce5                	j	1394a <_vfiprintf_r+0x116>
   13e54:	0009c783          	lbu	a5,0(s3)
   13e58:	06800713          	li	a4,104
   13e5c:	68e78a63          	beq	a5,a4,144f0 <_vfiprintf_r+0xcbc>
   13e60:	0408e893          	ori	a7,a7,64
   13e64:	b4dd                	j	1394a <_vfiprintf_r+0x116>
   13e66:	0108ee93          	ori	t4,a7,16
   13e6a:	020ef793          	andi	a5,t4,32
   13e6e:	3a078f63          	beqz	a5,1422c <_vfiprintf_r+0x9f8>
   13e72:	0d1d                	addi	s10,s10,7
   13e74:	ff8d7d13          	andi	s10,s10,-8
   13e78:	000d2783          	lw	a5,0(s10)
   13e7c:	004d2303          	lw	t1,4(s10)
   13e80:	0d21                	addi	s10,s10,8
   13e82:	02010da3          	sb	zero,59(sp)
   13e86:	88f6                	mv	a7,t4
   13e88:	e00dc3e3          	bltz	s11,13c8e <_vfiprintf_r+0x45a>
   13e8c:	0067e733          	or	a4,a5,t1
   13e90:	f7fef893          	andi	a7,t4,-129
   13e94:	de071de3          	bnez	a4,13c8e <_vfiprintf_r+0x45a>
   13e98:	4785                	li	a5,1
   13e9a:	f80d86e3          	beqz	s11,13e26 <_vfiprintf_r+0x5f2>
   13e9e:	4705                	li	a4,1
   13ea0:	6ee78763          	beq	a5,a4,1458e <_vfiprintf_r+0xd5a>
   13ea4:	4709                	li	a4,2
   13ea6:	68e78c63          	beq	a5,a4,1453e <_vfiprintf_r+0xd0a>
   13eaa:	4781                	li	a5,0
   13eac:	4601                	li	a2,0
   13eae:	1984                	addi	s1,sp,240
   13eb0:	01d61693          	slli	a3,a2,0x1d
   13eb4:	0077f713          	andi	a4,a5,7
   13eb8:	838d                	srli	a5,a5,0x3
   13eba:	03070713          	addi	a4,a4,48
   13ebe:	8fd5                	or	a5,a5,a3
   13ec0:	820d                	srli	a2,a2,0x3
   13ec2:	fee48fa3          	sb	a4,-1(s1)
   13ec6:	00c7e6b3          	or	a3,a5,a2
   13eca:	85a6                	mv	a1,s1
   13ecc:	14fd                	addi	s1,s1,-1
   13ece:	f2ed                	bnez	a3,13eb0 <_vfiprintf_r+0x67c>
   13ed0:	0018f793          	andi	a5,a7,1
   13ed4:	26078763          	beqz	a5,14142 <_vfiprintf_r+0x90e>
   13ed8:	03000793          	li	a5,48
   13edc:	26f70363          	beq	a4,a5,14142 <_vfiprintf_r+0x90e>
   13ee0:	15f9                	addi	a1,a1,-2
   13ee2:	fef48fa3          	sb	a5,-1(s1)
   13ee6:	199c                	addi	a5,sp,240
   13ee8:	40b78eb3          	sub	t4,a5,a1
   13eec:	836e                	mv	t1,s11
   13eee:	4bddcd63          	blt	s11,t4,143a8 <_vfiprintf_r+0xb74>
   13ef2:	84ae                	mv	s1,a1
   13ef4:	bb7d                	j	13cb2 <_vfiprintf_r+0x47e>
   13ef6:	6721                	lui	a4,0x8
   13ef8:	83070713          	addi	a4,a4,-2000 # 7830 <exit-0x8864>
   13efc:	02e11e23          	sh	a4,60(sp)
   13f00:	676d                	lui	a4,0x1b
   13f02:	a8470713          	addi	a4,a4,-1404 # 1aa84 <__clzsi2+0xea>
   13f06:	000d2783          	lw	a5,0(s10)
   13f0a:	4601                	li	a2,0
   13f0c:	0028e893          	ori	a7,a7,2
   13f10:	0d11                	addi	s10,s10,4
   13f12:	c23a                	sw	a4,4(sp)
   13f14:	02010da3          	sb	zero,59(sp)
   13f18:	200dc363          	bltz	s11,1411e <_vfiprintf_r+0x8ea>
   13f1c:	00c7e733          	or	a4,a5,a2
   13f20:	f7f8f693          	andi	a3,a7,-129
   13f24:	1e071963          	bnez	a4,14116 <_vfiprintf_r+0x8e2>
   13f28:	8ec6                	mv	t4,a7
   13f2a:	4789                	li	a5,2
   13f2c:	88b6                	mv	a7,a3
   13f2e:	bdd5                	j	13e22 <_vfiprintf_r+0x5ee>
   13f30:	0208f793          	andi	a5,a7,32
   13f34:	44079b63          	bnez	a5,1438a <_vfiprintf_r+0xb56>
   13f38:	0108f793          	andi	a5,a7,16
   13f3c:	5c079863          	bnez	a5,1450c <_vfiprintf_r+0xcd8>
   13f40:	0408f793          	andi	a5,a7,64
   13f44:	60079f63          	bnez	a5,14562 <_vfiprintf_r+0xd2e>
   13f48:	2008f893          	andi	a7,a7,512
   13f4c:	5c088063          	beqz	a7,1450c <_vfiprintf_r+0xcd8>
   13f50:	000d2783          	lw	a5,0(s10)
   13f54:	0d11                	addi	s10,s10,4
   13f56:	01278023          	sb	s2,0(a5)
   13f5a:	b249                	j	138dc <_vfiprintf_r+0xa8>
   13f5c:	4705                	li	a4,1
   13f5e:	87f6                	mv	a5,t4
   13f60:	c6a6                	sw	s1,76(sp)
   13f62:	c8f6                	sw	t4,80(sp)
   13f64:	c4f6                	sw	t4,72(sp)
   13f66:	c2ba                	sw	a4,68(sp)
   13f68:	8456                	mv	s0,s5
   13f6a:	0421                	addi	s0,s0,8
   13f6c:	b659                	j	13af2 <_vfiprintf_r+0x2be>
   13f6e:	4605                	li	a2,1
   13f70:	4681                	li	a3,0
   13f72:	85d6                	mv	a1,s5
   13f74:	b1ad                	j	13bde <_vfiprintf_r+0x3aa>
   13f76:	406b8e33          	sub	t3,s7,t1
   13f7a:	b5c051e3          	blez	t3,13abc <_vfiprintf_r+0x288>
   13f7e:	46c1                	li	a3,16
   13f80:	63c6da63          	bge	a3,t3,145b4 <_vfiprintf_r+0xd80>
   13f84:	6f6d                	lui	t5,0x1b
   13f86:	f04f0f13          	addi	t5,t5,-252 # 1af04 <zeroes.0>
   13f8a:	c826                	sw	s1,16(sp)
   13f8c:	85a2                	mv	a1,s0
   13f8e:	4fc1                	li	t6,16
   13f90:	429d                	li	t0,7
   13f92:	c446                	sw	a7,8(sp)
   13f94:	c676                	sw	t4,12(sp)
   13f96:	d01a                	sw	t1,32(sp)
   13f98:	8472                	mv	s0,t3
   13f9a:	84fa                	mv	s1,t5
   13f9c:	a801                	j	13fac <_vfiprintf_r+0x778>
   13f9e:	00270613          	addi	a2,a4,2
   13fa2:	05a1                	addi	a1,a1,8
   13fa4:	8736                	mv	a4,a3
   13fa6:	1441                	addi	s0,s0,-16
   13fa8:	028fdf63          	bge	t6,s0,13fe6 <_vfiprintf_r+0x7b2>
   13fac:	07c1                	addi	a5,a5,16
   13fae:	00170693          	addi	a3,a4,1
   13fb2:	c184                	sw	s1,0(a1)
   13fb4:	01f5a223          	sw	t6,4(a1)
   13fb8:	c4be                	sw	a5,72(sp)
   13fba:	c2b6                	sw	a3,68(sp)
   13fbc:	fed2d1e3          	bge	t0,a3,13f9e <_vfiprintf_r+0x76a>
   13fc0:	10078363          	beqz	a5,140c6 <_vfiprintf_r+0x892>
   13fc4:	0090                	addi	a2,sp,64
   13fc6:	85da                	mv	a1,s6
   13fc8:	8562                	mv	a0,s8
   13fca:	fa4ff0ef          	jal	1376e <__sprint_r.part.0>
   13fce:	9e0512e3          	bnez	a0,139b2 <_vfiprintf_r+0x17e>
   13fd2:	4716                	lw	a4,68(sp)
   13fd4:	4fc1                	li	t6,16
   13fd6:	1441                	addi	s0,s0,-16
   13fd8:	47a6                	lw	a5,72(sp)
   13fda:	85d6                	mv	a1,s5
   13fdc:	00170613          	addi	a2,a4,1
   13fe0:	429d                	li	t0,7
   13fe2:	fc8fc5e3          	blt	t6,s0,13fac <_vfiprintf_r+0x778>
   13fe6:	8f26                	mv	t5,s1
   13fe8:	48a2                	lw	a7,8(sp)
   13fea:	4eb2                	lw	t4,12(sp)
   13fec:	5302                	lw	t1,32(sp)
   13fee:	44c2                	lw	s1,16(sp)
   13ff0:	8e22                	mv	t3,s0
   13ff2:	842e                	mv	s0,a1
   13ff4:	97f2                	add	a5,a5,t3
   13ff6:	01e42023          	sw	t5,0(s0)
   13ffa:	01c42223          	sw	t3,4(s0)
   13ffe:	c4be                	sw	a5,72(sp)
   14000:	c2b2                	sw	a2,68(sp)
   14002:	471d                	li	a4,7
   14004:	36c75d63          	bge	a4,a2,1437e <_vfiprintf_r+0xb4a>
   14008:	52078e63          	beqz	a5,14544 <_vfiprintf_r+0xd10>
   1400c:	0090                	addi	a2,sp,64
   1400e:	85da                	mv	a1,s6
   14010:	8562                	mv	a0,s8
   14012:	c81a                	sw	t1,16(sp)
   14014:	c676                	sw	t4,12(sp)
   14016:	c446                	sw	a7,8(sp)
   14018:	f56ff0ef          	jal	1376e <__sprint_r.part.0>
   1401c:	98051be3          	bnez	a0,139b2 <_vfiprintf_r+0x17e>
   14020:	4eb2                	lw	t4,12(sp)
   14022:	4716                	lw	a4,68(sp)
   14024:	47a6                	lw	a5,72(sp)
   14026:	41dd8db3          	sub	s11,s11,t4
   1402a:	4342                	lw	t1,16(sp)
   1402c:	48a2                	lw	a7,8(sp)
   1402e:	8456                	mv	s0,s5
   14030:	00170593          	addi	a1,a4,1
   14034:	a9b058e3          	blez	s11,13ac4 <_vfiprintf_r+0x290>
   14038:	6f6d                	lui	t5,0x1b
   1403a:	f04f0f13          	addi	t5,t5,-252 # 1af04 <zeroes.0>
   1403e:	07ba5363          	bge	s4,s11,140a4 <_vfiprintf_r+0x870>
   14042:	8622                	mv	a2,s0
   14044:	4e1d                	li	t3,7
   14046:	846e                	mv	s0,s11
   14048:	c446                	sw	a7,8(sp)
   1404a:	c676                	sw	t4,12(sp)
   1404c:	c81a                	sw	t1,16(sp)
   1404e:	8de6                	mv	s11,s9
   14050:	a801                	j	14060 <_vfiprintf_r+0x82c>
   14052:	00270593          	addi	a1,a4,2
   14056:	0621                	addi	a2,a2,8
   14058:	8736                	mv	a4,a3
   1405a:	1441                	addi	s0,s0,-16
   1405c:	028a5e63          	bge	s4,s0,14098 <_vfiprintf_r+0x864>
   14060:	07c1                	addi	a5,a5,16
   14062:	00170693          	addi	a3,a4,1
   14066:	01962023          	sw	s9,0(a2)
   1406a:	01462223          	sw	s4,4(a2)
   1406e:	c4be                	sw	a5,72(sp)
   14070:	c2b6                	sw	a3,68(sp)
   14072:	fede50e3          	bge	t3,a3,14052 <_vfiprintf_r+0x81e>
   14076:	c7a1                	beqz	a5,140be <_vfiprintf_r+0x88a>
   14078:	0090                	addi	a2,sp,64
   1407a:	85da                	mv	a1,s6
   1407c:	8562                	mv	a0,s8
   1407e:	ef0ff0ef          	jal	1376e <__sprint_r.part.0>
   14082:	920518e3          	bnez	a0,139b2 <_vfiprintf_r+0x17e>
   14086:	4716                	lw	a4,68(sp)
   14088:	1441                	addi	s0,s0,-16
   1408a:	47a6                	lw	a5,72(sp)
   1408c:	8656                	mv	a2,s5
   1408e:	00170593          	addi	a1,a4,1
   14092:	4e1d                	li	t3,7
   14094:	fc8a46e3          	blt	s4,s0,14060 <_vfiprintf_r+0x82c>
   14098:	48a2                	lw	a7,8(sp)
   1409a:	4eb2                	lw	t4,12(sp)
   1409c:	4342                	lw	t1,16(sp)
   1409e:	8f6e                	mv	t5,s11
   140a0:	8da2                	mv	s11,s0
   140a2:	8432                	mv	s0,a2
   140a4:	97ee                	add	a5,a5,s11
   140a6:	01e42023          	sw	t5,0(s0)
   140aa:	01b42223          	sw	s11,4(s0)
   140ae:	c4be                	sw	a5,72(sp)
   140b0:	c2ae                	sw	a1,68(sp)
   140b2:	471d                	li	a4,7
   140b4:	14b74463          	blt	a4,a1,141fc <_vfiprintf_r+0x9c8>
   140b8:	0421                	addi	s0,s0,8
   140ba:	0585                	addi	a1,a1,1
   140bc:	b421                	j	13ac4 <_vfiprintf_r+0x290>
   140be:	4585                	li	a1,1
   140c0:	4701                	li	a4,0
   140c2:	8656                	mv	a2,s5
   140c4:	bf59                	j	1405a <_vfiprintf_r+0x826>
   140c6:	4605                	li	a2,1
   140c8:	4701                	li	a4,0
   140ca:	85d6                	mv	a1,s5
   140cc:	bde9                	j	13fa6 <_vfiprintf_r+0x772>
   140ce:	cb85                	beqz	a5,140fe <_vfiprintf_r+0x8ca>
   140d0:	0090                	addi	a2,sp,64
   140d2:	85da                	mv	a1,s6
   140d4:	8562                	mv	a0,s8
   140d6:	d21a                	sw	t1,36(sp)
   140d8:	d076                	sw	t4,32(sp)
   140da:	c816                	sw	t0,16(sp)
   140dc:	c67e                	sw	t6,12(sp)
   140de:	c446                	sw	a7,8(sp)
   140e0:	e8eff0ef          	jal	1376e <__sprint_r.part.0>
   140e4:	8c0517e3          	bnez	a0,139b2 <_vfiprintf_r+0x17e>
   140e8:	4716                	lw	a4,68(sp)
   140ea:	47a6                	lw	a5,72(sp)
   140ec:	5312                	lw	t1,36(sp)
   140ee:	5e82                	lw	t4,32(sp)
   140f0:	42c2                	lw	t0,16(sp)
   140f2:	4fb2                	lw	t6,12(sp)
   140f4:	48a2                	lw	a7,8(sp)
   140f6:	8456                	mv	s0,s5
   140f8:	00170593          	addi	a1,a4,1
   140fc:	ba9d                	j	13a72 <_vfiprintf_r+0x23e>
   140fe:	2a0f8063          	beqz	t6,1439e <_vfiprintf_r+0xb6a>
   14102:	187c                	addi	a5,sp,60
   14104:	c6be                	sw	a5,76(sp)
   14106:	4789                	li	a5,2
   14108:	c8be                	sw	a5,80(sp)
   1410a:	4585                	li	a1,1
   1410c:	8456                	mv	s0,s5
   1410e:	872e                	mv	a4,a1
   14110:	0421                	addi	s0,s0,8
   14112:	0585                	addi	a1,a1,1
   14114:	b245                	j	13ab4 <_vfiprintf_r+0x280>
   14116:	4709                	li	a4,2
   14118:	88b6                	mv	a7,a3
   1411a:	d8070ae3          	beqz	a4,13eae <_vfiprintf_r+0x67a>
   1411e:	4592                	lw	a1,4(sp)
   14120:	1984                	addi	s1,sp,240
   14122:	00f7f713          	andi	a4,a5,15
   14126:	972e                	add	a4,a4,a1
   14128:	00074683          	lbu	a3,0(a4)
   1412c:	8391                	srli	a5,a5,0x4
   1412e:	01c61713          	slli	a4,a2,0x1c
   14132:	8fd9                	or	a5,a5,a4
   14134:	8211                	srli	a2,a2,0x4
   14136:	fed48fa3          	sb	a3,-1(s1)
   1413a:	00c7e733          	or	a4,a5,a2
   1413e:	14fd                	addi	s1,s1,-1
   14140:	f36d                	bnez	a4,14122 <_vfiprintf_r+0x8ee>
   14142:	199c                	addi	a5,sp,240
   14144:	40978eb3          	sub	t4,a5,s1
   14148:	836e                	mv	t1,s11
   1414a:	b7ddd4e3          	bge	s11,t4,13cb2 <_vfiprintf_r+0x47e>
   1414e:	8376                	mv	t1,t4
   14150:	b68d                	j	13cb2 <_vfiprintf_r+0x47e>
   14152:	45c1                	li	a1,16
   14154:	44d5d163          	bge	a1,a3,14596 <_vfiprintf_r+0xd62>
   14158:	6e6d                	lui	t3,0x1b
   1415a:	f14e0e13          	addi	t3,t3,-236 # 1af14 <blanks.1>
   1415e:	d226                	sw	s1,36(sp)
   14160:	85a2                	mv	a1,s0
   14162:	4f41                	li	t5,16
   14164:	439d                	li	t2,7
   14166:	c446                	sw	a7,8(sp)
   14168:	c67e                	sw	t6,12(sp)
   1416a:	c816                	sw	t0,16(sp)
   1416c:	d076                	sw	t4,32(sp)
   1416e:	d41a                	sw	t1,40(sp)
   14170:	8436                	mv	s0,a3
   14172:	84f2                	mv	s1,t3
   14174:	a811                	j	14188 <_vfiprintf_r+0x954>
   14176:	00270513          	addi	a0,a4,2
   1417a:	05a1                	addi	a1,a1,8
   1417c:	8732                	mv	a4,a2
   1417e:	1441                	addi	s0,s0,-16
   14180:	028f5e63          	bge	t5,s0,141bc <_vfiprintf_r+0x988>
   14184:	00170613          	addi	a2,a4,1
   14188:	07c1                	addi	a5,a5,16
   1418a:	c184                	sw	s1,0(a1)
   1418c:	01e5a223          	sw	t5,4(a1)
   14190:	c4be                	sw	a5,72(sp)
   14192:	c2b2                	sw	a2,68(sp)
   14194:	fec3d1e3          	bge	t2,a2,14176 <_vfiprintf_r+0x942>
   14198:	cba9                	beqz	a5,141ea <_vfiprintf_r+0x9b6>
   1419a:	0090                	addi	a2,sp,64
   1419c:	85da                	mv	a1,s6
   1419e:	8562                	mv	a0,s8
   141a0:	dceff0ef          	jal	1376e <__sprint_r.part.0>
   141a4:	800517e3          	bnez	a0,139b2 <_vfiprintf_r+0x17e>
   141a8:	4716                	lw	a4,68(sp)
   141aa:	4f41                	li	t5,16
   141ac:	1441                	addi	s0,s0,-16
   141ae:	47a6                	lw	a5,72(sp)
   141b0:	85d6                	mv	a1,s5
   141b2:	00170513          	addi	a0,a4,1
   141b6:	439d                	li	t2,7
   141b8:	fc8f46e3          	blt	t5,s0,14184 <_vfiprintf_r+0x950>
   141bc:	8e26                	mv	t3,s1
   141be:	48a2                	lw	a7,8(sp)
   141c0:	4fb2                	lw	t6,12(sp)
   141c2:	42c2                	lw	t0,16(sp)
   141c4:	5e82                	lw	t4,32(sp)
   141c6:	5322                	lw	t1,40(sp)
   141c8:	5492                	lw	s1,36(sp)
   141ca:	86a2                	mv	a3,s0
   141cc:	842e                	mv	s0,a1
   141ce:	97b6                	add	a5,a5,a3
   141d0:	01c42023          	sw	t3,0(s0)
   141d4:	c054                	sw	a3,4(s0)
   141d6:	c4be                	sw	a5,72(sp)
   141d8:	c2aa                	sw	a0,68(sp)
   141da:	471d                	li	a4,7
   141dc:	08a74e63          	blt	a4,a0,14278 <_vfiprintf_r+0xa44>
   141e0:	0421                	addi	s0,s0,8
   141e2:	00150593          	addi	a1,a0,1
   141e6:	872a                	mv	a4,a0
   141e8:	b0a5                	j	13a50 <_vfiprintf_r+0x21c>
   141ea:	4701                	li	a4,0
   141ec:	4505                	li	a0,1
   141ee:	85d6                	mv	a1,s5
   141f0:	b779                	j	1417e <_vfiprintf_r+0x94a>
   141f2:	006bd363          	bge	s7,t1,141f8 <_vfiprintf_r+0x9c4>
   141f6:	8b9a                	mv	s7,t1
   141f8:	995e                	add	s2,s2,s7
   141fa:	ba11                	j	13b0e <_vfiprintf_r+0x2da>
   141fc:	d60780e3          	beqz	a5,13f5c <_vfiprintf_r+0x728>
   14200:	0090                	addi	a2,sp,64
   14202:	85da                	mv	a1,s6
   14204:	8562                	mv	a0,s8
   14206:	c81a                	sw	t1,16(sp)
   14208:	c676                	sw	t4,12(sp)
   1420a:	c446                	sw	a7,8(sp)
   1420c:	d62ff0ef          	jal	1376e <__sprint_r.part.0>
   14210:	fa051163          	bnez	a0,139b2 <_vfiprintf_r+0x17e>
   14214:	4596                	lw	a1,68(sp)
   14216:	47a6                	lw	a5,72(sp)
   14218:	4342                	lw	t1,16(sp)
   1421a:	4eb2                	lw	t4,12(sp)
   1421c:	48a2                	lw	a7,8(sp)
   1421e:	8456                	mv	s0,s5
   14220:	0585                	addi	a1,a1,1
   14222:	b04d                	j	13ac4 <_vfiprintf_r+0x290>
   14224:	c282                	sw	zero,68(sp)
   14226:	8456                	mv	s0,s5
   14228:	f02ff06f          	j	1392a <_vfiprintf_r+0xf6>
   1422c:	010ef713          	andi	a4,t4,16
   14230:	000d2783          	lw	a5,0(s10)
   14234:	0d11                	addi	s10,s10,4
   14236:	e719                	bnez	a4,14244 <_vfiprintf_r+0xa10>
   14238:	040ef713          	andi	a4,t4,64
   1423c:	2e070963          	beqz	a4,1452e <_vfiprintf_r+0xcfa>
   14240:	07c2                	slli	a5,a5,0x10
   14242:	83c1                	srli	a5,a5,0x10
   14244:	4301                	li	t1,0
   14246:	b935                	j	13e82 <_vfiprintf_r+0x64e>
   14248:	01077693          	andi	a3,a4,16
   1424c:	000d2783          	lw	a5,0(s10)
   14250:	0d11                	addi	s10,s10,4
   14252:	ee81                	bnez	a3,1426a <_vfiprintf_r+0xa36>
   14254:	04077693          	andi	a3,a4,64
   14258:	c689                	beqz	a3,14262 <_vfiprintf_r+0xa2e>
   1425a:	07c2                	slli	a5,a5,0x10
   1425c:	83c1                	srli	a5,a5,0x10
   1425e:	4601                	li	a2,0
   14260:	b655                	j	13e04 <_vfiprintf_r+0x5d0>
   14262:	20077693          	andi	a3,a4,512
   14266:	30069c63          	bnez	a3,1457e <_vfiprintf_r+0xd4a>
   1426a:	4601                	li	a2,0
   1426c:	be61                	j	13e04 <_vfiprintf_r+0x5d0>
   1426e:	4585                	li	a1,1
   14270:	4701                	li	a4,0
   14272:	8456                	mv	s0,s5
   14274:	841ff06f          	j	13ab4 <_vfiprintf_r+0x280>
   14278:	1a078d63          	beqz	a5,14432 <_vfiprintf_r+0xbfe>
   1427c:	0090                	addi	a2,sp,64
   1427e:	85da                	mv	a1,s6
   14280:	8562                	mv	a0,s8
   14282:	d21a                	sw	t1,36(sp)
   14284:	d076                	sw	t4,32(sp)
   14286:	c816                	sw	t0,16(sp)
   14288:	c67e                	sw	t6,12(sp)
   1428a:	c446                	sw	a7,8(sp)
   1428c:	ce2ff0ef          	jal	1376e <__sprint_r.part.0>
   14290:	f2051163          	bnez	a0,139b2 <_vfiprintf_r+0x17e>
   14294:	4716                	lw	a4,68(sp)
   14296:	47a6                	lw	a5,72(sp)
   14298:	5312                	lw	t1,36(sp)
   1429a:	5e82                	lw	t4,32(sp)
   1429c:	42c2                	lw	t0,16(sp)
   1429e:	4fb2                	lw	t6,12(sp)
   142a0:	48a2                	lw	a7,8(sp)
   142a2:	8456                	mv	s0,s5
   142a4:	00170593          	addi	a1,a4,1
   142a8:	fa8ff06f          	j	13a50 <_vfiprintf_r+0x21c>
   142ac:	ccccdfb7          	lui	t6,0xccccd
   142b0:	ccccd2b7          	lui	t0,0xccccd
   142b4:	4852                	lw	a6,20(sp)
   142b6:	4008fe93          	andi	t4,a7,1024
   142ba:	4601                	li	a2,0
   142bc:	198c                	addi	a1,sp,240
   142be:	4e15                	li	t3,5
   142c0:	ccdf8f93          	addi	t6,t6,-819 # cccccccd <__BSS_END__+0xcccb0001>
   142c4:	ccc28293          	addi	t0,t0,-820 # cccccccc <__BSS_END__+0xcccb0000>
   142c8:	0ff00f13          	li	t5,255
   142cc:	a081                	j	1430c <_vfiprintf_r+0xad8>
   142ce:	00f4b733          	sltu	a4,s1,a5
   142d2:	9726                	add	a4,a4,s1
   142d4:	03c77733          	remu	a4,a4,t3
   142d8:	40e78733          	sub	a4,a5,a4
   142dc:	00e7b5b3          	sltu	a1,a5,a4
   142e0:	40b305b3          	sub	a1,t1,a1
   142e4:	025703b3          	mul	t2,a4,t0
   142e8:	03f585b3          	mul	a1,a1,t6
   142ec:	03f73533          	mulhu	a0,a4,t6
   142f0:	959e                	add	a1,a1,t2
   142f2:	03f70733          	mul	a4,a4,t6
   142f6:	95aa                	add	a1,a1,a0
   142f8:	01f59513          	slli	a0,a1,0x1f
   142fc:	8185                	srli	a1,a1,0x1
   142fe:	8305                	srli	a4,a4,0x1
   14300:	8f49                	or	a4,a4,a0
   14302:	24030663          	beqz	t1,1454e <_vfiprintf_r+0xd1a>
   14306:	832e                	mv	t1,a1
   14308:	87ba                	mv	a5,a4
   1430a:	85b6                	mv	a1,a3
   1430c:	006784b3          	add	s1,a5,t1
   14310:	00f4b733          	sltu	a4,s1,a5
   14314:	9726                	add	a4,a4,s1
   14316:	03c77733          	remu	a4,a4,t3
   1431a:	fff58693          	addi	a3,a1,-1
   1431e:	0605                	addi	a2,a2,1
   14320:	40e78733          	sub	a4,a5,a4
   14324:	00e7b3b3          	sltu	t2,a5,a4
   14328:	407303b3          	sub	t2,t1,t2
   1432c:	03f73533          	mulhu	a0,a4,t6
   14330:	03f383b3          	mul	t2,t2,t6
   14334:	03f70733          	mul	a4,a4,t6
   14338:	93aa                	add	t2,t2,a0
   1433a:	03fe                	slli	t2,t2,0x1f
   1433c:	00175513          	srli	a0,a4,0x1
   14340:	00a3e533          	or	a0,t2,a0
   14344:	00251713          	slli	a4,a0,0x2
   14348:	972a                	add	a4,a4,a0
   1434a:	0706                	slli	a4,a4,0x1
   1434c:	40e78733          	sub	a4,a5,a4
   14350:	03070713          	addi	a4,a4,48
   14354:	fee58fa3          	sb	a4,-1(a1)
   14358:	f60e8be3          	beqz	t4,142ce <_vfiprintf_r+0xa9a>
   1435c:	00084703          	lbu	a4,0(a6)
   14360:	f6c717e3          	bne	a4,a2,142ce <_vfiprintf_r+0xa9a>
   14364:	f7e605e3          	beq	a2,t5,142ce <_vfiprintf_r+0xa9a>
   14368:	0e031263          	bnez	t1,1444c <_vfiprintf_r+0xc18>
   1436c:	4725                	li	a4,9
   1436e:	0cf76f63          	bltu	a4,a5,1444c <_vfiprintf_r+0xc18>
   14372:	ca42                	sw	a6,20(sp)
   14374:	84b6                	mv	s1,a3
   14376:	b3f1                	j	14142 <_vfiprintf_r+0x90e>
   14378:	4301                	li	t1,0
   1437a:	1984                	addi	s1,sp,240
   1437c:	ba1d                	j	13cb2 <_vfiprintf_r+0x47e>
   1437e:	0421                	addi	s0,s0,8
   14380:	00160593          	addi	a1,a2,1
   14384:	8732                	mv	a4,a2
   14386:	f36ff06f          	j	13abc <_vfiprintf_r+0x288>
   1438a:	000d2783          	lw	a5,0(s10)
   1438e:	41f95713          	srai	a4,s2,0x1f
   14392:	0d11                	addi	s10,s10,4
   14394:	0127a023          	sw	s2,0(a5)
   14398:	c3d8                	sw	a4,4(a5)
   1439a:	d42ff06f          	j	138dc <_vfiprintf_r+0xa8>
   1439e:	4701                	li	a4,0
   143a0:	4585                	li	a1,1
   143a2:	8456                	mv	s0,s5
   143a4:	f10ff06f          	j	13ab4 <_vfiprintf_r+0x280>
   143a8:	8376                	mv	t1,t4
   143aa:	84ae                	mv	s1,a1
   143ac:	b219                	j	13cb2 <_vfiprintf_r+0x47e>
   143ae:	5dfd                	li	s11,-1
   143b0:	89b2                	mv	s3,a2
   143b2:	d9cff06f          	j	1394e <_vfiprintf_r+0x11a>
   143b6:	8ec6                	mv	t4,a7
   143b8:	bc4d                	j	13e6a <_vfiprintf_r+0x636>
   143ba:	8746                	mv	a4,a7
   143bc:	bc05                	j	13dec <_vfiprintf_r+0x5b8>
   143be:	67ed                	lui	a5,0x1b
   143c0:	a9878793          	addi	a5,a5,-1384 # 1aa98 <__clzsi2+0xfe>
   143c4:	c23e                	sw	a5,4(sp)
   143c6:	0208f793          	andi	a5,a7,32
   143ca:	c3a9                	beqz	a5,1440c <_vfiprintf_r+0xbd8>
   143cc:	0d1d                	addi	s10,s10,7
   143ce:	ff8d7d13          	andi	s10,s10,-8
   143d2:	000d2783          	lw	a5,0(s10)
   143d6:	004d2603          	lw	a2,4(s10)
   143da:	0d21                	addi	s10,s10,8
   143dc:	0018f713          	andi	a4,a7,1
   143e0:	cf01                	beqz	a4,143f8 <_vfiprintf_r+0xbc4>
   143e2:	00c7e733          	or	a4,a5,a2
   143e6:	cb09                	beqz	a4,143f8 <_vfiprintf_r+0xbc4>
   143e8:	03000713          	li	a4,48
   143ec:	02e10e23          	sb	a4,60(sp)
   143f0:	02d10ea3          	sb	a3,61(sp)
   143f4:	0028e893          	ori	a7,a7,2
   143f8:	bff8f893          	andi	a7,a7,-1025
   143fc:	be21                	j	13f14 <_vfiprintf_r+0x6e0>
   143fe:	67ed                	lui	a5,0x1b
   14400:	a8478793          	addi	a5,a5,-1404 # 1aa84 <__clzsi2+0xea>
   14404:	c23e                	sw	a5,4(sp)
   14406:	0208f793          	andi	a5,a7,32
   1440a:	f3e9                	bnez	a5,143cc <_vfiprintf_r+0xb98>
   1440c:	0108f713          	andi	a4,a7,16
   14410:	000d2783          	lw	a5,0(s10)
   14414:	0d11                	addi	s10,s10,4
   14416:	e371                	bnez	a4,144da <_vfiprintf_r+0xca6>
   14418:	0408f713          	andi	a4,a7,64
   1441c:	cf45                	beqz	a4,144d4 <_vfiprintf_r+0xca0>
   1441e:	07c2                	slli	a5,a5,0x10
   14420:	83c1                	srli	a5,a5,0x10
   14422:	4601                	li	a2,0
   14424:	bf65                	j	143dc <_vfiprintf_r+0xba8>
   14426:	8526                	mv	a0,s1
   14428:	adcfd0ef          	jal	11704 <strlen>
   1442c:	48a2                	lw	a7,8(sp)
   1442e:	8eaa                	mv	t4,a0
   14430:	b855                	j	13ce4 <_vfiprintf_r+0x4b0>
   14432:	03b14703          	lbu	a4,59(sp)
   14436:	12070263          	beqz	a4,1455a <_vfiprintf_r+0xd26>
   1443a:	03b10793          	addi	a5,sp,59
   1443e:	c6be                	sw	a5,76(sp)
   14440:	4785                	li	a5,1
   14442:	c8be                	sw	a5,80(sp)
   14444:	4585                	li	a1,1
   14446:	8456                	mv	s0,s5
   14448:	e24ff06f          	j	13a6c <_vfiprintf_r+0x238>
   1444c:	d43e                	sw	a5,40(sp)
   1444e:	47e2                	lw	a5,24(sp)
   14450:	45f2                	lw	a1,28(sp)
   14452:	d61a                	sw	t1,44(sp)
   14454:	8e9d                	sub	a3,a3,a5
   14456:	863e                	mv	a2,a5
   14458:	8536                	mv	a0,a3
   1445a:	d216                	sw	t0,36(sp)
   1445c:	d07e                	sw	t6,32(sp)
   1445e:	ca76                	sw	t4,20(sp)
   14460:	c842                	sw	a6,16(sp)
   14462:	c646                	sw	a7,12(sp)
   14464:	c436                	sw	a3,8(sp)
   14466:	463000ef          	jal	150c8 <strncpy>
   1446a:	57a2                	lw	a5,40(sp)
   1446c:	4615                	li	a2,5
   1446e:	4842                	lw	a6,16(sp)
   14470:	00f4b733          	sltu	a4,s1,a5
   14474:	9726                	add	a4,a4,s1
   14476:	02c77733          	remu	a4,a4,a2
   1447a:	00184583          	lbu	a1,1(a6)
   1447e:	5332                	lw	t1,44(sp)
   14480:	ccccd537          	lui	a0,0xccccd
   14484:	00b035b3          	snez	a1,a1
   14488:	ccccd3b7          	lui	t2,0xccccd
   1448c:	982e                	add	a6,a6,a1
   1448e:	ccd50513          	addi	a0,a0,-819 # cccccccd <__BSS_END__+0xcccb0001>
   14492:	ccc38393          	addi	t2,t2,-820 # cccccccc <__BSS_END__+0xcccb0000>
   14496:	46a2                	lw	a3,8(sp)
   14498:	48b2                	lw	a7,12(sp)
   1449a:	4ed2                	lw	t4,20(sp)
   1449c:	5f82                	lw	t6,32(sp)
   1449e:	5292                	lw	t0,36(sp)
   144a0:	4601                	li	a2,0
   144a2:	4e15                	li	t3,5
   144a4:	0ff00f13          	li	t5,255
   144a8:	40e78733          	sub	a4,a5,a4
   144ac:	00e7b5b3          	sltu	a1,a5,a4
   144b0:	40b305b3          	sub	a1,t1,a1
   144b4:	027703b3          	mul	t2,a4,t2
   144b8:	02a585b3          	mul	a1,a1,a0
   144bc:	02a73333          	mulhu	t1,a4,a0
   144c0:	959e                	add	a1,a1,t2
   144c2:	02a707b3          	mul	a5,a4,a0
   144c6:	959a                	add	a1,a1,t1
   144c8:	01f59713          	slli	a4,a1,0x1f
   144cc:	8185                	srli	a1,a1,0x1
   144ce:	8385                	srli	a5,a5,0x1
   144d0:	8f5d                	or	a4,a4,a5
   144d2:	bd15                	j	14306 <_vfiprintf_r+0xad2>
   144d4:	2008f713          	andi	a4,a7,512
   144d8:	e75d                	bnez	a4,14586 <_vfiprintf_r+0xd52>
   144da:	4601                	li	a2,0
   144dc:	b701                	j	143dc <_vfiprintf_r+0xba8>
   144de:	88ba                	mv	a7,a4
   144e0:	4701                	li	a4,0
   144e2:	9c0706e3          	beqz	a4,13eae <_vfiprintf_r+0x67a>
   144e6:	b925                	j	1411e <_vfiprintf_r+0x8ea>
   144e8:	d1bfc0ef          	jal	11202 <__sinit>
   144ec:	b72ff06f          	j	1385e <_vfiprintf_r+0x2a>
   144f0:	0019c783          	lbu	a5,1(s3)
   144f4:	2008e893          	ori	a7,a7,512
   144f8:	0985                	addi	s3,s3,1
   144fa:	c50ff06f          	j	1394a <_vfiprintf_r+0x116>
   144fe:	0019c783          	lbu	a5,1(s3)
   14502:	0208e893          	ori	a7,a7,32
   14506:	0985                	addi	s3,s3,1
   14508:	c42ff06f          	j	1394a <_vfiprintf_r+0x116>
   1450c:	000d2783          	lw	a5,0(s10)
   14510:	0d11                	addi	s10,s10,4
   14512:	0127a023          	sw	s2,0(a5)
   14516:	bc6ff06f          	j	138dc <_vfiprintf_r+0xa8>
   1451a:	4799                	li	a5,6
   1451c:	8eee                	mv	t4,s11
   1451e:	03b7ec63          	bltu	a5,s11,14556 <_vfiprintf_r+0xd22>
   14522:	64ed                	lui	s1,0x1b
   14524:	8376                	mv	t1,t4
   14526:	aac48493          	addi	s1,s1,-1364 # 1aaac <__clzsi2+0x112>
   1452a:	d08ff06f          	j	13a32 <_vfiprintf_r+0x1fe>
   1452e:	200ef713          	andi	a4,t4,512
   14532:	d00709e3          	beqz	a4,14244 <_vfiprintf_r+0xa10>
   14536:	0ff7f793          	zext.b	a5,a5
   1453a:	4301                	li	t1,0
   1453c:	b299                	j	13e82 <_vfiprintf_r+0x64e>
   1453e:	4781                	li	a5,0
   14540:	4601                	li	a2,0
   14542:	bef1                	j	1411e <_vfiprintf_r+0x8ea>
   14544:	4585                	li	a1,1
   14546:	4701                	li	a4,0
   14548:	8456                	mv	s0,s5
   1454a:	d72ff06f          	j	13abc <_vfiprintf_r+0x288>
   1454e:	4525                	li	a0,9
   14550:	daf56be3          	bltu	a0,a5,14306 <_vfiprintf_r+0xad2>
   14554:	bd39                	j	14372 <_vfiprintf_r+0xb3e>
   14556:	4e99                	li	t4,6
   14558:	b7e9                	j	14522 <_vfiprintf_r+0xcee>
   1455a:	4585                	li	a1,1
   1455c:	8456                	mv	s0,s5
   1455e:	d14ff06f          	j	13a72 <_vfiprintf_r+0x23e>
   14562:	000d2783          	lw	a5,0(s10)
   14566:	0d11                	addi	s10,s10,4
   14568:	01279023          	sh	s2,0(a5)
   1456c:	b70ff06f          	j	138dc <_vfiprintf_r+0xa8>
   14570:	07e2                	slli	a5,a5,0x18
   14572:	87e1                	srai	a5,a5,0x18
   14574:	41f7d313          	srai	t1,a5,0x1f
   14578:	871a                	mv	a4,t1
   1457a:	decff06f          	j	13b66 <_vfiprintf_r+0x332>
   1457e:	0ff7f793          	zext.b	a5,a5
   14582:	4601                	li	a2,0
   14584:	b041                	j	13e04 <_vfiprintf_r+0x5d0>
   14586:	0ff7f793          	zext.b	a5,a5
   1458a:	4601                	li	a2,0
   1458c:	bd81                	j	143dc <_vfiprintf_r+0xba8>
   1458e:	03000793          	li	a5,48
   14592:	f0eff06f          	j	13ca0 <_vfiprintf_r+0x46c>
   14596:	6e6d                	lui	t3,0x1b
   14598:	8532                	mv	a0,a2
   1459a:	f14e0e13          	addi	t3,t3,-236 # 1af14 <blanks.1>
   1459e:	b905                	j	141ce <_vfiprintf_r+0x99a>
   145a0:	6e6d                	lui	t3,0x1b
   145a2:	00168613          	addi	a2,a3,1
   145a6:	f14e0e13          	addi	t3,t3,-236 # 1af14 <blanks.1>
   145aa:	e78ff06f          	j	13c22 <_vfiprintf_r+0x3ee>
   145ae:	5d7d                	li	s10,-1
   145b0:	c2aff06f          	j	139da <_vfiprintf_r+0x1a6>
   145b4:	6f6d                	lui	t5,0x1b
   145b6:	862e                	mv	a2,a1
   145b8:	f04f0f13          	addi	t5,t5,-252 # 1af04 <zeroes.0>
   145bc:	bc25                	j	13ff4 <_vfiprintf_r+0x7c0>
   145be:	000d2d83          	lw	s11,0(s10)
   145c2:	0d11                	addi	s10,s10,4
   145c4:	000dd363          	bgez	s11,145ca <_vfiprintf_r+0xd96>
   145c8:	5dfd                	li	s11,-1
   145ca:	0019c783          	lbu	a5,1(s3)
   145ce:	89b2                	mv	s3,a2
   145d0:	b7aff06f          	j	1394a <_vfiprintf_r+0x116>

000145d4 <vfiprintf>:
   145d4:	87aa                	mv	a5,a0
   145d6:	f241a503          	lw	a0,-220(gp) # 1c99c <_impure_ptr>
   145da:	86b2                	mv	a3,a2
   145dc:	862e                	mv	a2,a1
   145de:	85be                	mv	a1,a5
   145e0:	a54ff06f          	j	13834 <_vfiprintf_r>

000145e4 <__sbprintf>:
   145e4:	b8010113          	addi	sp,sp,-1152
   145e8:	00c59783          	lh	a5,12(a1)
   145ec:	00e5d703          	lhu	a4,14(a1)
   145f0:	46812c23          	sw	s0,1144(sp)
   145f4:	842e                	mv	s0,a1
   145f6:	65c1                	lui	a1,0x10
   145f8:	15f5                	addi	a1,a1,-3 # fffd <exit-0x97>
   145fa:	06442e03          	lw	t3,100(s0)
   145fe:	01c42303          	lw	t1,28(s0)
   14602:	02442883          	lw	a7,36(s0)
   14606:	0742                	slli	a4,a4,0x10
   14608:	8fed                	and	a5,a5,a1
   1460a:	8fd9                	or	a5,a5,a4
   1460c:	40000813          	li	a6,1024
   14610:	ca3e                	sw	a5,20(sp)
   14612:	002c                	addi	a1,sp,8
   14614:	189c                	addi	a5,sp,112
   14616:	46912a23          	sw	s1,1140(sp)
   1461a:	47212823          	sw	s2,1136(sp)
   1461e:	46112e23          	sw	ra,1148(sp)
   14622:	892a                	mv	s2,a0
   14624:	d6f2                	sw	t3,108(sp)
   14626:	d21a                	sw	t1,36(sp)
   14628:	d646                	sw	a7,44(sp)
   1462a:	c43e                	sw	a5,8(sp)
   1462c:	cc3e                	sw	a5,24(sp)
   1462e:	c842                	sw	a6,16(sp)
   14630:	ce42                	sw	a6,28(sp)
   14632:	d002                	sw	zero,32(sp)
   14634:	a00ff0ef          	jal	13834 <_vfiprintf_r>
   14638:	84aa                	mv	s1,a0
   1463a:	02055963          	bgez	a0,1466c <__sbprintf+0x88>
   1463e:	01415783          	lhu	a5,20(sp)
   14642:	0407f793          	andi	a5,a5,64
   14646:	c799                	beqz	a5,14654 <__sbprintf+0x70>
   14648:	00c45783          	lhu	a5,12(s0)
   1464c:	0407e793          	ori	a5,a5,64
   14650:	00f41623          	sh	a5,12(s0)
   14654:	47c12083          	lw	ra,1148(sp)
   14658:	47812403          	lw	s0,1144(sp)
   1465c:	47012903          	lw	s2,1136(sp)
   14660:	8526                	mv	a0,s1
   14662:	47412483          	lw	s1,1140(sp)
   14666:	48010113          	addi	sp,sp,1152
   1466a:	8082                	ret
   1466c:	002c                	addi	a1,sp,8
   1466e:	854a                	mv	a0,s2
   14670:	24a9                	jal	148ba <_fflush_r>
   14672:	d571                	beqz	a0,1463e <__sbprintf+0x5a>
   14674:	54fd                	li	s1,-1
   14676:	b7e1                	j	1463e <__sbprintf+0x5a>

00014678 <_fclose_r>:
   14678:	1141                	addi	sp,sp,-16
   1467a:	c606                	sw	ra,12(sp)
   1467c:	c04a                	sw	s2,0(sp)
   1467e:	cd89                	beqz	a1,14698 <_fclose_r+0x20>
   14680:	c422                	sw	s0,8(sp)
   14682:	c226                	sw	s1,4(sp)
   14684:	842e                	mv	s0,a1
   14686:	84aa                	mv	s1,a0
   14688:	c119                	beqz	a0,1468e <_fclose_r+0x16>
   1468a:	595c                	lw	a5,52(a0)
   1468c:	c7d1                	beqz	a5,14718 <_fclose_r+0xa0>
   1468e:	00c41783          	lh	a5,12(s0)
   14692:	eb89                	bnez	a5,146a4 <_fclose_r+0x2c>
   14694:	4422                	lw	s0,8(sp)
   14696:	4492                	lw	s1,4(sp)
   14698:	40b2                	lw	ra,12(sp)
   1469a:	4901                	li	s2,0
   1469c:	854a                	mv	a0,s2
   1469e:	4902                	lw	s2,0(sp)
   146a0:	0141                	addi	sp,sp,16
   146a2:	8082                	ret
   146a4:	85a2                	mv	a1,s0
   146a6:	8526                	mv	a0,s1
   146a8:	28bd                	jal	14726 <__sflush_r>
   146aa:	545c                	lw	a5,44(s0)
   146ac:	892a                	mv	s2,a0
   146ae:	c791                	beqz	a5,146ba <_fclose_r+0x42>
   146b0:	4c4c                	lw	a1,28(s0)
   146b2:	8526                	mv	a0,s1
   146b4:	9782                	jalr	a5
   146b6:	04054663          	bltz	a0,14702 <_fclose_r+0x8a>
   146ba:	00c45783          	lhu	a5,12(s0)
   146be:	0807f793          	andi	a5,a5,128
   146c2:	e7b1                	bnez	a5,1470e <_fclose_r+0x96>
   146c4:	580c                	lw	a1,48(s0)
   146c6:	c991                	beqz	a1,146da <_fclose_r+0x62>
   146c8:	04040793          	addi	a5,s0,64
   146cc:	00f58563          	beq	a1,a5,146d6 <_fclose_r+0x5e>
   146d0:	8526                	mv	a0,s1
   146d2:	a36fd0ef          	jal	11908 <_free_r>
   146d6:	02042823          	sw	zero,48(s0)
   146da:	406c                	lw	a1,68(s0)
   146dc:	c591                	beqz	a1,146e8 <_fclose_r+0x70>
   146de:	8526                	mv	a0,s1
   146e0:	a28fd0ef          	jal	11908 <_free_r>
   146e4:	04042223          	sw	zero,68(s0)
   146e8:	b31fc0ef          	jal	11218 <__sfp_lock_acquire>
   146ec:	00041623          	sh	zero,12(s0)
   146f0:	b2bfc0ef          	jal	1121a <__sfp_lock_release>
   146f4:	40b2                	lw	ra,12(sp)
   146f6:	4422                	lw	s0,8(sp)
   146f8:	4492                	lw	s1,4(sp)
   146fa:	854a                	mv	a0,s2
   146fc:	4902                	lw	s2,0(sp)
   146fe:	0141                	addi	sp,sp,16
   14700:	8082                	ret
   14702:	00c45783          	lhu	a5,12(s0)
   14706:	597d                	li	s2,-1
   14708:	0807f793          	andi	a5,a5,128
   1470c:	dfc5                	beqz	a5,146c4 <_fclose_r+0x4c>
   1470e:	480c                	lw	a1,16(s0)
   14710:	8526                	mv	a0,s1
   14712:	9f6fd0ef          	jal	11908 <_free_r>
   14716:	b77d                	j	146c4 <_fclose_r+0x4c>
   14718:	aebfc0ef          	jal	11202 <__sinit>
   1471c:	bf8d                	j	1468e <_fclose_r+0x16>

0001471e <fclose>:
   1471e:	85aa                	mv	a1,a0
   14720:	f241a503          	lw	a0,-220(gp) # 1c99c <_impure_ptr>
   14724:	bf91                	j	14678 <_fclose_r>

00014726 <__sflush_r>:
   14726:	00c59703          	lh	a4,12(a1)
   1472a:	1101                	addi	sp,sp,-32
   1472c:	cc22                	sw	s0,24(sp)
   1472e:	c64e                	sw	s3,12(sp)
   14730:	ce06                	sw	ra,28(sp)
   14732:	00877793          	andi	a5,a4,8
   14736:	842e                	mv	s0,a1
   14738:	89aa                	mv	s3,a0
   1473a:	e7e1                	bnez	a5,14802 <__sflush_r+0xdc>
   1473c:	6785                	lui	a5,0x1
   1473e:	80078793          	addi	a5,a5,-2048 # 800 <exit-0xf894>
   14742:	41d4                	lw	a3,4(a1)
   14744:	8fd9                	or	a5,a5,a4
   14746:	00f59623          	sh	a5,12(a1)
   1474a:	10d05563          	blez	a3,14854 <__sflush_r+0x12e>
   1474e:	02842803          	lw	a6,40(s0)
   14752:	0a080263          	beqz	a6,147f6 <__sflush_r+0xd0>
   14756:	ca26                	sw	s1,20(sp)
   14758:	01371693          	slli	a3,a4,0x13
   1475c:	0009a483          	lw	s1,0(s3)
   14760:	0009a023          	sw	zero,0(s3)
   14764:	4c4c                	lw	a1,28(s0)
   14766:	0e06ce63          	bltz	a3,14862 <__sflush_r+0x13c>
   1476a:	4601                	li	a2,0
   1476c:	4685                	li	a3,1
   1476e:	854e                	mv	a0,s3
   14770:	9802                	jalr	a6
   14772:	57fd                	li	a5,-1
   14774:	862a                	mv	a2,a0
   14776:	10f50f63          	beq	a0,a5,14894 <__sflush_r+0x16e>
   1477a:	00c41783          	lh	a5,12(s0)
   1477e:	02842803          	lw	a6,40(s0)
   14782:	4c4c                	lw	a1,28(s0)
   14784:	8b91                	andi	a5,a5,4
   14786:	c799                	beqz	a5,14794 <__sflush_r+0x6e>
   14788:	4058                	lw	a4,4(s0)
   1478a:	581c                	lw	a5,48(s0)
   1478c:	8e19                	sub	a2,a2,a4
   1478e:	c399                	beqz	a5,14794 <__sflush_r+0x6e>
   14790:	5c5c                	lw	a5,60(s0)
   14792:	8e1d                	sub	a2,a2,a5
   14794:	4681                	li	a3,0
   14796:	854e                	mv	a0,s3
   14798:	9802                	jalr	a6
   1479a:	57fd                	li	a5,-1
   1479c:	0cf51563          	bne	a0,a5,14866 <__sflush_r+0x140>
   147a0:	0009a683          	lw	a3,0(s3)
   147a4:	47f5                	li	a5,29
   147a6:	00c41703          	lh	a4,12(s0)
   147aa:	10d7e163          	bltu	a5,a3,148ac <__sflush_r+0x186>
   147ae:	204007b7          	lui	a5,0x20400
   147b2:	0785                	addi	a5,a5,1 # 20400001 <__BSS_END__+0x203e3335>
   147b4:	00d7d7b3          	srl	a5,a5,a3
   147b8:	8b85                	andi	a5,a5,1
   147ba:	cbed                	beqz	a5,148ac <__sflush_r+0x186>
   147bc:	4810                	lw	a2,16(s0)
   147be:	77fd                	lui	a5,0xfffff
   147c0:	7ff78793          	addi	a5,a5,2047 # fffff7ff <__BSS_END__+0xfffe2b33>
   147c4:	8ff9                	and	a5,a5,a4
   147c6:	00f41623          	sh	a5,12(s0)
   147ca:	00042223          	sw	zero,4(s0)
   147ce:	c010                	sw	a2,0(s0)
   147d0:	01371793          	slli	a5,a4,0x13
   147d4:	0007d363          	bgez	a5,147da <__sflush_r+0xb4>
   147d8:	c6dd                	beqz	a3,14886 <__sflush_r+0x160>
   147da:	580c                	lw	a1,48(s0)
   147dc:	0099a023          	sw	s1,0(s3)
   147e0:	c9c5                	beqz	a1,14890 <__sflush_r+0x16a>
   147e2:	04040793          	addi	a5,s0,64
   147e6:	00f58563          	beq	a1,a5,147f0 <__sflush_r+0xca>
   147ea:	854e                	mv	a0,s3
   147ec:	91cfd0ef          	jal	11908 <_free_r>
   147f0:	44d2                	lw	s1,20(sp)
   147f2:	02042823          	sw	zero,48(s0)
   147f6:	4501                	li	a0,0
   147f8:	40f2                	lw	ra,28(sp)
   147fa:	4462                	lw	s0,24(sp)
   147fc:	49b2                	lw	s3,12(sp)
   147fe:	6105                	addi	sp,sp,32
   14800:	8082                	ret
   14802:	c84a                	sw	s2,16(sp)
   14804:	0105a903          	lw	s2,16(a1)
   14808:	04090b63          	beqz	s2,1485e <__sflush_r+0x138>
   1480c:	ca26                	sw	s1,20(sp)
   1480e:	4184                	lw	s1,0(a1)
   14810:	8b0d                	andi	a4,a4,3
   14812:	0125a023          	sw	s2,0(a1)
   14816:	412484b3          	sub	s1,s1,s2
   1481a:	4781                	li	a5,0
   1481c:	e311                	bnez	a4,14820 <__sflush_r+0xfa>
   1481e:	49dc                	lw	a5,20(a1)
   14820:	c41c                	sw	a5,8(s0)
   14822:	00904663          	bgtz	s1,1482e <__sflush_r+0x108>
   14826:	a81d                	j	1485c <__sflush_r+0x136>
   14828:	992a                	add	s2,s2,a0
   1482a:	02905963          	blez	s1,1485c <__sflush_r+0x136>
   1482e:	505c                	lw	a5,36(s0)
   14830:	4c4c                	lw	a1,28(s0)
   14832:	86a6                	mv	a3,s1
   14834:	864a                	mv	a2,s2
   14836:	854e                	mv	a0,s3
   14838:	9782                	jalr	a5
   1483a:	8c89                	sub	s1,s1,a0
   1483c:	fea046e3          	bgtz	a0,14828 <__sflush_r+0x102>
   14840:	00c41703          	lh	a4,12(s0)
   14844:	4942                	lw	s2,16(sp)
   14846:	04076713          	ori	a4,a4,64
   1484a:	44d2                	lw	s1,20(sp)
   1484c:	00e41623          	sh	a4,12(s0)
   14850:	557d                	li	a0,-1
   14852:	b75d                	j	147f8 <__sflush_r+0xd2>
   14854:	5dd4                	lw	a3,60(a1)
   14856:	eed04ce3          	bgtz	a3,1474e <__sflush_r+0x28>
   1485a:	bf71                	j	147f6 <__sflush_r+0xd0>
   1485c:	44d2                	lw	s1,20(sp)
   1485e:	4942                	lw	s2,16(sp)
   14860:	bf59                	j	147f6 <__sflush_r+0xd0>
   14862:	4830                	lw	a2,80(s0)
   14864:	b705                	j	14784 <__sflush_r+0x5e>
   14866:	00c41703          	lh	a4,12(s0)
   1486a:	4814                	lw	a3,16(s0)
   1486c:	77fd                	lui	a5,0xfffff
   1486e:	7ff78793          	addi	a5,a5,2047 # fffff7ff <__BSS_END__+0xfffe2b33>
   14872:	8ff9                	and	a5,a5,a4
   14874:	00f41623          	sh	a5,12(s0)
   14878:	00042223          	sw	zero,4(s0)
   1487c:	c014                	sw	a3,0(s0)
   1487e:	01371793          	slli	a5,a4,0x13
   14882:	f407dce3          	bgez	a5,147da <__sflush_r+0xb4>
   14886:	580c                	lw	a1,48(s0)
   14888:	c828                	sw	a0,80(s0)
   1488a:	0099a023          	sw	s1,0(s3)
   1488e:	f9b1                	bnez	a1,147e2 <__sflush_r+0xbc>
   14890:	44d2                	lw	s1,20(sp)
   14892:	b795                	j	147f6 <__sflush_r+0xd0>
   14894:	0009a783          	lw	a5,0(s3)
   14898:	ee0781e3          	beqz	a5,1477a <__sflush_r+0x54>
   1489c:	4775                	li	a4,29
   1489e:	00e78a63          	beq	a5,a4,148b2 <__sflush_r+0x18c>
   148a2:	4759                	li	a4,22
   148a4:	00e78763          	beq	a5,a4,148b2 <__sflush_r+0x18c>
   148a8:	00c41703          	lh	a4,12(s0)
   148ac:	04076713          	ori	a4,a4,64
   148b0:	bf69                	j	1484a <__sflush_r+0x124>
   148b2:	0099a023          	sw	s1,0(s3)
   148b6:	44d2                	lw	s1,20(sp)
   148b8:	bf3d                	j	147f6 <__sflush_r+0xd0>

000148ba <_fflush_r>:
   148ba:	1101                	addi	sp,sp,-32
   148bc:	cc22                	sw	s0,24(sp)
   148be:	ce06                	sw	ra,28(sp)
   148c0:	842a                	mv	s0,a0
   148c2:	c119                	beqz	a0,148c8 <_fflush_r+0xe>
   148c4:	595c                	lw	a5,52(a0)
   148c6:	cf91                	beqz	a5,148e2 <_fflush_r+0x28>
   148c8:	00c59783          	lh	a5,12(a1)
   148cc:	e791                	bnez	a5,148d8 <_fflush_r+0x1e>
   148ce:	40f2                	lw	ra,28(sp)
   148d0:	4462                	lw	s0,24(sp)
   148d2:	4501                	li	a0,0
   148d4:	6105                	addi	sp,sp,32
   148d6:	8082                	ret
   148d8:	8522                	mv	a0,s0
   148da:	4462                	lw	s0,24(sp)
   148dc:	40f2                	lw	ra,28(sp)
   148de:	6105                	addi	sp,sp,32
   148e0:	b599                	j	14726 <__sflush_r>
   148e2:	c62e                	sw	a1,12(sp)
   148e4:	91ffc0ef          	jal	11202 <__sinit>
   148e8:	45b2                	lw	a1,12(sp)
   148ea:	bff9                	j	148c8 <_fflush_r+0xe>

000148ec <fflush>:
   148ec:	cd05                	beqz	a0,14924 <fflush+0x38>
   148ee:	85aa                	mv	a1,a0
   148f0:	f241a503          	lw	a0,-220(gp) # 1c99c <_impure_ptr>
   148f4:	c119                	beqz	a0,148fa <fflush+0xe>
   148f6:	595c                	lw	a5,52(a0)
   148f8:	c799                	beqz	a5,14906 <fflush+0x1a>
   148fa:	00c59783          	lh	a5,12(a1)
   148fe:	e399                	bnez	a5,14904 <fflush+0x18>
   14900:	4501                	li	a0,0
   14902:	8082                	ret
   14904:	b50d                	j	14726 <__sflush_r>
   14906:	1101                	addi	sp,sp,-32
   14908:	c62e                	sw	a1,12(sp)
   1490a:	c42a                	sw	a0,8(sp)
   1490c:	ce06                	sw	ra,28(sp)
   1490e:	8f5fc0ef          	jal	11202 <__sinit>
   14912:	45b2                	lw	a1,12(sp)
   14914:	4522                	lw	a0,8(sp)
   14916:	00c59783          	lh	a5,12(a1)
   1491a:	ef91                	bnez	a5,14936 <fflush+0x4a>
   1491c:	40f2                	lw	ra,28(sp)
   1491e:	4501                	li	a0,0
   14920:	6105                	addi	sp,sp,32
   14922:	8082                	ret
   14924:	65d5                	lui	a1,0x15
   14926:	c0818613          	addi	a2,gp,-1016 # 1c680 <__sglue>
   1492a:	8ba58593          	addi	a1,a1,-1862 # 148ba <_fflush_r>
   1492e:	c1818513          	addi	a0,gp,-1000 # 1c690 <_impure_data>
   14932:	907fc06f          	j	11238 <_fwalk_sglue>
   14936:	40f2                	lw	ra,28(sp)
   14938:	6105                	addi	sp,sp,32
   1493a:	b3f5                	j	14726 <__sflush_r>

0001493c <__sfvwrite_r>:
   1493c:	461c                	lw	a5,8(a2)
   1493e:	1c078e63          	beqz	a5,14b1a <__sfvwrite_r+0x1de>
   14942:	00c59683          	lh	a3,12(a1)
   14946:	7179                	addi	sp,sp,-48
   14948:	d422                	sw	s0,40(sp)
   1494a:	cc52                	sw	s4,24(sp)
   1494c:	c85a                	sw	s6,16(sp)
   1494e:	d606                	sw	ra,44(sp)
   14950:	0086f793          	andi	a5,a3,8
   14954:	8b32                	mv	s6,a2
   14956:	8a2a                	mv	s4,a0
   14958:	842e                	mv	s0,a1
   1495a:	c7ad                	beqz	a5,149c4 <__sfvwrite_r+0x88>
   1495c:	499c                	lw	a5,16(a1)
   1495e:	c3bd                	beqz	a5,149c4 <__sfvwrite_r+0x88>
   14960:	d226                	sw	s1,36(sp)
   14962:	d04a                	sw	s2,32(sp)
   14964:	ce4e                	sw	s3,28(sp)
   14966:	ca56                	sw	s5,20(sp)
   14968:	0026f793          	andi	a5,a3,2
   1496c:	000b2483          	lw	s1,0(s6)
   14970:	cbb5                	beqz	a5,149e4 <__sfvwrite_r+0xa8>
   14972:	505c                	lw	a5,36(s0)
   14974:	4c4c                	lw	a1,28(s0)
   14976:	80000ab7          	lui	s5,0x80000
   1497a:	4981                	li	s3,0
   1497c:	4901                	li	s2,0
   1497e:	c00a8a93          	addi	s5,s5,-1024 # 7ffffc00 <__BSS_END__+0x7ffe2f34>
   14982:	864e                	mv	a2,s3
   14984:	8552                	mv	a0,s4
   14986:	02090963          	beqz	s2,149b8 <__sfvwrite_r+0x7c>
   1498a:	86ca                	mv	a3,s2
   1498c:	012af363          	bgeu	s5,s2,14992 <__sfvwrite_r+0x56>
   14990:	86d6                	mv	a3,s5
   14992:	9782                	jalr	a5
   14994:	2ea05063          	blez	a0,14c74 <__sfvwrite_r+0x338>
   14998:	008b2783          	lw	a5,8(s6)
   1499c:	99aa                	add	s3,s3,a0
   1499e:	40a90933          	sub	s2,s2,a0
   149a2:	8f89                	sub	a5,a5,a0
   149a4:	00fb2423          	sw	a5,8(s6)
   149a8:	12078763          	beqz	a5,14ad6 <__sfvwrite_r+0x19a>
   149ac:	505c                	lw	a5,36(s0)
   149ae:	4c4c                	lw	a1,28(s0)
   149b0:	864e                	mv	a2,s3
   149b2:	8552                	mv	a0,s4
   149b4:	fc091be3          	bnez	s2,1498a <__sfvwrite_r+0x4e>
   149b8:	0004a983          	lw	s3,0(s1)
   149bc:	0044a903          	lw	s2,4(s1)
   149c0:	04a1                	addi	s1,s1,8
   149c2:	b7c1                	j	14982 <__sfvwrite_r+0x46>
   149c4:	85a2                	mv	a1,s0
   149c6:	8552                	mv	a0,s4
   149c8:	2941                	jal	14e58 <__swsetup_r>
   149ca:	14051163          	bnez	a0,14b0c <__sfvwrite_r+0x1d0>
   149ce:	00c41683          	lh	a3,12(s0)
   149d2:	d226                	sw	s1,36(sp)
   149d4:	d04a                	sw	s2,32(sp)
   149d6:	ce4e                	sw	s3,28(sp)
   149d8:	ca56                	sw	s5,20(sp)
   149da:	0026f793          	andi	a5,a3,2
   149de:	000b2483          	lw	s1,0(s6)
   149e2:	fbc1                	bnez	a5,14972 <__sfvwrite_r+0x36>
   149e4:	c65e                	sw	s7,12(sp)
   149e6:	c462                	sw	s8,8(sp)
   149e8:	0016f793          	andi	a5,a3,1
   149ec:	12079963          	bnez	a5,14b1e <__sfvwrite_r+0x1e2>
   149f0:	401c                	lw	a5,0(s0)
   149f2:	4418                	lw	a4,8(s0)
   149f4:	80000ab7          	lui	s5,0x80000
   149f8:	c266                	sw	s9,4(sp)
   149fa:	4b81                	li	s7,0
   149fc:	4981                	li	s3,0
   149fe:	1afd                	addi	s5,s5,-1 # 7fffffff <__BSS_END__+0x7ffe3333>
   14a00:	853e                	mv	a0,a5
   14a02:	8c3a                	mv	s8,a4
   14a04:	0c098063          	beqz	s3,14ac4 <__sfvwrite_r+0x188>
   14a08:	2006f613          	andi	a2,a3,512
   14a0c:	1a060863          	beqz	a2,14bbc <__sfvwrite_r+0x280>
   14a10:	8cba                	mv	s9,a4
   14a12:	20e9e963          	bltu	s3,a4,14c24 <__sfvwrite_r+0x2e8>
   14a16:	4806f713          	andi	a4,a3,1152
   14a1a:	cb25                	beqz	a4,14a8a <__sfvwrite_r+0x14e>
   14a1c:	4850                	lw	a2,20(s0)
   14a1e:	480c                	lw	a1,16(s0)
   14a20:	00161713          	slli	a4,a2,0x1
   14a24:	9732                	add	a4,a4,a2
   14a26:	40b78933          	sub	s2,a5,a1
   14a2a:	01f75c13          	srli	s8,a4,0x1f
   14a2e:	9c3a                	add	s8,s8,a4
   14a30:	00190793          	addi	a5,s2,1
   14a34:	401c5c13          	srai	s8,s8,0x1
   14a38:	97ce                	add	a5,a5,s3
   14a3a:	8662                	mv	a2,s8
   14a3c:	00fc7463          	bgeu	s8,a5,14a44 <__sfvwrite_r+0x108>
   14a40:	8c3e                	mv	s8,a5
   14a42:	863e                	mv	a2,a5
   14a44:	4006f693          	andi	a3,a3,1024
   14a48:	1e068d63          	beqz	a3,14c42 <__sfvwrite_r+0x306>
   14a4c:	85b2                	mv	a1,a2
   14a4e:	8552                	mv	a0,s4
   14a50:	f83fb0ef          	jal	109d2 <_malloc_r>
   14a54:	8caa                	mv	s9,a0
   14a56:	22050263          	beqz	a0,14c7a <__sfvwrite_r+0x33e>
   14a5a:	480c                	lw	a1,16(s0)
   14a5c:	864a                	mv	a2,s2
   14a5e:	08d000ef          	jal	152ea <memcpy>
   14a62:	00c45783          	lhu	a5,12(s0)
   14a66:	b7f7f793          	andi	a5,a5,-1153
   14a6a:	0807e793          	ori	a5,a5,128
   14a6e:	00f41623          	sh	a5,12(s0)
   14a72:	012c8533          	add	a0,s9,s2
   14a76:	412c07b3          	sub	a5,s8,s2
   14a7a:	01942823          	sw	s9,16(s0)
   14a7e:	01842a23          	sw	s8,20(s0)
   14a82:	c008                	sw	a0,0(s0)
   14a84:	8c4e                	mv	s8,s3
   14a86:	c41c                	sw	a5,8(s0)
   14a88:	8cce                	mv	s9,s3
   14a8a:	8666                	mv	a2,s9
   14a8c:	85de                	mv	a1,s7
   14a8e:	790000ef          	jal	1521e <memmove>
   14a92:	4418                	lw	a4,8(s0)
   14a94:	401c                	lw	a5,0(s0)
   14a96:	894e                	mv	s2,s3
   14a98:	41870733          	sub	a4,a4,s8
   14a9c:	97e6                	add	a5,a5,s9
   14a9e:	c418                	sw	a4,8(s0)
   14aa0:	c01c                	sw	a5,0(s0)
   14aa2:	4981                	li	s3,0
   14aa4:	008b2783          	lw	a5,8(s6)
   14aa8:	9bca                	add	s7,s7,s2
   14aaa:	412787b3          	sub	a5,a5,s2
   14aae:	00fb2423          	sw	a5,8(s6)
   14ab2:	cf99                	beqz	a5,14ad0 <__sfvwrite_r+0x194>
   14ab4:	401c                	lw	a5,0(s0)
   14ab6:	4418                	lw	a4,8(s0)
   14ab8:	00c41683          	lh	a3,12(s0)
   14abc:	853e                	mv	a0,a5
   14abe:	8c3a                	mv	s8,a4
   14ac0:	f40994e3          	bnez	s3,14a08 <__sfvwrite_r+0xcc>
   14ac4:	0004ab83          	lw	s7,0(s1)
   14ac8:	0044a983          	lw	s3,4(s1)
   14acc:	04a1                	addi	s1,s1,8
   14ace:	bf0d                	j	14a00 <__sfvwrite_r+0xc4>
   14ad0:	4bb2                	lw	s7,12(sp)
   14ad2:	4c22                	lw	s8,8(sp)
   14ad4:	4c92                	lw	s9,4(sp)
   14ad6:	50b2                	lw	ra,44(sp)
   14ad8:	5422                	lw	s0,40(sp)
   14ada:	5492                	lw	s1,36(sp)
   14adc:	5902                	lw	s2,32(sp)
   14ade:	49f2                	lw	s3,28(sp)
   14ae0:	4ad2                	lw	s5,20(sp)
   14ae2:	4a62                	lw	s4,24(sp)
   14ae4:	4b42                	lw	s6,16(sp)
   14ae6:	4501                	li	a0,0
   14ae8:	6145                	addi	sp,sp,48
   14aea:	8082                	ret
   14aec:	85a2                	mv	a1,s0
   14aee:	8552                	mv	a0,s4
   14af0:	33e9                	jal	148ba <_fflush_r>
   14af2:	c93d                	beqz	a0,14b68 <__sfvwrite_r+0x22c>
   14af4:	00c41783          	lh	a5,12(s0)
   14af8:	4bb2                	lw	s7,12(sp)
   14afa:	4c22                	lw	s8,8(sp)
   14afc:	5492                	lw	s1,36(sp)
   14afe:	5902                	lw	s2,32(sp)
   14b00:	49f2                	lw	s3,28(sp)
   14b02:	4ad2                	lw	s5,20(sp)
   14b04:	0407e793          	ori	a5,a5,64
   14b08:	00f41623          	sh	a5,12(s0)
   14b0c:	50b2                	lw	ra,44(sp)
   14b0e:	5422                	lw	s0,40(sp)
   14b10:	4a62                	lw	s4,24(sp)
   14b12:	4b42                	lw	s6,16(sp)
   14b14:	557d                	li	a0,-1
   14b16:	6145                	addi	sp,sp,48
   14b18:	8082                	ret
   14b1a:	4501                	li	a0,0
   14b1c:	8082                	ret
   14b1e:	4a81                	li	s5,0
   14b20:	4501                	li	a0,0
   14b22:	4c01                	li	s8,0
   14b24:	4981                	li	s3,0
   14b26:	04098e63          	beqz	s3,14b82 <__sfvwrite_r+0x246>
   14b2a:	c525                	beqz	a0,14b92 <__sfvwrite_r+0x256>
   14b2c:	87d6                	mv	a5,s5
   14b2e:	8bce                	mv	s7,s3
   14b30:	0137f363          	bgeu	a5,s3,14b36 <__sfvwrite_r+0x1fa>
   14b34:	8bbe                	mv	s7,a5
   14b36:	4008                	lw	a0,0(s0)
   14b38:	481c                	lw	a5,16(s0)
   14b3a:	00842903          	lw	s2,8(s0)
   14b3e:	4854                	lw	a3,20(s0)
   14b40:	00a7f563          	bgeu	a5,a0,14b4a <__sfvwrite_r+0x20e>
   14b44:	9936                	add	s2,s2,a3
   14b46:	05794f63          	blt	s2,s7,14ba4 <__sfvwrite_r+0x268>
   14b4a:	0edbc063          	blt	s7,a3,14c2a <__sfvwrite_r+0x2ee>
   14b4e:	505c                	lw	a5,36(s0)
   14b50:	4c4c                	lw	a1,28(s0)
   14b52:	8662                	mv	a2,s8
   14b54:	8552                	mv	a0,s4
   14b56:	9782                	jalr	a5
   14b58:	892a                	mv	s2,a0
   14b5a:	f8a05de3          	blez	a0,14af4 <__sfvwrite_r+0x1b8>
   14b5e:	412a8ab3          	sub	s5,s5,s2
   14b62:	4505                	li	a0,1
   14b64:	f80a84e3          	beqz	s5,14aec <__sfvwrite_r+0x1b0>
   14b68:	008b2783          	lw	a5,8(s6)
   14b6c:	9c4a                	add	s8,s8,s2
   14b6e:	412989b3          	sub	s3,s3,s2
   14b72:	412787b3          	sub	a5,a5,s2
   14b76:	00fb2423          	sw	a5,8(s6)
   14b7a:	f7d5                	bnez	a5,14b26 <__sfvwrite_r+0x1ea>
   14b7c:	4bb2                	lw	s7,12(sp)
   14b7e:	4c22                	lw	s8,8(sp)
   14b80:	bf99                	j	14ad6 <__sfvwrite_r+0x19a>
   14b82:	0044a983          	lw	s3,4(s1)
   14b86:	87a6                	mv	a5,s1
   14b88:	04a1                	addi	s1,s1,8
   14b8a:	fe098ce3          	beqz	s3,14b82 <__sfvwrite_r+0x246>
   14b8e:	0007ac03          	lw	s8,0(a5)
   14b92:	864e                	mv	a2,s3
   14b94:	45a9                	li	a1,10
   14b96:	8562                	mv	a0,s8
   14b98:	214d                	jal	1503a <memchr>
   14b9a:	c969                	beqz	a0,14c6c <__sfvwrite_r+0x330>
   14b9c:	0505                	addi	a0,a0,1
   14b9e:	41850ab3          	sub	s5,a0,s8
   14ba2:	b769                	j	14b2c <__sfvwrite_r+0x1f0>
   14ba4:	85e2                	mv	a1,s8
   14ba6:	864a                	mv	a2,s2
   14ba8:	2d9d                	jal	1521e <memmove>
   14baa:	401c                	lw	a5,0(s0)
   14bac:	85a2                	mv	a1,s0
   14bae:	8552                	mv	a0,s4
   14bb0:	97ca                	add	a5,a5,s2
   14bb2:	c01c                	sw	a5,0(s0)
   14bb4:	d07ff0ef          	jal	148ba <_fflush_r>
   14bb8:	d15d                	beqz	a0,14b5e <__sfvwrite_r+0x222>
   14bba:	bf2d                	j	14af4 <__sfvwrite_r+0x1b8>
   14bbc:	4814                	lw	a3,16(s0)
   14bbe:	02f6e863          	bltu	a3,a5,14bee <__sfvwrite_r+0x2b2>
   14bc2:	4850                	lw	a2,20(s0)
   14bc4:	02c9e563          	bltu	s3,a2,14bee <__sfvwrite_r+0x2b2>
   14bc8:	87ce                	mv	a5,s3
   14bca:	013af363          	bgeu	s5,s3,14bd0 <__sfvwrite_r+0x294>
   14bce:	87d6                	mv	a5,s5
   14bd0:	02c7e6b3          	rem	a3,a5,a2
   14bd4:	5058                	lw	a4,36(s0)
   14bd6:	4c4c                	lw	a1,28(s0)
   14bd8:	865e                	mv	a2,s7
   14bda:	8552                	mv	a0,s4
   14bdc:	40d786b3          	sub	a3,a5,a3
   14be0:	9702                	jalr	a4
   14be2:	892a                	mv	s2,a0
   14be4:	02a05a63          	blez	a0,14c18 <__sfvwrite_r+0x2dc>
   14be8:	412989b3          	sub	s3,s3,s2
   14bec:	bd65                	j	14aa4 <__sfvwrite_r+0x168>
   14bee:	893a                	mv	s2,a4
   14bf0:	00e9f363          	bgeu	s3,a4,14bf6 <__sfvwrite_r+0x2ba>
   14bf4:	894e                	mv	s2,s3
   14bf6:	853e                	mv	a0,a5
   14bf8:	864a                	mv	a2,s2
   14bfa:	85de                	mv	a1,s7
   14bfc:	250d                	jal	1521e <memmove>
   14bfe:	4418                	lw	a4,8(s0)
   14c00:	401c                	lw	a5,0(s0)
   14c02:	41270733          	sub	a4,a4,s2
   14c06:	97ca                	add	a5,a5,s2
   14c08:	c418                	sw	a4,8(s0)
   14c0a:	c01c                	sw	a5,0(s0)
   14c0c:	ff71                	bnez	a4,14be8 <__sfvwrite_r+0x2ac>
   14c0e:	85a2                	mv	a1,s0
   14c10:	8552                	mv	a0,s4
   14c12:	ca9ff0ef          	jal	148ba <_fflush_r>
   14c16:	d969                	beqz	a0,14be8 <__sfvwrite_r+0x2ac>
   14c18:	00c41783          	lh	a5,12(s0)
   14c1c:	4bb2                	lw	s7,12(sp)
   14c1e:	4c22                	lw	s8,8(sp)
   14c20:	4c92                	lw	s9,4(sp)
   14c22:	bde9                	j	14afc <__sfvwrite_r+0x1c0>
   14c24:	8c4e                	mv	s8,s3
   14c26:	8cce                	mv	s9,s3
   14c28:	b58d                	j	14a8a <__sfvwrite_r+0x14e>
   14c2a:	865e                	mv	a2,s7
   14c2c:	85e2                	mv	a1,s8
   14c2e:	2bc5                	jal	1521e <memmove>
   14c30:	4418                	lw	a4,8(s0)
   14c32:	401c                	lw	a5,0(s0)
   14c34:	895e                	mv	s2,s7
   14c36:	41770733          	sub	a4,a4,s7
   14c3a:	97de                	add	a5,a5,s7
   14c3c:	c418                	sw	a4,8(s0)
   14c3e:	c01c                	sw	a5,0(s0)
   14c40:	bf39                	j	14b5e <__sfvwrite_r+0x222>
   14c42:	8552                	mv	a0,s4
   14c44:	383020ef          	jal	177c6 <_realloc_r>
   14c48:	8caa                	mv	s9,a0
   14c4a:	e20514e3          	bnez	a0,14a72 <__sfvwrite_r+0x136>
   14c4e:	480c                	lw	a1,16(s0)
   14c50:	8552                	mv	a0,s4
   14c52:	cb7fc0ef          	jal	11908 <_free_r>
   14c56:	00c41783          	lh	a5,12(s0)
   14c5a:	4731                	li	a4,12
   14c5c:	4bb2                	lw	s7,12(sp)
   14c5e:	4c22                	lw	s8,8(sp)
   14c60:	4c92                	lw	s9,4(sp)
   14c62:	00ea2023          	sw	a4,0(s4)
   14c66:	f7f7f793          	andi	a5,a5,-129
   14c6a:	bd49                	j	14afc <__sfvwrite_r+0x1c0>
   14c6c:	00198793          	addi	a5,s3,1
   14c70:	8abe                	mv	s5,a5
   14c72:	bd75                	j	14b2e <__sfvwrite_r+0x1f2>
   14c74:	00c41783          	lh	a5,12(s0)
   14c78:	b551                	j	14afc <__sfvwrite_r+0x1c0>
   14c7a:	4731                	li	a4,12
   14c7c:	00c41783          	lh	a5,12(s0)
   14c80:	4bb2                	lw	s7,12(sp)
   14c82:	4c22                	lw	s8,8(sp)
   14c84:	4c92                	lw	s9,4(sp)
   14c86:	00ea2023          	sw	a4,0(s4)
   14c8a:	bd8d                	j	14afc <__sfvwrite_r+0x1c0>

00014c8c <_putc_r>:
   14c8c:	1101                	addi	sp,sp,-32
   14c8e:	cc22                	sw	s0,24(sp)
   14c90:	ce06                	sw	ra,28(sp)
   14c92:	842a                	mv	s0,a0
   14c94:	c119                	beqz	a0,14c9a <_putc_r+0xe>
   14c96:	595c                	lw	a5,52(a0)
   14c98:	cf9d                	beqz	a5,14cd6 <_putc_r+0x4a>
   14c9a:	461c                	lw	a5,8(a2)
   14c9c:	17fd                	addi	a5,a5,-1
   14c9e:	c61c                	sw	a5,8(a2)
   14ca0:	0007da63          	bgez	a5,14cb4 <_putc_r+0x28>
   14ca4:	4e18                	lw	a4,24(a2)
   14ca6:	02e7c363          	blt	a5,a4,14ccc <_putc_r+0x40>
   14caa:	0ff5f793          	zext.b	a5,a1
   14cae:	4729                	li	a4,10
   14cb0:	00e78e63          	beq	a5,a4,14ccc <_putc_r+0x40>
   14cb4:	421c                	lw	a5,0(a2)
   14cb6:	0ff5f513          	zext.b	a0,a1
   14cba:	00178713          	addi	a4,a5,1
   14cbe:	c218                	sw	a4,0(a2)
   14cc0:	00b78023          	sb	a1,0(a5)
   14cc4:	40f2                	lw	ra,28(sp)
   14cc6:	4462                	lw	s0,24(sp)
   14cc8:	6105                	addi	sp,sp,32
   14cca:	8082                	ret
   14ccc:	8522                	mv	a0,s0
   14cce:	4462                	lw	s0,24(sp)
   14cd0:	40f2                	lw	ra,28(sp)
   14cd2:	6105                	addi	sp,sp,32
   14cd4:	a8a5                	j	14d4c <__swbuf_r>
   14cd6:	c632                	sw	a2,12(sp)
   14cd8:	c42e                	sw	a1,8(sp)
   14cda:	d28fc0ef          	jal	11202 <__sinit>
   14cde:	4632                	lw	a2,12(sp)
   14ce0:	45a2                	lw	a1,8(sp)
   14ce2:	bf65                	j	14c9a <_putc_r+0xe>

00014ce4 <putc>:
   14ce4:	1101                	addi	sp,sp,-32
   14ce6:	ca4a                	sw	s2,20(sp)
   14ce8:	f241a903          	lw	s2,-220(gp) # 1c99c <_impure_ptr>
   14cec:	cc26                	sw	s1,24(sp)
   14cee:	ce06                	sw	ra,28(sp)
   14cf0:	84aa                	mv	s1,a0
   14cf2:	00090563          	beqz	s2,14cfc <putc+0x18>
   14cf6:	03492783          	lw	a5,52(s2)
   14cfa:	c3b9                	beqz	a5,14d40 <putc+0x5c>
   14cfc:	459c                	lw	a5,8(a1)
   14cfe:	17fd                	addi	a5,a5,-1
   14d00:	c59c                	sw	a5,8(a1)
   14d02:	0007da63          	bgez	a5,14d16 <putc+0x32>
   14d06:	4d98                	lw	a4,24(a1)
   14d08:	02e7c463          	blt	a5,a4,14d30 <putc+0x4c>
   14d0c:	0ff4f793          	zext.b	a5,s1
   14d10:	4729                	li	a4,10
   14d12:	00e78f63          	beq	a5,a4,14d30 <putc+0x4c>
   14d16:	419c                	lw	a5,0(a1)
   14d18:	0ff4f513          	zext.b	a0,s1
   14d1c:	00178713          	addi	a4,a5,1
   14d20:	c198                	sw	a4,0(a1)
   14d22:	00978023          	sb	s1,0(a5)
   14d26:	40f2                	lw	ra,28(sp)
   14d28:	44e2                	lw	s1,24(sp)
   14d2a:	4952                	lw	s2,20(sp)
   14d2c:	6105                	addi	sp,sp,32
   14d2e:	8082                	ret
   14d30:	40f2                	lw	ra,28(sp)
   14d32:	862e                	mv	a2,a1
   14d34:	854a                	mv	a0,s2
   14d36:	85a6                	mv	a1,s1
   14d38:	4952                	lw	s2,20(sp)
   14d3a:	44e2                	lw	s1,24(sp)
   14d3c:	6105                	addi	sp,sp,32
   14d3e:	a039                	j	14d4c <__swbuf_r>
   14d40:	854a                	mv	a0,s2
   14d42:	c62e                	sw	a1,12(sp)
   14d44:	cbefc0ef          	jal	11202 <__sinit>
   14d48:	45b2                	lw	a1,12(sp)
   14d4a:	bf4d                	j	14cfc <putc+0x18>

00014d4c <__swbuf_r>:
   14d4c:	1101                	addi	sp,sp,-32
   14d4e:	cc22                	sw	s0,24(sp)
   14d50:	ca26                	sw	s1,20(sp)
   14d52:	c84a                	sw	s2,16(sp)
   14d54:	ce06                	sw	ra,28(sp)
   14d56:	892a                	mv	s2,a0
   14d58:	84ae                	mv	s1,a1
   14d5a:	8432                	mv	s0,a2
   14d5c:	c119                	beqz	a0,14d62 <__swbuf_r+0x16>
   14d5e:	595c                	lw	a5,52(a0)
   14d60:	c3fd                	beqz	a5,14e46 <__swbuf_r+0xfa>
   14d62:	4c1c                	lw	a5,24(s0)
   14d64:	00c41703          	lh	a4,12(s0)
   14d68:	c41c                	sw	a5,8(s0)
   14d6a:	00877793          	andi	a5,a4,8
   14d6e:	cbb1                	beqz	a5,14dc2 <__swbuf_r+0x76>
   14d70:	481c                	lw	a5,16(s0)
   14d72:	cba1                	beqz	a5,14dc2 <__swbuf_r+0x76>
   14d74:	c64e                	sw	s3,12(sp)
   14d76:	01271693          	slli	a3,a4,0x12
   14d7a:	0ff4f993          	zext.b	s3,s1
   14d7e:	0ff4f493          	zext.b	s1,s1
   14d82:	0606d063          	bgez	a3,14de2 <__swbuf_r+0x96>
   14d86:	4018                	lw	a4,0(s0)
   14d88:	4854                	lw	a3,20(s0)
   14d8a:	40f707b3          	sub	a5,a4,a5
   14d8e:	06d7d963          	bge	a5,a3,14e00 <__swbuf_r+0xb4>
   14d92:	4414                	lw	a3,8(s0)
   14d94:	00170613          	addi	a2,a4,1
   14d98:	c010                	sw	a2,0(s0)
   14d9a:	16fd                	addi	a3,a3,-1
   14d9c:	c414                	sw	a3,8(s0)
   14d9e:	01370023          	sb	s3,0(a4)
   14da2:	4858                	lw	a4,20(s0)
   14da4:	0785                	addi	a5,a5,1
   14da6:	06f70f63          	beq	a4,a5,14e24 <__swbuf_r+0xd8>
   14daa:	00c45783          	lhu	a5,12(s0)
   14dae:	8b85                	andi	a5,a5,1
   14db0:	e3d1                	bnez	a5,14e34 <__swbuf_r+0xe8>
   14db2:	49b2                	lw	s3,12(sp)
   14db4:	40f2                	lw	ra,28(sp)
   14db6:	4462                	lw	s0,24(sp)
   14db8:	4942                	lw	s2,16(sp)
   14dba:	8526                	mv	a0,s1
   14dbc:	44d2                	lw	s1,20(sp)
   14dbe:	6105                	addi	sp,sp,32
   14dc0:	8082                	ret
   14dc2:	85a2                	mv	a1,s0
   14dc4:	854a                	mv	a0,s2
   14dc6:	2849                	jal	14e58 <__swsetup_r>
   14dc8:	e525                	bnez	a0,14e30 <__swbuf_r+0xe4>
   14dca:	00c41703          	lh	a4,12(s0)
   14dce:	c64e                	sw	s3,12(sp)
   14dd0:	481c                	lw	a5,16(s0)
   14dd2:	01271693          	slli	a3,a4,0x12
   14dd6:	0ff4f993          	zext.b	s3,s1
   14dda:	0ff4f493          	zext.b	s1,s1
   14dde:	fa06c4e3          	bltz	a3,14d86 <__swbuf_r+0x3a>
   14de2:	5074                	lw	a3,100(s0)
   14de4:	7679                	lui	a2,0xffffe
   14de6:	6589                	lui	a1,0x2
   14de8:	8f4d                	or	a4,a4,a1
   14dea:	167d                	addi	a2,a2,-1 # ffffdfff <__BSS_END__+0xfffe1333>
   14dec:	8ef1                	and	a3,a3,a2
   14dee:	00e41623          	sh	a4,12(s0)
   14df2:	4018                	lw	a4,0(s0)
   14df4:	d074                	sw	a3,100(s0)
   14df6:	4854                	lw	a3,20(s0)
   14df8:	40f707b3          	sub	a5,a4,a5
   14dfc:	f8d7cbe3          	blt	a5,a3,14d92 <__swbuf_r+0x46>
   14e00:	85a2                	mv	a1,s0
   14e02:	854a                	mv	a0,s2
   14e04:	ab7ff0ef          	jal	148ba <_fflush_r>
   14e08:	e11d                	bnez	a0,14e2e <__swbuf_r+0xe2>
   14e0a:	4018                	lw	a4,0(s0)
   14e0c:	4414                	lw	a3,8(s0)
   14e0e:	4785                	li	a5,1
   14e10:	00170613          	addi	a2,a4,1
   14e14:	16fd                	addi	a3,a3,-1
   14e16:	c010                	sw	a2,0(s0)
   14e18:	c414                	sw	a3,8(s0)
   14e1a:	01370023          	sb	s3,0(a4)
   14e1e:	4858                	lw	a4,20(s0)
   14e20:	f8f715e3          	bne	a4,a5,14daa <__swbuf_r+0x5e>
   14e24:	85a2                	mv	a1,s0
   14e26:	854a                	mv	a0,s2
   14e28:	a93ff0ef          	jal	148ba <_fflush_r>
   14e2c:	d159                	beqz	a0,14db2 <__swbuf_r+0x66>
   14e2e:	49b2                	lw	s3,12(sp)
   14e30:	54fd                	li	s1,-1
   14e32:	b749                	j	14db4 <__swbuf_r+0x68>
   14e34:	47a9                	li	a5,10
   14e36:	f6f49ee3          	bne	s1,a5,14db2 <__swbuf_r+0x66>
   14e3a:	85a2                	mv	a1,s0
   14e3c:	854a                	mv	a0,s2
   14e3e:	a7dff0ef          	jal	148ba <_fflush_r>
   14e42:	d925                	beqz	a0,14db2 <__swbuf_r+0x66>
   14e44:	b7ed                	j	14e2e <__swbuf_r+0xe2>
   14e46:	bbcfc0ef          	jal	11202 <__sinit>
   14e4a:	bf21                	j	14d62 <__swbuf_r+0x16>

00014e4c <__swbuf>:
   14e4c:	87aa                	mv	a5,a0
   14e4e:	f241a503          	lw	a0,-220(gp) # 1c99c <_impure_ptr>
   14e52:	862e                	mv	a2,a1
   14e54:	85be                	mv	a1,a5
   14e56:	bddd                	j	14d4c <__swbuf_r>

00014e58 <__swsetup_r>:
   14e58:	f241a783          	lw	a5,-220(gp) # 1c99c <_impure_ptr>
   14e5c:	1141                	addi	sp,sp,-16
   14e5e:	c422                	sw	s0,8(sp)
   14e60:	c226                	sw	s1,4(sp)
   14e62:	c606                	sw	ra,12(sp)
   14e64:	84aa                	mv	s1,a0
   14e66:	842e                	mv	s0,a1
   14e68:	c399                	beqz	a5,14e6e <__swsetup_r+0x16>
   14e6a:	5bd8                	lw	a4,52(a5)
   14e6c:	c75d                	beqz	a4,14f1a <__swsetup_r+0xc2>
   14e6e:	00c41783          	lh	a5,12(s0)
   14e72:	0087f713          	andi	a4,a5,8
   14e76:	c721                	beqz	a4,14ebe <__swsetup_r+0x66>
   14e78:	4818                	lw	a4,16(s0)
   14e7a:	cf31                	beqz	a4,14ed6 <__swsetup_r+0x7e>
   14e7c:	0017f693          	andi	a3,a5,1
   14e80:	ce91                	beqz	a3,14e9c <__swsetup_r+0x44>
   14e82:	4854                	lw	a3,20(s0)
   14e84:	00042423          	sw	zero,8(s0)
   14e88:	4501                	li	a0,0
   14e8a:	40d006b3          	neg	a3,a3
   14e8e:	cc14                	sw	a3,24(s0)
   14e90:	cf11                	beqz	a4,14eac <__swsetup_r+0x54>
   14e92:	40b2                	lw	ra,12(sp)
   14e94:	4422                	lw	s0,8(sp)
   14e96:	4492                	lw	s1,4(sp)
   14e98:	0141                	addi	sp,sp,16
   14e9a:	8082                	ret
   14e9c:	0027f693          	andi	a3,a5,2
   14ea0:	4601                	li	a2,0
   14ea2:	e291                	bnez	a3,14ea6 <__swsetup_r+0x4e>
   14ea4:	4850                	lw	a2,20(s0)
   14ea6:	c410                	sw	a2,8(s0)
   14ea8:	4501                	li	a0,0
   14eaa:	f765                	bnez	a4,14e92 <__swsetup_r+0x3a>
   14eac:	0807f713          	andi	a4,a5,128
   14eb0:	d36d                	beqz	a4,14e92 <__swsetup_r+0x3a>
   14eb2:	0407e793          	ori	a5,a5,64
   14eb6:	00f41623          	sh	a5,12(s0)
   14eba:	557d                	li	a0,-1
   14ebc:	bfd9                	j	14e92 <__swsetup_r+0x3a>
   14ebe:	0107f713          	andi	a4,a5,16
   14ec2:	c325                	beqz	a4,14f22 <__swsetup_r+0xca>
   14ec4:	0047f713          	andi	a4,a5,4
   14ec8:	e70d                	bnez	a4,14ef2 <__swsetup_r+0x9a>
   14eca:	4818                	lw	a4,16(s0)
   14ecc:	0087e793          	ori	a5,a5,8
   14ed0:	00f41623          	sh	a5,12(s0)
   14ed4:	f745                	bnez	a4,14e7c <__swsetup_r+0x24>
   14ed6:	2807f693          	andi	a3,a5,640
   14eda:	20000613          	li	a2,512
   14ede:	f8c68fe3          	beq	a3,a2,14e7c <__swsetup_r+0x24>
   14ee2:	85a2                	mv	a1,s0
   14ee4:	8526                	mv	a0,s1
   14ee6:	577020ef          	jal	17c5c <__smakebuf_r>
   14eea:	00c41783          	lh	a5,12(s0)
   14eee:	4818                	lw	a4,16(s0)
   14ef0:	b771                	j	14e7c <__swsetup_r+0x24>
   14ef2:	580c                	lw	a1,48(s0)
   14ef4:	cd81                	beqz	a1,14f0c <__swsetup_r+0xb4>
   14ef6:	04040713          	addi	a4,s0,64
   14efa:	00e58763          	beq	a1,a4,14f08 <__swsetup_r+0xb0>
   14efe:	8526                	mv	a0,s1
   14f00:	a09fc0ef          	jal	11908 <_free_r>
   14f04:	00c41783          	lh	a5,12(s0)
   14f08:	02042823          	sw	zero,48(s0)
   14f0c:	4818                	lw	a4,16(s0)
   14f0e:	fdb7f793          	andi	a5,a5,-37
   14f12:	00042223          	sw	zero,4(s0)
   14f16:	c018                	sw	a4,0(s0)
   14f18:	bf55                	j	14ecc <__swsetup_r+0x74>
   14f1a:	853e                	mv	a0,a5
   14f1c:	ae6fc0ef          	jal	11202 <__sinit>
   14f20:	b7b9                	j	14e6e <__swsetup_r+0x16>
   14f22:	4725                	li	a4,9
   14f24:	c098                	sw	a4,0(s1)
   14f26:	0407e793          	ori	a5,a5,64
   14f2a:	00f41623          	sh	a5,12(s0)
   14f2e:	557d                	li	a0,-1
   14f30:	b78d                	j	14e92 <__swsetup_r+0x3a>

00014f32 <__fputwc>:
   14f32:	1101                	addi	sp,sp,-32
   14f34:	cc22                	sw	s0,24(sp)
   14f36:	ca26                	sw	s1,20(sp)
   14f38:	c84a                	sw	s2,16(sp)
   14f3a:	ce06                	sw	ra,28(sp)
   14f3c:	892a                	mv	s2,a0
   14f3e:	84ae                	mv	s1,a1
   14f40:	8432                	mv	s0,a2
   14f42:	24a1                	jal	1518a <__locale_mb_cur_max>
   14f44:	4785                	li	a5,1
   14f46:	00f51b63          	bne	a0,a5,14f5c <__fputwc+0x2a>
   14f4a:	fff48793          	addi	a5,s1,-1
   14f4e:	0fe00713          	li	a4,254
   14f52:	00f76563          	bltu	a4,a5,14f5c <__fputwc+0x2a>
   14f56:	00910623          	sb	s1,12(sp)
   14f5a:	a821                	j	14f72 <__fputwc+0x40>
   14f5c:	05c40693          	addi	a3,s0,92
   14f60:	8626                	mv	a2,s1
   14f62:	006c                	addi	a1,sp,12
   14f64:	854a                	mv	a0,s2
   14f66:	461020ef          	jal	17bc6 <_wcrtomb_r>
   14f6a:	57fd                	li	a5,-1
   14f6c:	04f50b63          	beq	a0,a5,14fc2 <__fputwc+0x90>
   14f70:	c505                	beqz	a0,14f98 <__fputwc+0x66>
   14f72:	441c                	lw	a5,8(s0)
   14f74:	00c14583          	lbu	a1,12(sp)
   14f78:	17fd                	addi	a5,a5,-1
   14f7a:	c41c                	sw	a5,8(s0)
   14f7c:	0007d863          	bgez	a5,14f8c <__fputwc+0x5a>
   14f80:	4c18                	lw	a4,24(s0)
   14f82:	02e7c263          	blt	a5,a4,14fa6 <__fputwc+0x74>
   14f86:	47a9                	li	a5,10
   14f88:	00f58f63          	beq	a1,a5,14fa6 <__fputwc+0x74>
   14f8c:	401c                	lw	a5,0(s0)
   14f8e:	00178713          	addi	a4,a5,1
   14f92:	c018                	sw	a4,0(s0)
   14f94:	00b78023          	sb	a1,0(a5)
   14f98:	40f2                	lw	ra,28(sp)
   14f9a:	4462                	lw	s0,24(sp)
   14f9c:	4942                	lw	s2,16(sp)
   14f9e:	8526                	mv	a0,s1
   14fa0:	44d2                	lw	s1,20(sp)
   14fa2:	6105                	addi	sp,sp,32
   14fa4:	8082                	ret
   14fa6:	8622                	mv	a2,s0
   14fa8:	854a                	mv	a0,s2
   14faa:	da3ff0ef          	jal	14d4c <__swbuf_r>
   14fae:	57fd                	li	a5,-1
   14fb0:	fef514e3          	bne	a0,a5,14f98 <__fputwc+0x66>
   14fb4:	557d                	li	a0,-1
   14fb6:	40f2                	lw	ra,28(sp)
   14fb8:	4462                	lw	s0,24(sp)
   14fba:	44d2                	lw	s1,20(sp)
   14fbc:	4942                	lw	s2,16(sp)
   14fbe:	6105                	addi	sp,sp,32
   14fc0:	8082                	ret
   14fc2:	00c45783          	lhu	a5,12(s0)
   14fc6:	557d                	li	a0,-1
   14fc8:	0407e793          	ori	a5,a5,64
   14fcc:	00f41623          	sh	a5,12(s0)
   14fd0:	b7dd                	j	14fb6 <__fputwc+0x84>

00014fd2 <_fputwc_r>:
   14fd2:	00c61783          	lh	a5,12(a2)
   14fd6:	01279713          	slli	a4,a5,0x12
   14fda:	00074a63          	bltz	a4,14fee <_fputwc_r+0x1c>
   14fde:	5278                	lw	a4,100(a2)
   14fe0:	6689                	lui	a3,0x2
   14fe2:	8fd5                	or	a5,a5,a3
   14fe4:	6689                	lui	a3,0x2
   14fe6:	8f55                	or	a4,a4,a3
   14fe8:	00f61623          	sh	a5,12(a2)
   14fec:	d278                	sw	a4,100(a2)
   14fee:	b791                	j	14f32 <__fputwc>

00014ff0 <fputwc>:
   14ff0:	1101                	addi	sp,sp,-32
   14ff2:	cc22                	sw	s0,24(sp)
   14ff4:	f241a403          	lw	s0,-220(gp) # 1c99c <_impure_ptr>
   14ff8:	ce06                	sw	ra,28(sp)
   14ffa:	862e                	mv	a2,a1
   14ffc:	85aa                	mv	a1,a0
   14ffe:	c019                	beqz	s0,15004 <fputwc+0x14>
   15000:	585c                	lw	a5,52(s0)
   15002:	c785                	beqz	a5,1502a <fputwc+0x3a>
   15004:	00c61783          	lh	a5,12(a2)
   15008:	01279713          	slli	a4,a5,0x12
   1500c:	00074a63          	bltz	a4,15020 <fputwc+0x30>
   15010:	5278                	lw	a4,100(a2)
   15012:	6689                	lui	a3,0x2
   15014:	8fd5                	or	a5,a5,a3
   15016:	6689                	lui	a3,0x2
   15018:	8f55                	or	a4,a4,a3
   1501a:	00f61623          	sh	a5,12(a2)
   1501e:	d278                	sw	a4,100(a2)
   15020:	8522                	mv	a0,s0
   15022:	4462                	lw	s0,24(sp)
   15024:	40f2                	lw	ra,28(sp)
   15026:	6105                	addi	sp,sp,32
   15028:	b729                	j	14f32 <__fputwc>
   1502a:	c42a                	sw	a0,8(sp)
   1502c:	8522                	mv	a0,s0
   1502e:	c632                	sw	a2,12(sp)
   15030:	9d2fc0ef          	jal	11202 <__sinit>
   15034:	4632                	lw	a2,12(sp)
   15036:	45a2                	lw	a1,8(sp)
   15038:	b7f1                	j	15004 <fputwc+0x14>

0001503a <memchr>:
   1503a:	00357793          	andi	a5,a0,3
   1503e:	0ff5f693          	zext.b	a3,a1
   15042:	c395                	beqz	a5,15066 <memchr+0x2c>
   15044:	fff60793          	addi	a5,a2,-1
   15048:	c605                	beqz	a2,15070 <memchr+0x36>
   1504a:	567d                	li	a2,-1
   1504c:	a801                	j	1505c <memchr+0x22>
   1504e:	0505                	addi	a0,a0,1
   15050:	00357713          	andi	a4,a0,3
   15054:	cb11                	beqz	a4,15068 <memchr+0x2e>
   15056:	17fd                	addi	a5,a5,-1
   15058:	00c78c63          	beq	a5,a2,15070 <memchr+0x36>
   1505c:	00054703          	lbu	a4,0(a0)
   15060:	fed717e3          	bne	a4,a3,1504e <memchr+0x14>
   15064:	8082                	ret
   15066:	87b2                	mv	a5,a2
   15068:	470d                	li	a4,3
   1506a:	00f76563          	bltu	a4,a5,15074 <memchr+0x3a>
   1506e:	e3b9                	bnez	a5,150b4 <memchr+0x7a>
   15070:	4501                	li	a0,0
   15072:	8082                	ret
   15074:	0ff5f593          	zext.b	a1,a1
   15078:	00859713          	slli	a4,a1,0x8
   1507c:	95ba                	add	a1,a1,a4
   1507e:	01059713          	slli	a4,a1,0x10
   15082:	feff08b7          	lui	a7,0xfeff0
   15086:	80808837          	lui	a6,0x80808
   1508a:	95ba                	add	a1,a1,a4
   1508c:	eff88893          	addi	a7,a7,-257 # fefefeff <__BSS_END__+0xfefd3233>
   15090:	08080813          	addi	a6,a6,128 # 80808080 <__BSS_END__+0x807eb3b4>
   15094:	430d                	li	t1,3
   15096:	a029                	j	150a0 <memchr+0x66>
   15098:	17f1                	addi	a5,a5,-4
   1509a:	0511                	addi	a0,a0,4
   1509c:	fcf379e3          	bgeu	t1,a5,1506e <memchr+0x34>
   150a0:	4118                	lw	a4,0(a0)
   150a2:	8f2d                	xor	a4,a4,a1
   150a4:	01170633          	add	a2,a4,a7
   150a8:	fff74713          	not	a4,a4
   150ac:	8f71                	and	a4,a4,a2
   150ae:	01077733          	and	a4,a4,a6
   150b2:	d37d                	beqz	a4,15098 <memchr+0x5e>
   150b4:	97aa                	add	a5,a5,a0
   150b6:	a021                	j	150be <memchr+0x84>
   150b8:	0505                	addi	a0,a0,1
   150ba:	faa78be3          	beq	a5,a0,15070 <memchr+0x36>
   150be:	00054703          	lbu	a4,0(a0)
   150c2:	fed71be3          	bne	a4,a3,150b8 <memchr+0x7e>
   150c6:	8082                	ret

000150c8 <strncpy>:
   150c8:	00a5e7b3          	or	a5,a1,a0
   150cc:	8b8d                	andi	a5,a5,3
   150ce:	e781                	bnez	a5,150d6 <strncpy+0xe>
   150d0:	478d                	li	a5,3
   150d2:	02c7eb63          	bltu	a5,a2,15108 <strncpy+0x40>
   150d6:	872a                	mv	a4,a0
   150d8:	a811                	j	150ec <strncpy+0x24>
   150da:	fff5c683          	lbu	a3,-1(a1) # 1fff <exit-0xe095>
   150de:	fff60813          	addi	a6,a2,-1
   150e2:	fed78fa3          	sb	a3,-1(a5)
   150e6:	ca81                	beqz	a3,150f6 <strncpy+0x2e>
   150e8:	873e                	mv	a4,a5
   150ea:	8642                	mv	a2,a6
   150ec:	0585                	addi	a1,a1,1
   150ee:	00170793          	addi	a5,a4,1
   150f2:	f665                	bnez	a2,150da <strncpy+0x12>
   150f4:	8082                	ret
   150f6:	9732                	add	a4,a4,a2
   150f8:	04080463          	beqz	a6,15140 <strncpy+0x78>
   150fc:	0785                	addi	a5,a5,1
   150fe:	fe078fa3          	sb	zero,-1(a5)
   15102:	fee79de3          	bne	a5,a4,150fc <strncpy+0x34>
   15106:	8082                	ret
   15108:	feff0337          	lui	t1,0xfeff0
   1510c:	808088b7          	lui	a7,0x80808
   15110:	872a                	mv	a4,a0
   15112:	eff30313          	addi	t1,t1,-257 # fefefeff <__BSS_END__+0xfefd3233>
   15116:	08088893          	addi	a7,a7,128 # 80808080 <__BSS_END__+0x807eb3b4>
   1511a:	4e0d                	li	t3,3
   1511c:	a039                	j	1512a <strncpy+0x62>
   1511e:	c314                	sw	a3,0(a4)
   15120:	1671                	addi	a2,a2,-4
   15122:	0711                	addi	a4,a4,4
   15124:	0591                	addi	a1,a1,4
   15126:	fcce73e3          	bgeu	t3,a2,150ec <strncpy+0x24>
   1512a:	4194                	lw	a3,0(a1)
   1512c:	006687b3          	add	a5,a3,t1
   15130:	fff6c813          	not	a6,a3
   15134:	0107f7b3          	and	a5,a5,a6
   15138:	0117f7b3          	and	a5,a5,a7
   1513c:	d3ed                	beqz	a5,1511e <strncpy+0x56>
   1513e:	b77d                	j	150ec <strncpy+0x24>
   15140:	8082                	ret

00015142 <_setlocale_r>:
   15142:	1141                	addi	sp,sp,-16
   15144:	c606                	sw	ra,12(sp)
   15146:	c226                	sw	s1,4(sp)
   15148:	c20d                	beqz	a2,1516a <_setlocale_r+0x28>
   1514a:	65ed                	lui	a1,0x1b
   1514c:	abc58593          	addi	a1,a1,-1348 # 1aabc <__clzsi2+0x122>
   15150:	8532                	mv	a0,a2
   15152:	c422                	sw	s0,8(sp)
   15154:	8432                	mv	s0,a2
   15156:	2ce9                	jal	15430 <strcmp>
   15158:	64ed                	lui	s1,0x1b
   1515a:	e911                	bnez	a0,1516e <_setlocale_r+0x2c>
   1515c:	4422                	lw	s0,8(sp)
   1515e:	ab848513          	addi	a0,s1,-1352 # 1aab8 <__clzsi2+0x11e>
   15162:	40b2                	lw	ra,12(sp)
   15164:	4492                	lw	s1,4(sp)
   15166:	0141                	addi	sp,sp,16
   15168:	8082                	ret
   1516a:	64ed                	lui	s1,0x1b
   1516c:	bfcd                	j	1515e <_setlocale_r+0x1c>
   1516e:	ab848593          	addi	a1,s1,-1352 # 1aab8 <__clzsi2+0x11e>
   15172:	8522                	mv	a0,s0
   15174:	2c75                	jal	15430 <strcmp>
   15176:	d17d                	beqz	a0,1515c <_setlocale_r+0x1a>
   15178:	65ed                	lui	a1,0x1b
   1517a:	b4058593          	addi	a1,a1,-1216 # 1ab40 <__clzsi2+0x1a6>
   1517e:	8522                	mv	a0,s0
   15180:	2c45                	jal	15430 <strcmp>
   15182:	dd69                	beqz	a0,1515c <_setlocale_r+0x1a>
   15184:	4422                	lw	s0,8(sp)
   15186:	4501                	li	a0,0
   15188:	bfe9                	j	15162 <_setlocale_r+0x20>

0001518a <__locale_mb_cur_max>:
   1518a:	e601c503          	lbu	a0,-416(gp) # 1c8d8 <__global_locale+0x128>
   1518e:	8082                	ret

00015190 <setlocale>:
   15190:	1141                	addi	sp,sp,-16
   15192:	c606                	sw	ra,12(sp)
   15194:	c226                	sw	s1,4(sp)
   15196:	c18d                	beqz	a1,151b8 <setlocale+0x28>
   15198:	c422                	sw	s0,8(sp)
   1519a:	842e                	mv	s0,a1
   1519c:	65ed                	lui	a1,0x1b
   1519e:	abc58593          	addi	a1,a1,-1348 # 1aabc <__clzsi2+0x122>
   151a2:	8522                	mv	a0,s0
   151a4:	2471                	jal	15430 <strcmp>
   151a6:	64ed                	lui	s1,0x1b
   151a8:	e911                	bnez	a0,151bc <setlocale+0x2c>
   151aa:	4422                	lw	s0,8(sp)
   151ac:	ab848513          	addi	a0,s1,-1352 # 1aab8 <__clzsi2+0x11e>
   151b0:	40b2                	lw	ra,12(sp)
   151b2:	4492                	lw	s1,4(sp)
   151b4:	0141                	addi	sp,sp,16
   151b6:	8082                	ret
   151b8:	64ed                	lui	s1,0x1b
   151ba:	bfcd                	j	151ac <setlocale+0x1c>
   151bc:	ab848593          	addi	a1,s1,-1352 # 1aab8 <__clzsi2+0x11e>
   151c0:	8522                	mv	a0,s0
   151c2:	24bd                	jal	15430 <strcmp>
   151c4:	d17d                	beqz	a0,151aa <setlocale+0x1a>
   151c6:	65ed                	lui	a1,0x1b
   151c8:	b4058593          	addi	a1,a1,-1216 # 1ab40 <__clzsi2+0x1a6>
   151cc:	8522                	mv	a0,s0
   151ce:	248d                	jal	15430 <strcmp>
   151d0:	dd69                	beqz	a0,151aa <setlocale+0x1a>
   151d2:	4422                	lw	s0,8(sp)
   151d4:	4501                	li	a0,0
   151d6:	bfe9                	j	151b0 <setlocale+0x20>

000151d8 <__localeconv_l>:
   151d8:	0f050513          	addi	a0,a0,240
   151dc:	8082                	ret

000151de <_localeconv_r>:
   151de:	e2818513          	addi	a0,gp,-472 # 1c8a0 <__global_locale+0xf0>
   151e2:	8082                	ret

000151e4 <localeconv>:
   151e4:	e2818513          	addi	a0,gp,-472 # 1c8a0 <__global_locale+0xf0>
   151e8:	8082                	ret

000151ea <__libc_fini_array>:
   151ea:	1141                	addi	sp,sp,-16
   151ec:	c422                	sw	s0,8(sp)
   151ee:	67f1                	lui	a5,0x1c
   151f0:	6471                	lui	s0,0x1c
   151f2:	27078793          	addi	a5,a5,624 # 1c270 <__do_global_dtors_aux_fini_array_entry>
   151f6:	27440413          	addi	s0,s0,628 # 1c274 <__fini_array_end>
   151fa:	8c1d                	sub	s0,s0,a5
   151fc:	c226                	sw	s1,4(sp)
   151fe:	c606                	sw	ra,12(sp)
   15200:	40245493          	srai	s1,s0,0x2
   15204:	c881                	beqz	s1,15214 <__libc_fini_array+0x2a>
   15206:	1471                	addi	s0,s0,-4
   15208:	943e                	add	s0,s0,a5
   1520a:	401c                	lw	a5,0(s0)
   1520c:	14fd                	addi	s1,s1,-1
   1520e:	1471                	addi	s0,s0,-4
   15210:	9782                	jalr	a5
   15212:	fce5                	bnez	s1,1520a <__libc_fini_array+0x20>
   15214:	40b2                	lw	ra,12(sp)
   15216:	4422                	lw	s0,8(sp)
   15218:	4492                	lw	s1,4(sp)
   1521a:	0141                	addi	sp,sp,16
   1521c:	8082                	ret

0001521e <memmove>:
   1521e:	02a5f263          	bgeu	a1,a0,15242 <memmove+0x24>
   15222:	00c58733          	add	a4,a1,a2
   15226:	00e57e63          	bgeu	a0,a4,15242 <memmove+0x24>
   1522a:	00c507b3          	add	a5,a0,a2
   1522e:	ca1d                	beqz	a2,15264 <memmove+0x46>
   15230:	fff74683          	lbu	a3,-1(a4)
   15234:	17fd                	addi	a5,a5,-1
   15236:	177d                	addi	a4,a4,-1
   15238:	00d78023          	sb	a3,0(a5)
   1523c:	fef51ae3          	bne	a0,a5,15230 <memmove+0x12>
   15240:	8082                	ret
   15242:	47bd                	li	a5,15
   15244:	02c7e163          	bltu	a5,a2,15266 <memmove+0x48>
   15248:	87aa                	mv	a5,a0
   1524a:	fff60693          	addi	a3,a2,-1
   1524e:	ca59                	beqz	a2,152e4 <memmove+0xc6>
   15250:	0685                	addi	a3,a3,1 # 2001 <exit-0xe093>
   15252:	96be                	add	a3,a3,a5
   15254:	0005c703          	lbu	a4,0(a1)
   15258:	0785                	addi	a5,a5,1
   1525a:	0585                	addi	a1,a1,1
   1525c:	fee78fa3          	sb	a4,-1(a5)
   15260:	fed79ae3          	bne	a5,a3,15254 <memmove+0x36>
   15264:	8082                	ret
   15266:	00b567b3          	or	a5,a0,a1
   1526a:	8b8d                	andi	a5,a5,3
   1526c:	eba5                	bnez	a5,152dc <memmove+0xbe>
   1526e:	ff060893          	addi	a7,a2,-16
   15272:	ff08f893          	andi	a7,a7,-16
   15276:	08c1                	addi	a7,a7,16
   15278:	011506b3          	add	a3,a0,a7
   1527c:	872e                	mv	a4,a1
   1527e:	87aa                	mv	a5,a0
   15280:	00072803          	lw	a6,0(a4)
   15284:	0741                	addi	a4,a4,16
   15286:	07c1                	addi	a5,a5,16
   15288:	ff07a823          	sw	a6,-16(a5)
   1528c:	ff472803          	lw	a6,-12(a4)
   15290:	ff07aa23          	sw	a6,-12(a5)
   15294:	ff872803          	lw	a6,-8(a4)
   15298:	ff07ac23          	sw	a6,-8(a5)
   1529c:	ffc72803          	lw	a6,-4(a4)
   152a0:	ff07ae23          	sw	a6,-4(a5)
   152a4:	fcd79ee3          	bne	a5,a3,15280 <memmove+0x62>
   152a8:	00c67813          	andi	a6,a2,12
   152ac:	95c6                	add	a1,a1,a7
   152ae:	00f67713          	andi	a4,a2,15
   152b2:	02080a63          	beqz	a6,152e6 <memmove+0xc8>
   152b6:	ffc70813          	addi	a6,a4,-4
   152ba:	ffc87813          	andi	a6,a6,-4
   152be:	0811                	addi	a6,a6,4
   152c0:	010687b3          	add	a5,a3,a6
   152c4:	872e                	mv	a4,a1
   152c6:	00072883          	lw	a7,0(a4)
   152ca:	0691                	addi	a3,a3,4
   152cc:	0711                	addi	a4,a4,4
   152ce:	ff16ae23          	sw	a7,-4(a3)
   152d2:	fef69ae3          	bne	a3,a5,152c6 <memmove+0xa8>
   152d6:	8a0d                	andi	a2,a2,3
   152d8:	95c2                	add	a1,a1,a6
   152da:	bf85                	j	1524a <memmove+0x2c>
   152dc:	fff60693          	addi	a3,a2,-1
   152e0:	87aa                	mv	a5,a0
   152e2:	b7bd                	j	15250 <memmove+0x32>
   152e4:	8082                	ret
   152e6:	863a                	mv	a2,a4
   152e8:	b78d                	j	1524a <memmove+0x2c>

000152ea <memcpy>:
   152ea:	00a5c7b3          	xor	a5,a1,a0
   152ee:	8b8d                	andi	a5,a5,3
   152f0:	00c508b3          	add	a7,a0,a2
   152f4:	e7b1                	bnez	a5,15340 <memcpy+0x56>
   152f6:	478d                	li	a5,3
   152f8:	04c7f463          	bgeu	a5,a2,15340 <memcpy+0x56>
   152fc:	00357793          	andi	a5,a0,3
   15300:	872a                	mv	a4,a0
   15302:	ebb9                	bnez	a5,15358 <memcpy+0x6e>
   15304:	ffc8f613          	andi	a2,a7,-4
   15308:	40e606b3          	sub	a3,a2,a4
   1530c:	02000793          	li	a5,32
   15310:	06d7c863          	blt	a5,a3,15380 <memcpy+0x96>
   15314:	86ae                	mv	a3,a1
   15316:	87ba                	mv	a5,a4
   15318:	02c77163          	bgeu	a4,a2,1533a <memcpy+0x50>
   1531c:	0006a803          	lw	a6,0(a3)
   15320:	0791                	addi	a5,a5,4
   15322:	0691                	addi	a3,a3,4
   15324:	ff07ae23          	sw	a6,-4(a5)
   15328:	fec7eae3          	bltu	a5,a2,1531c <memcpy+0x32>
   1532c:	fff60793          	addi	a5,a2,-1
   15330:	8f99                	sub	a5,a5,a4
   15332:	9bf1                	andi	a5,a5,-4
   15334:	0791                	addi	a5,a5,4
   15336:	973e                	add	a4,a4,a5
   15338:	95be                	add	a1,a1,a5
   1533a:	01176663          	bltu	a4,a7,15346 <memcpy+0x5c>
   1533e:	8082                	ret
   15340:	872a                	mv	a4,a0
   15342:	03157e63          	bgeu	a0,a7,1537e <memcpy+0x94>
   15346:	0005c783          	lbu	a5,0(a1)
   1534a:	0705                	addi	a4,a4,1
   1534c:	0585                	addi	a1,a1,1
   1534e:	fef70fa3          	sb	a5,-1(a4)
   15352:	fee89ae3          	bne	a7,a4,15346 <memcpy+0x5c>
   15356:	8082                	ret
   15358:	0005c683          	lbu	a3,0(a1)
   1535c:	0705                	addi	a4,a4,1
   1535e:	00377793          	andi	a5,a4,3
   15362:	fed70fa3          	sb	a3,-1(a4)
   15366:	0585                	addi	a1,a1,1
   15368:	dfd1                	beqz	a5,15304 <memcpy+0x1a>
   1536a:	0005c683          	lbu	a3,0(a1)
   1536e:	0705                	addi	a4,a4,1
   15370:	00377793          	andi	a5,a4,3
   15374:	fed70fa3          	sb	a3,-1(a4)
   15378:	0585                	addi	a1,a1,1
   1537a:	fff9                	bnez	a5,15358 <memcpy+0x6e>
   1537c:	b761                	j	15304 <memcpy+0x1a>
   1537e:	8082                	ret
   15380:	1141                	addi	sp,sp,-16
   15382:	c622                	sw	s0,12(sp)
   15384:	02000413          	li	s0,32
   15388:	0005a383          	lw	t2,0(a1)
   1538c:	0045a283          	lw	t0,4(a1)
   15390:	0085af83          	lw	t6,8(a1)
   15394:	00c5af03          	lw	t5,12(a1)
   15398:	0105ae83          	lw	t4,16(a1)
   1539c:	0145ae03          	lw	t3,20(a1)
   153a0:	0185a303          	lw	t1,24(a1)
   153a4:	01c5a803          	lw	a6,28(a1)
   153a8:	5194                	lw	a3,32(a1)
   153aa:	02470713          	addi	a4,a4,36
   153ae:	40e607b3          	sub	a5,a2,a4
   153b2:	fc772e23          	sw	t2,-36(a4)
   153b6:	fe572023          	sw	t0,-32(a4)
   153ba:	fff72223          	sw	t6,-28(a4)
   153be:	ffe72423          	sw	t5,-24(a4)
   153c2:	ffd72623          	sw	t4,-20(a4)
   153c6:	ffc72823          	sw	t3,-16(a4)
   153ca:	fe672a23          	sw	t1,-12(a4)
   153ce:	ff072c23          	sw	a6,-8(a4)
   153d2:	fed72e23          	sw	a3,-4(a4)
   153d6:	02458593          	addi	a1,a1,36
   153da:	faf447e3          	blt	s0,a5,15388 <memcpy+0x9e>
   153de:	86ae                	mv	a3,a1
   153e0:	87ba                	mv	a5,a4
   153e2:	02c77163          	bgeu	a4,a2,15404 <memcpy+0x11a>
   153e6:	0006a803          	lw	a6,0(a3)
   153ea:	0791                	addi	a5,a5,4
   153ec:	0691                	addi	a3,a3,4
   153ee:	ff07ae23          	sw	a6,-4(a5)
   153f2:	fec7eae3          	bltu	a5,a2,153e6 <memcpy+0xfc>
   153f6:	fff60793          	addi	a5,a2,-1
   153fa:	8f99                	sub	a5,a5,a4
   153fc:	9bf1                	andi	a5,a5,-4
   153fe:	0791                	addi	a5,a5,4
   15400:	973e                	add	a4,a4,a5
   15402:	95be                	add	a1,a1,a5
   15404:	01176563          	bltu	a4,a7,1540e <memcpy+0x124>
   15408:	4432                	lw	s0,12(sp)
   1540a:	0141                	addi	sp,sp,16
   1540c:	8082                	ret
   1540e:	0005c783          	lbu	a5,0(a1)
   15412:	0705                	addi	a4,a4,1
   15414:	0585                	addi	a1,a1,1
   15416:	fef70fa3          	sb	a5,-1(a4)
   1541a:	fee887e3          	beq	a7,a4,15408 <memcpy+0x11e>
   1541e:	0005c783          	lbu	a5,0(a1)
   15422:	0705                	addi	a4,a4,1
   15424:	0585                	addi	a1,a1,1
   15426:	fef70fa3          	sb	a5,-1(a4)
   1542a:	fee892e3          	bne	a7,a4,1540e <memcpy+0x124>
   1542e:	bfe9                	j	15408 <memcpy+0x11e>

00015430 <strcmp>:
   15430:	00b56733          	or	a4,a0,a1
   15434:	53fd                	li	t2,-1
   15436:	8b0d                	andi	a4,a4,3
   15438:	e779                	bnez	a4,15506 <strcmp+0xd6>
   1543a:	7f7f87b7          	lui	a5,0x7f7f8
   1543e:	f7f78793          	addi	a5,a5,-129 # 7f7f7f7f <__BSS_END__+0x7f7db2b3>
   15442:	4110                	lw	a2,0(a0)
   15444:	4194                	lw	a3,0(a1)
   15446:	00f672b3          	and	t0,a2,a5
   1544a:	00f66333          	or	t1,a2,a5
   1544e:	92be                	add	t0,t0,a5
   15450:	0062e2b3          	or	t0,t0,t1
   15454:	0c729763          	bne	t0,t2,15522 <strcmp+0xf2>
   15458:	06d61863          	bne	a2,a3,154c8 <strcmp+0x98>
   1545c:	4150                	lw	a2,4(a0)
   1545e:	41d4                	lw	a3,4(a1)
   15460:	00f672b3          	and	t0,a2,a5
   15464:	00f66333          	or	t1,a2,a5
   15468:	92be                	add	t0,t0,a5
   1546a:	0062e2b3          	or	t0,t0,t1
   1546e:	0a729863          	bne	t0,t2,1551e <strcmp+0xee>
   15472:	04d61b63          	bne	a2,a3,154c8 <strcmp+0x98>
   15476:	4510                	lw	a2,8(a0)
   15478:	4594                	lw	a3,8(a1)
   1547a:	00f672b3          	and	t0,a2,a5
   1547e:	00f66333          	or	t1,a2,a5
   15482:	92be                	add	t0,t0,a5
   15484:	0062e2b3          	or	t0,t0,t1
   15488:	0a729163          	bne	t0,t2,1552a <strcmp+0xfa>
   1548c:	02d61e63          	bne	a2,a3,154c8 <strcmp+0x98>
   15490:	4550                	lw	a2,12(a0)
   15492:	45d4                	lw	a3,12(a1)
   15494:	00f672b3          	and	t0,a2,a5
   15498:	00f66333          	or	t1,a2,a5
   1549c:	92be                	add	t0,t0,a5
   1549e:	0062e2b3          	or	t0,t0,t1
   154a2:	08729a63          	bne	t0,t2,15536 <strcmp+0x106>
   154a6:	02d61163          	bne	a2,a3,154c8 <strcmp+0x98>
   154aa:	4910                	lw	a2,16(a0)
   154ac:	4994                	lw	a3,16(a1)
   154ae:	00f672b3          	and	t0,a2,a5
   154b2:	00f66333          	or	t1,a2,a5
   154b6:	92be                	add	t0,t0,a5
   154b8:	0062e2b3          	or	t0,t0,t1
   154bc:	08729363          	bne	t0,t2,15542 <strcmp+0x112>
   154c0:	0551                	addi	a0,a0,20
   154c2:	05d1                	addi	a1,a1,20
   154c4:	f6d60fe3          	beq	a2,a3,15442 <strcmp+0x12>
   154c8:	01061713          	slli	a4,a2,0x10
   154cc:	01069793          	slli	a5,a3,0x10
   154d0:	00f71c63          	bne	a4,a5,154e8 <strcmp+0xb8>
   154d4:	01065713          	srli	a4,a2,0x10
   154d8:	0106d793          	srli	a5,a3,0x10
   154dc:	40f70533          	sub	a0,a4,a5
   154e0:	0ff57593          	zext.b	a1,a0
   154e4:	e991                	bnez	a1,154f8 <strcmp+0xc8>
   154e6:	8082                	ret
   154e8:	8341                	srli	a4,a4,0x10
   154ea:	83c1                	srli	a5,a5,0x10
   154ec:	40f70533          	sub	a0,a4,a5
   154f0:	0ff57593          	zext.b	a1,a0
   154f4:	e191                	bnez	a1,154f8 <strcmp+0xc8>
   154f6:	8082                	ret
   154f8:	0ff77713          	zext.b	a4,a4
   154fc:	0ff7f793          	zext.b	a5,a5
   15500:	40f70533          	sub	a0,a4,a5
   15504:	8082                	ret
   15506:	00054603          	lbu	a2,0(a0)
   1550a:	0005c683          	lbu	a3,0(a1)
   1550e:	0505                	addi	a0,a0,1
   15510:	0585                	addi	a1,a1,1
   15512:	00d61363          	bne	a2,a3,15518 <strcmp+0xe8>
   15516:	fa65                	bnez	a2,15506 <strcmp+0xd6>
   15518:	40d60533          	sub	a0,a2,a3
   1551c:	8082                	ret
   1551e:	0511                	addi	a0,a0,4
   15520:	0591                	addi	a1,a1,4
   15522:	fed612e3          	bne	a2,a3,15506 <strcmp+0xd6>
   15526:	4501                	li	a0,0
   15528:	8082                	ret
   1552a:	0521                	addi	a0,a0,8
   1552c:	05a1                	addi	a1,a1,8
   1552e:	fcd61ce3          	bne	a2,a3,15506 <strcmp+0xd6>
   15532:	4501                	li	a0,0
   15534:	8082                	ret
   15536:	0531                	addi	a0,a0,12
   15538:	05b1                	addi	a1,a1,12
   1553a:	fcd616e3          	bne	a2,a3,15506 <strcmp+0xd6>
   1553e:	4501                	li	a0,0
   15540:	8082                	ret
   15542:	0541                	addi	a0,a0,16
   15544:	05c1                	addi	a1,a1,16
   15546:	fcd610e3          	bne	a2,a3,15506 <strcmp+0xd6>
   1554a:	4501                	li	a0,0
   1554c:	8082                	ret

0001554e <frexpl>:
   1554e:	7159                	addi	sp,sp,-112
   15550:	d0ca                	sw	s2,96(sp)
   15552:	00c5a903          	lw	s2,12(a1)
   15556:	ccd2                	sw	s4,88(sp)
   15558:	cad6                	sw	s5,84(sp)
   1555a:	c8da                	sw	s6,80(sp)
   1555c:	0045aa83          	lw	s5,4(a1)
   15560:	0005ab03          	lw	s6,0(a1)
   15564:	0085aa03          	lw	s4,8(a1)
   15568:	cece                	sw	s3,92(sp)
   1556a:	69a1                	lui	s3,0x8
   1556c:	d4a2                	sw	s0,104(sp)
   1556e:	d2a6                	sw	s1,100(sp)
   15570:	d686                	sw	ra,108(sp)
   15572:	01095493          	srli	s1,s2,0x10
   15576:	19fd                	addi	s3,s3,-1 # 7fff <exit-0x8095>
   15578:	d85a                	sw	s6,48(sp)
   1557a:	da56                	sw	s5,52(sp)
   1557c:	dc52                	sw	s4,56(sp)
   1557e:	de4a                	sw	s2,60(sp)
   15580:	0134f4b3          	and	s1,s1,s3
   15584:	00062023          	sw	zero,0(a2)
   15588:	842a                	mv	s0,a0
   1558a:	05348763          	beq	s1,s3,155d8 <frexpl+0x8a>
   1558e:	080c                	addi	a1,sp,16
   15590:	1008                	addi	a0,sp,32
   15592:	c6de                	sw	s7,76(sp)
   15594:	d05a                	sw	s6,32(sp)
   15596:	8bb2                	mv	s7,a2
   15598:	d256                	sw	s5,36(sp)
   1559a:	d452                	sw	s4,40(sp)
   1559c:	d64a                	sw	s2,44(sp)
   1559e:	c802                	sw	zero,16(sp)
   155a0:	ca02                	sw	zero,20(sp)
   155a2:	cc02                	sw	zero,24(sp)
   155a4:	ce02                	sw	zero,28(sp)
   155a6:	785020ef          	jal	1852a <__eqtf2>
   155aa:	c941                	beqz	a0,1563a <frexpl+0xec>
   155ac:	4681                	li	a3,0
   155ae:	c8a1                	beqz	s1,155fe <frexpl+0xb0>
   155b0:	7771                	lui	a4,0xffffc
   155b2:	0709                	addi	a4,a4,2 # ffffc002 <__BSS_END__+0xfffdf336>
   155b4:	5972                	lw	s2,60(sp)
   155b6:	94ba                	add	s1,s1,a4
   155b8:	800107b7          	lui	a5,0x80010
   155bc:	94b6                	add	s1,s1,a3
   155be:	17fd                	addi	a5,a5,-1 # 8000ffff <__BSS_END__+0x7fff3333>
   155c0:	009ba023          	sw	s1,0(s7)
   155c4:	5b42                	lw	s6,48(sp)
   155c6:	5ad2                	lw	s5,52(sp)
   155c8:	5a62                	lw	s4,56(sp)
   155ca:	4bb6                	lw	s7,76(sp)
   155cc:	00f97933          	and	s2,s2,a5
   155d0:	3ffe07b7          	lui	a5,0x3ffe0
   155d4:	00f96933          	or	s2,s2,a5
   155d8:	01642023          	sw	s6,0(s0)
   155dc:	01542223          	sw	s5,4(s0)
   155e0:	01442423          	sw	s4,8(s0)
   155e4:	01242623          	sw	s2,12(s0)
   155e8:	50b6                	lw	ra,108(sp)
   155ea:	8522                	mv	a0,s0
   155ec:	5426                	lw	s0,104(sp)
   155ee:	5496                	lw	s1,100(sp)
   155f0:	5906                	lw	s2,96(sp)
   155f2:	49f6                	lw	s3,92(sp)
   155f4:	4a66                	lw	s4,88(sp)
   155f6:	4ad6                	lw	s5,84(sp)
   155f8:	4b46                	lw	s6,80(sp)
   155fa:	6165                	addi	sp,sp,112
   155fc:	8082                	ret
   155fe:	407107b7          	lui	a5,0x40710
   15602:	860a                	mv	a2,sp
   15604:	080c                	addi	a1,sp,16
   15606:	1008                	addi	a0,sp,32
   15608:	c63e                	sw	a5,12(sp)
   1560a:	c85a                	sw	s6,16(sp)
   1560c:	ca56                	sw	s5,20(sp)
   1560e:	cc52                	sw	s4,24(sp)
   15610:	ce4a                	sw	s2,28(sp)
   15612:	c002                	sw	zero,0(sp)
   15614:	c202                	sw	zero,4(sp)
   15616:	c402                	sw	zero,8(sp)
   15618:	1d6030ef          	jal	187ee <__multf3>
   1561c:	5702                	lw	a4,32(sp)
   1561e:	57b2                	lw	a5,44(sp)
   15620:	f8e00693          	li	a3,-114
   15624:	d83a                	sw	a4,48(sp)
   15626:	5712                	lw	a4,36(sp)
   15628:	0107d493          	srli	s1,a5,0x10
   1562c:	de3e                	sw	a5,60(sp)
   1562e:	da3a                	sw	a4,52(sp)
   15630:	5722                	lw	a4,40(sp)
   15632:	0134f4b3          	and	s1,s1,s3
   15636:	dc3a                	sw	a4,56(sp)
   15638:	bfa5                	j	155b0 <frexpl+0x62>
   1563a:	4bb6                	lw	s7,76(sp)
   1563c:	bf71                	j	155d8 <frexpl+0x8a>

0001563e <__register_exitproc>:
   1563e:	f3c1a783          	lw	a5,-196(gp) # 1c9b4 <__atexit>
   15642:	c3a1                	beqz	a5,15682 <__register_exitproc+0x44>
   15644:	43d8                	lw	a4,4(a5)
   15646:	487d                	li	a6,31
   15648:	04e84f63          	blt	a6,a4,156a6 <__register_exitproc+0x68>
   1564c:	00271813          	slli	a6,a4,0x2
   15650:	c11d                	beqz	a0,15676 <__register_exitproc+0x38>
   15652:	01078333          	add	t1,a5,a6
   15656:	08c32423          	sw	a2,136(t1)
   1565a:	1887a883          	lw	a7,392(a5) # 40710188 <__BSS_END__+0x406f34bc>
   1565e:	4605                	li	a2,1
   15660:	00e61633          	sll	a2,a2,a4
   15664:	00c8e8b3          	or	a7,a7,a2
   15668:	1917a423          	sw	a7,392(a5)
   1566c:	10d32423          	sw	a3,264(t1)
   15670:	4689                	li	a3,2
   15672:	00d50f63          	beq	a0,a3,15690 <__register_exitproc+0x52>
   15676:	0705                	addi	a4,a4,1
   15678:	c3d8                	sw	a4,4(a5)
   1567a:	97c2                	add	a5,a5,a6
   1567c:	c78c                	sw	a1,8(a5)
   1567e:	4501                	li	a0,0
   15680:	8082                	ret
   15682:	0c418813          	addi	a6,gp,196 # 1cb3c <__atexit0>
   15686:	f301ae23          	sw	a6,-196(gp) # 1c9b4 <__atexit>
   1568a:	0c418793          	addi	a5,gp,196 # 1cb3c <__atexit0>
   1568e:	bf5d                	j	15644 <__register_exitproc+0x6>
   15690:	18c7a683          	lw	a3,396(a5)
   15694:	0705                	addi	a4,a4,1
   15696:	c3d8                	sw	a4,4(a5)
   15698:	8ed1                	or	a3,a3,a2
   1569a:	18d7a623          	sw	a3,396(a5)
   1569e:	97c2                	add	a5,a5,a6
   156a0:	c78c                	sw	a1,8(a5)
   156a2:	4501                	li	a0,0
   156a4:	8082                	ret
   156a6:	557d                	li	a0,-1
   156a8:	8082                	ret

000156aa <_ldtoa_r>:
   156aa:	68ed                	lui	a7,0x1b
   156ac:	f2488893          	addi	a7,a7,-220 # 1af24 <blanks.1+0x10>
   156b0:	0008af83          	lw	t6,0(a7)
   156b4:	0048af03          	lw	t5,4(a7)
   156b8:	0088ae83          	lw	t4,8(a7)
   156bc:	00c8ae03          	lw	t3,12(a7)
   156c0:	0108a303          	lw	t1,16(a7)
   156c4:	03852883          	lw	a7,56(a0)
   156c8:	7171                	addi	sp,sp,-176
   156ca:	d14a                	sw	s2,160(sp)
   156cc:	cf4e                	sw	s3,156(sp)
   156ce:	cd52                	sw	s4,152(sp)
   156d0:	c95a                	sw	s6,144(sp)
   156d2:	c75e                	sw	s7,140(sp)
   156d4:	c562                	sw	s8,136(sp)
   156d6:	c366                	sw	s9,132(sp)
   156d8:	c16a                	sw	s10,128(sp)
   156da:	d706                	sw	ra,172(sp)
   156dc:	d522                	sw	s0,168(sp)
   156de:	d326                	sw	s1,164(sp)
   156e0:	cb56                	sw	s5,148(sp)
   156e2:	deee                	sw	s11,124(sp)
   156e4:	cefe                	sw	t6,92(sp)
   156e6:	d0fa                	sw	t5,96(sp)
   156e8:	d2f6                	sw	t4,100(sp)
   156ea:	d4f2                	sw	t3,104(sp)
   156ec:	d69a                	sw	t1,108(sp)
   156ee:	cc32                	sw	a2,24(sp)
   156f0:	ce36                	sw	a3,28(sp)
   156f2:	0005aa03          	lw	s4,0(a1)
   156f6:	0045a983          	lw	s3,4(a1)
   156fa:	0085a903          	lw	s2,8(a1)
   156fe:	00c5ac03          	lw	s8,12(a1)
   15702:	8b2a                	mv	s6,a0
   15704:	8bba                	mv	s7,a4
   15706:	8cbe                	mv	s9,a5
   15708:	8d42                	mv	s10,a6
   1570a:	00088f63          	beqz	a7,15728 <_ldtoa_r+0x7e>
   1570e:	5d54                	lw	a3,60(a0)
   15710:	4705                	li	a4,1
   15712:	85c6                	mv	a1,a7
   15714:	00d71733          	sll	a4,a4,a3
   15718:	00d8a223          	sw	a3,4(a7)
   1571c:	00e8a423          	sw	a4,8(a7)
   15720:	50e010ef          	jal	16c2e <_Bfree>
   15724:	020b2c23          	sw	zero,56(s6)
   15728:	5626                	lw	a2,104(sp)
   1572a:	01fc5693          	srli	a3,s8,0x1f
   1572e:	001c1a93          	slli	s5,s8,0x1
   15732:	40165713          	srai	a4,a2,0x1
   15736:	74f1                	lui	s1,0xffffc
   15738:	001c1413          	slli	s0,s8,0x1
   1573c:	8f75                	and	a4,a4,a3
   1573e:	011ada93          	srli	s5,s5,0x11
   15742:	f9148493          	addi	s1,s1,-111 # ffffbf91 <__BSS_END__+0xfffdf2c5>
   15746:	010c1d93          	slli	s11,s8,0x10
   1574a:	00dca023          	sw	a3,0(s9)
   1574e:	8005                	srli	s0,s0,0x1
   15750:	8f31                	xor	a4,a4,a2
   15752:	010ddd93          	srli	s11,s11,0x10
   15756:	009a87b3          	add	a5,s5,s1
   1575a:	100c                	addi	a1,sp,32
   1575c:	1808                	addi	a0,sp,48
   1575e:	d852                	sw	s4,48(sp)
   15760:	da4e                	sw	s3,52(sp)
   15762:	dc4a                	sw	s2,56(sp)
   15764:	de22                	sw	s0,60(sp)
   15766:	d052                	sw	s4,32(sp)
   15768:	d24e                	sw	s3,36(sp)
   1576a:	d44a                	sw	s2,40(sp)
   1576c:	d622                	sw	s0,44(sp)
   1576e:	d4ba                	sw	a4,104(sp)
   15770:	ca3e                	sw	a5,20(sp)
   15772:	c6d2                	sw	s4,76(sp)
   15774:	c8ce                	sw	s3,80(sp)
   15776:	caca                	sw	s2,84(sp)
   15778:	ccee                	sw	s11,88(sp)
   1577a:	5f3040ef          	jal	1a56c <__unordtf2>
   1577e:	e979                	bnez	a0,15854 <_ldtoa_r+0x1aa>
   15780:	7fff0cb7          	lui	s9,0x7fff0
   15784:	54fd                	li	s1,-1
   15786:	1cfd                	addi	s9,s9,-1 # 7ffeffff <__BSS_END__+0x7ffd3333>
   15788:	100c                	addi	a1,sp,32
   1578a:	1808                	addi	a0,sp,48
   1578c:	d852                	sw	s4,48(sp)
   1578e:	da4e                	sw	s3,52(sp)
   15790:	dc4a                	sw	s2,56(sp)
   15792:	de22                	sw	s0,60(sp)
   15794:	d026                	sw	s1,32(sp)
   15796:	d226                	sw	s1,36(sp)
   15798:	d426                	sw	s1,40(sp)
   1579a:	d666                	sw	s9,44(sp)
   1579c:	5d1040ef          	jal	1a56c <__unordtf2>
   157a0:	ed21                	bnez	a0,157f8 <_ldtoa_r+0x14e>
   157a2:	100c                	addi	a1,sp,32
   157a4:	1808                	addi	a0,sp,48
   157a6:	75d020ef          	jal	18702 <__letf2>
   157aa:	04a05763          	blez	a0,157f8 <_ldtoa_r+0x14e>
   157ae:	478d                	li	a5,3
   157b0:	c4be                	sw	a5,72(sp)
   157b2:	47e2                	lw	a5,24(sp)
   157b4:	4872                	lw	a6,28(sp)
   157b6:	4652                	lw	a2,20(sp)
   157b8:	00b8                	addi	a4,sp,72
   157ba:	c06a                	sw	s10,0(sp)
   157bc:	88de                	mv	a7,s7
   157be:	00f4                	addi	a3,sp,76
   157c0:	08ec                	addi	a1,sp,92
   157c2:	855a                	mv	a0,s6
   157c4:	2235                	jal	158f0 <__gdtoa>
   157c6:	000ba703          	lw	a4,0(s7)
   157ca:	77e1                	lui	a5,0xffff8
   157cc:	00f71763          	bne	a4,a5,157da <_ldtoa_r+0x130>
   157d0:	800007b7          	lui	a5,0x80000
   157d4:	17fd                	addi	a5,a5,-1 # 7fffffff <__BSS_END__+0x7ffe3333>
   157d6:	00fba023          	sw	a5,0(s7)
   157da:	50ba                	lw	ra,172(sp)
   157dc:	542a                	lw	s0,168(sp)
   157de:	549a                	lw	s1,164(sp)
   157e0:	590a                	lw	s2,160(sp)
   157e2:	49fa                	lw	s3,156(sp)
   157e4:	4a6a                	lw	s4,152(sp)
   157e6:	4ada                	lw	s5,148(sp)
   157e8:	4b4a                	lw	s6,144(sp)
   157ea:	4bba                	lw	s7,140(sp)
   157ec:	4c2a                	lw	s8,136(sp)
   157ee:	4c9a                	lw	s9,132(sp)
   157f0:	4d0a                	lw	s10,128(sp)
   157f2:	5df6                	lw	s11,124(sp)
   157f4:	614d                	addi	sp,sp,176
   157f6:	8082                	ret
   157f8:	67c1                	lui	a5,0x10
   157fa:	100c                	addi	a1,sp,32
   157fc:	1808                	addi	a0,sp,48
   157fe:	d852                	sw	s4,48(sp)
   15800:	da4e                	sw	s3,52(sp)
   15802:	dc4a                	sw	s2,56(sp)
   15804:	de22                	sw	s0,60(sp)
   15806:	d002                	sw	zero,32(sp)
   15808:	d202                	sw	zero,36(sp)
   1580a:	d402                	sw	zero,40(sp)
   1580c:	d63e                	sw	a5,44(sp)
   1580e:	609020ef          	jal	18616 <__getf2>
   15812:	00054963          	bltz	a0,15824 <_ldtoa_r+0x17a>
   15816:	67c1                	lui	a5,0x10
   15818:	00fdedb3          	or	s11,s11,a5
   1581c:	4785                	li	a5,1
   1581e:	c4be                	sw	a5,72(sp)
   15820:	ccee                	sw	s11,88(sp)
   15822:	bf41                	j	157b2 <_ldtoa_r+0x108>
   15824:	100c                	addi	a1,sp,32
   15826:	1808                	addi	a0,sp,48
   15828:	d852                	sw	s4,48(sp)
   1582a:	da4e                	sw	s3,52(sp)
   1582c:	dc4a                	sw	s2,56(sp)
   1582e:	de62                	sw	s8,60(sp)
   15830:	d002                	sw	zero,32(sp)
   15832:	d202                	sw	zero,36(sp)
   15834:	d402                	sw	zero,40(sp)
   15836:	d602                	sw	zero,44(sp)
   15838:	4f3020ef          	jal	1852a <__eqtf2>
   1583c:	e119                	bnez	a0,15842 <_ldtoa_r+0x198>
   1583e:	c482                	sw	zero,72(sp)
   15840:	bf8d                	j	157b2 <_ldtoa_r+0x108>
   15842:	74f1                	lui	s1,0xffffc
   15844:	4789                	li	a5,2
   15846:	f9248493          	addi	s1,s1,-110 # ffffbf92 <__BSS_END__+0xfffdf2c6>
   1584a:	c4be                	sw	a5,72(sp)
   1584c:	009a87b3          	add	a5,s5,s1
   15850:	ca3e                	sw	a5,20(sp)
   15852:	b785                	j	157b2 <_ldtoa_r+0x108>
   15854:	4791                	li	a5,4
   15856:	c4be                	sw	a5,72(sp)
   15858:	bfa9                	j	157b2 <_ldtoa_r+0x108>

0001585a <_ldcheck>:
   1585a:	7139                	addi	sp,sp,-64
   1585c:	da26                	sw	s1,52(sp)
   1585e:	4544                	lw	s1,12(a0)
   15860:	d64e                	sw	s3,44(sp)
   15862:	d452                	sw	s4,40(sp)
   15864:	00852983          	lw	s3,8(a0)
   15868:	00452a03          	lw	s4,4(a0)
   1586c:	d256                	sw	s5,36(sp)
   1586e:	00052a83          	lw	s5,0(a0)
   15872:	0486                	slli	s1,s1,0x1
   15874:	8085                	srli	s1,s1,0x1
   15876:	858a                	mv	a1,sp
   15878:	0808                	addi	a0,sp,16
   1587a:	de06                	sw	ra,60(sp)
   1587c:	c856                	sw	s5,16(sp)
   1587e:	ca52                	sw	s4,20(sp)
   15880:	cc4e                	sw	s3,24(sp)
   15882:	ce26                	sw	s1,28(sp)
   15884:	c056                	sw	s5,0(sp)
   15886:	c252                	sw	s4,4(sp)
   15888:	c44e                	sw	s3,8(sp)
   1588a:	c626                	sw	s1,12(sp)
   1588c:	4e1040ef          	jal	1a56c <__unordtf2>
   15890:	e921                	bnez	a0,158e0 <_ldcheck+0x86>
   15892:	d05a                	sw	s6,32(sp)
   15894:	7fff0b37          	lui	s6,0x7fff0
   15898:	d84a                	sw	s2,48(sp)
   1589a:	1b7d                	addi	s6,s6,-1 # 7ffeffff <__BSS_END__+0x7ffd3333>
   1589c:	597d                	li	s2,-1
   1589e:	858a                	mv	a1,sp
   158a0:	0808                	addi	a0,sp,16
   158a2:	dc22                	sw	s0,56(sp)
   158a4:	c04a                	sw	s2,0(sp)
   158a6:	c24a                	sw	s2,4(sp)
   158a8:	c44a                	sw	s2,8(sp)
   158aa:	c65a                	sw	s6,12(sp)
   158ac:	4405                	li	s0,1
   158ae:	4bf040ef          	jal	1a56c <__unordtf2>
   158b2:	c105                	beqz	a0,158d2 <_ldcheck+0x78>
   158b4:	50f2                	lw	ra,60(sp)
   158b6:	00144513          	xori	a0,s0,1
   158ba:	5462                	lw	s0,56(sp)
   158bc:	0ff57513          	zext.b	a0,a0
   158c0:	5942                	lw	s2,48(sp)
   158c2:	5b02                	lw	s6,32(sp)
   158c4:	54d2                	lw	s1,52(sp)
   158c6:	59b2                	lw	s3,44(sp)
   158c8:	5a22                	lw	s4,40(sp)
   158ca:	5a92                	lw	s5,36(sp)
   158cc:	0506                	slli	a0,a0,0x1
   158ce:	6121                	addi	sp,sp,64
   158d0:	8082                	ret
   158d2:	858a                	mv	a1,sp
   158d4:	0808                	addi	a0,sp,16
   158d6:	62d020ef          	jal	18702 <__letf2>
   158da:	00152413          	slti	s0,a0,1
   158de:	bfd9                	j	158b4 <_ldcheck+0x5a>
   158e0:	50f2                	lw	ra,60(sp)
   158e2:	54d2                	lw	s1,52(sp)
   158e4:	59b2                	lw	s3,44(sp)
   158e6:	5a22                	lw	s4,40(sp)
   158e8:	5a92                	lw	s5,36(sp)
   158ea:	4505                	li	a0,1
   158ec:	6121                	addi	sp,sp,64
   158ee:	8082                	ret

000158f0 <__gdtoa>:
   158f0:	7171                	addi	sp,sp,-176
   158f2:	cb56                	sw	s5,148(sp)
   158f4:	00072a83          	lw	s5,0(a4)
   158f8:	d326                	sw	s1,164(sp)
   158fa:	c75e                	sw	s7,140(sp)
   158fc:	fcfafe13          	andi	t3,s5,-49
   15900:	d706                	sw	ra,172(sp)
   15902:	01c72023          	sw	t3,0(a4)
   15906:	8bba                	mv	s7,a4
   15908:	574a                	lw	a4,176(sp)
   1590a:	00fafe13          	andi	t3,s5,15
   1590e:	4e8d                	li	t4,3
   15910:	c63a                	sw	a4,12(sp)
   15912:	c832                	sw	a2,16(sp)
   15914:	d442                	sw	a6,40(sp)
   15916:	84c6                	mv	s1,a7
   15918:	4fde0263          	beq	t3,t4,15dfc <__gdtoa+0x50c>
   1591c:	c95a                	sw	s6,144(sp)
   1591e:	00cafb13          	andi	s6,s5,12
   15922:	460b1b63          	bnez	s6,15d98 <__gdtoa+0x4a8>
   15926:	d522                	sw	s0,168(sp)
   15928:	842a                	mv	s0,a0
   1592a:	4a0e0563          	beqz	t3,15dd4 <__gdtoa+0x4e4>
   1592e:	c16a                	sw	s10,128(sp)
   15930:	0005ad03          	lw	s10,0(a1)
   15934:	d14a                	sw	s2,160(sp)
   15936:	cf4e                	sw	s3,156(sp)
   15938:	cd52                	sw	s4,152(sp)
   1593a:	c366                	sw	s9,132(sp)
   1593c:	02000613          	li	a2,32
   15940:	8a2e                	mv	s4,a1
   15942:	893e                	mv	s2,a5
   15944:	89b6                	mv	s3,a3
   15946:	4581                	li	a1,0
   15948:	02000793          	li	a5,32
   1594c:	01a65663          	bge	a2,s10,15958 <__gdtoa+0x68>
   15950:	0786                	slli	a5,a5,0x1
   15952:	0585                	addi	a1,a1,1
   15954:	ffa7cee3          	blt	a5,s10,15950 <__gdtoa+0x60>
   15958:	8522                	mv	a0,s0
   1595a:	268010ef          	jal	16bc2 <_Balloc>
   1595e:	8caa                	mv	s9,a0
   15960:	68050163          	beqz	a0,15fe2 <__gdtoa+0x6f2>
   15964:	fffd0893          	addi	a7,s10,-1
   15968:	4058d893          	srai	a7,a7,0x5
   1596c:	00289513          	slli	a0,a7,0x2
   15970:	c562                	sw	s8,136(sp)
   15972:	deee                	sw	s11,124(sp)
   15974:	954e                	add	a0,a0,s3
   15976:	014c8613          	addi	a2,s9,20
   1597a:	87ce                	mv	a5,s3
   1597c:	4398                	lw	a4,0(a5)
   1597e:	0791                	addi	a5,a5,4 # 10004 <exit-0x90>
   15980:	0611                	addi	a2,a2,4
   15982:	fee62e23          	sw	a4,-4(a2)
   15986:	fef57be3          	bgeu	a0,a5,1597c <__gdtoa+0x8c>
   1598a:	0505                	addi	a0,a0,1
   1598c:	00198793          	addi	a5,s3,1
   15990:	4611                	li	a2,4
   15992:	00f56563          	bltu	a0,a5,1599c <__gdtoa+0xac>
   15996:	088a                	slli	a7,a7,0x2
   15998:	00488613          	addi	a2,a7,4
   1599c:	40265d93          	srai	s11,a2,0x2
   159a0:	9666                	add	a2,a2,s9
   159a2:	a021                	j	159aa <__gdtoa+0xba>
   159a4:	1671                	addi	a2,a2,-4
   159a6:	480d8f63          	beqz	s11,15e44 <__gdtoa+0x554>
   159aa:	4a1c                	lw	a5,16(a2)
   159ac:	8c6e                	mv	s8,s11
   159ae:	1dfd                	addi	s11,s11,-1
   159b0:	dbf5                	beqz	a5,159a4 <__gdtoa+0xb4>
   159b2:	004d8793          	addi	a5,s11,4
   159b6:	078a                	slli	a5,a5,0x2
   159b8:	97e6                	add	a5,a5,s9
   159ba:	43c8                	lw	a0,4(a5)
   159bc:	018ca823          	sw	s8,16(s9)
   159c0:	0c16                	slli	s8,s8,0x5
   159c2:	42a010ef          	jal	16dec <__hi0bits>
   159c6:	40ac0db3          	sub	s11,s8,a0
   159ca:	8566                	mv	a0,s9
   159cc:	176010ef          	jal	16b42 <__trailz_D2A>
   159d0:	d6aa                	sw	a0,108(sp)
   159d2:	4c42                	lw	s8,16(sp)
   159d4:	48051c63          	bnez	a0,15e6c <__gdtoa+0x57c>
   159d8:	010ca603          	lw	a2,16(s9)
   159dc:	3e060163          	beqz	a2,15dbe <__gdtoa+0x4ce>
   159e0:	10ec                	addi	a1,sp,108
   159e2:	8566                	mv	a0,s9
   159e4:	2fb010ef          	jal	174de <__b2d>
   159e8:	00c59613          	slli	a2,a1,0xc
   159ec:	8231                	srli	a2,a2,0xc
   159ee:	3ff005b7          	lui	a1,0x3ff00
   159f2:	8f2a                	mv	t5,a0
   159f4:	8e4d                	or	a2,a2,a1
   159f6:	cc7a                	sw	t5,24(sp)
   159f8:	ce32                	sw	a2,28(sp)
   159fa:	eb81b707          	fld	fa4,-328(gp) # 1c930 <__SDATA_BEGIN__+0x10>
   159fe:	27e2                	fld	fa5,24(sp)
   15a00:	ec01b687          	fld	fa3,-320(gp) # 1c938 <__SDATA_BEGIN__+0x18>
   15a04:	0ae7f753          	fsub.d	fa4,fa5,fa4
   15a08:	ec81b787          	fld	fa5,-312(gp) # 1c940 <__SDATA_BEGIN__+0x20>
   15a0c:	01bc08b3          	add	a7,s8,s11
   15a10:	fff88593          	addi	a1,a7,-1
   15a14:	852e                	mv	a0,a1
   15a16:	7ad77743          	fmadd.d	fa4,fa4,fa3,fa5
   15a1a:	d20587d3          	fcvt.d.w	fa5,a1
   15a1e:	ed01b687          	fld	fa3,-304(gp) # 1c948 <__SDATA_BEGIN__+0x28>
   15a22:	72d7f7c3          	fmadd.d	fa5,fa5,fa3,fa4
   15a26:	0005d563          	bgez	a1,15a30 <__gdtoa+0x140>
   15a2a:	4505                	li	a0,1
   15a2c:	41150533          	sub	a0,a0,a7
   15a30:	bcb50513          	addi	a0,a0,-1077
   15a34:	00a05863          	blez	a0,15a44 <__gdtoa+0x154>
   15a38:	d20506d3          	fcvt.d.w	fa3,a0
   15a3c:	ed81b707          	fld	fa4,-296(gp) # 1c950 <__SDATA_BEGIN__+0x30>
   15a40:	7ae6f7c3          	fmadd.d	fa5,fa3,fa4,fa5
   15a44:	d2000753          	fcvt.d.w	fa4,zero
   15a48:	c2079853          	fcvt.w.d	a6,fa5,rtz
   15a4c:	a2e79553          	flt.d	a0,fa5,fa4
   15a50:	c909                	beqz	a0,15a62 <__gdtoa+0x172>
   15a52:	d2080753          	fcvt.d.w	fa4,a6
   15a56:	a2f72553          	feq.d	a0,fa4,fa5
   15a5a:	00153513          	seqz	a0,a0
   15a5e:	40a80833          	sub	a6,a6,a0
   15a62:	01459e93          	slli	t4,a1,0x14
   15a66:	40bd8533          	sub	a0,s11,a1
   15a6a:	45d9                	li	a1,22
   15a6c:	00ce8fb3          	add	t6,t4,a2
   15a70:	fff50e93          	addi	t4,a0,-1
   15a74:	3d05eb63          	bltu	a1,a6,15e4a <__gdtoa+0x55a>
   15a78:	65ed                	lui	a1,0x1b
   15a7a:	00381613          	slli	a2,a6,0x3
   15a7e:	f9858593          	addi	a1,a1,-104 # 1af98 <__mprec_tens>
   15a82:	962e                	add	a2,a2,a1
   15a84:	cc7a                	sw	t5,24(sp)
   15a86:	ce7e                	sw	t6,28(sp)
   15a88:	221c                	fld	fa5,0(a2)
   15a8a:	2762                	fld	fa4,24(sp)
   15a8c:	a2f71653          	flt.d	a2,fa4,fa5
   15a90:	58061163          	bnez	a2,16012 <__gdtoa+0x722>
   15a94:	ca82                	sw	zero,84(sp)
   15a96:	cc02                	sw	zero,24(sp)
   15a98:	00a04763          	bgtz	a0,15aa6 <__gdtoa+0x1b6>
   15a9c:	4605                	li	a2,1
   15a9e:	40a607b3          	sub	a5,a2,a0
   15aa2:	cc3e                	sw	a5,24(sp)
   15aa4:	4e81                	li	t4,0
   15aa6:	9ec2                	add	t4,t4,a6
   15aa8:	da42                	sw	a6,52(sp)
   15aaa:	d802                	sw	zero,48(sp)
   15aac:	4625                	li	a2,9
   15aae:	3d266a63          	bltu	a2,s2,15e82 <__gdtoa+0x592>
   15ab2:	4615                	li	a2,5
   15ab4:	57264263          	blt	a2,s2,16018 <__gdtoa+0x728>
   15ab8:	3fd88893          	addi	a7,a7,1021
   15abc:	7f88b793          	sltiu	a5,a7,2040
   15ac0:	4591                	li	a1,4
   15ac2:	ccbe                	sw	a5,88(sp)
   15ac4:	18b909e3          	beq	s2,a1,16456 <__gdtoa+0xb66>
   15ac8:	18c903e3          	beq	s2,a2,1644e <__gdtoa+0xb5e>
   15acc:	4609                	li	a2,2
   15ace:	18c907e3          	beq	s2,a2,1645c <__gdtoa+0xb6c>
   15ad2:	460d                	li	a2,3
   15ad4:	c882                	sw	zero,80(sp)
   15ad6:	3ac91c63          	bne	s2,a2,15e8e <__gdtoa+0x59e>
   15ada:	57d2                	lw	a5,52(sp)
   15adc:	5722                	lw	a4,40(sp)
   15ade:	97ba                	add	a5,a5,a4
   15ae0:	cebe                	sw	a5,92(sp)
   15ae2:	0785                	addi	a5,a5,1
   15ae4:	d63e                	sw	a5,44(sp)
   15ae6:	00f05ce3          	blez	a5,162fe <__gdtoa+0xa0e>
   15aea:	863e                	mv	a2,a5
   15aec:	85be                	mv	a1,a5
   15aee:	8522                	mv	a0,s0
   15af0:	c4fa                	sw	t5,72(sp)
   15af2:	c6fe                	sw	t6,76(sp)
   15af4:	c0f6                	sw	t4,64(sp)
   15af6:	dc42                	sw	a6,56(sp)
   15af8:	d6b2                	sw	a2,108(sp)
   15afa:	5a3000ef          	jal	1689c <__rv_alloc_D2A>
   15afe:	88aa                	mv	a7,a0
   15b00:	32050863          	beqz	a0,15e30 <__gdtoa+0x540>
   15b04:	00ca2783          	lw	a5,12(s4)
   15b08:	5862                	lw	a6,56(sp)
   15b0a:	4e86                	lw	t4,64(sp)
   15b0c:	17fd                	addi	a5,a5,-1
   15b0e:	d03e                	sw	a5,32(sp)
   15b10:	4f26                	lw	t5,72(sp)
   15b12:	4fb6                	lw	t6,76(sp)
   15b14:	3a078363          	beqz	a5,15eba <__gdtoa+0x5ca>
   15b18:	4e07ca63          	bltz	a5,1600c <__gdtoa+0x71c>
   15b1c:	100af313          	andi	t1,s5,256
   15b20:	38031863          	bnez	t1,15eb0 <__gdtoa+0x5c0>
   15b24:	000c4663          	bltz	s8,15b30 <__gdtoa+0x240>
   15b28:	57d2                	lw	a5,52(sp)
   15b2a:	4639                	li	a2,14
   15b2c:	50f65363          	bge	a2,a5,16032 <__gdtoa+0x742>
   15b30:	47c6                	lw	a5,80(sp)
   15b32:	4c078863          	beqz	a5,16002 <__gdtoa+0x712>
   15b36:	41bd06b3          	sub	a3,s10,s11
   15b3a:	004a2603          	lw	a2,4(s4)
   15b3e:	00168593          	addi	a1,a3,1
   15b42:	d6ae                	sw	a1,108(sp)
   15b44:	40dc06b3          	sub	a3,s8,a3
   15b48:	7ec6dd63          	bge	a3,a2,16342 <__gdtoa+0xa52>
   15b4c:	ffd90693          	addi	a3,s2,-3
   15b50:	9af5                	andi	a3,a3,-3
   15b52:	72068863          	beqz	a3,16282 <__gdtoa+0x992>
   15b56:	40cc06b3          	sub	a3,s8,a2
   15b5a:	0685                	addi	a3,a3,1
   15b5c:	d6b6                	sw	a3,108(sp)
   15b5e:	4605                	li	a2,1
   15b60:	01265863          	bge	a2,s2,15b70 <__gdtoa+0x280>
   15b64:	57b2                	lw	a5,44(sp)
   15b66:	00f05563          	blez	a5,15b70 <__gdtoa+0x280>
   15b6a:	57b2                	lw	a5,44(sp)
   15b6c:	40d7c1e3          	blt	a5,a3,1676e <__gdtoa+0xe7e>
   15b70:	47e2                	lw	a5,24(sp)
   15b72:	5d42                	lw	s10,48(sp)
   15b74:	9eb6                	add	t4,t4,a3
   15b76:	dc3e                	sw	a5,56(sp)
   15b78:	97b6                	add	a5,a5,a3
   15b7a:	cc3e                	sw	a5,24(sp)
   15b7c:	4585                	li	a1,1
   15b7e:	8522                	mv	a0,s0
   15b80:	ccc6                	sw	a7,88(sp)
   15b82:	c4f6                	sw	t4,72(sp)
   15b84:	c0c2                	sw	a6,64(sp)
   15b86:	344010ef          	jal	16eca <__i2b>
   15b8a:	4806                	lw	a6,64(sp)
   15b8c:	4ea6                	lw	t4,72(sp)
   15b8e:	48e6                	lw	a7,88(sp)
   15b90:	8c2a                	mv	s8,a0
   15b92:	28050f63          	beqz	a0,15e30 <__gdtoa+0x540>
   15b96:	57e2                	lw	a5,56(sp)
   15b98:	c385                	beqz	a5,15bb8 <__gdtoa+0x2c8>
   15b9a:	01d05f63          	blez	t4,15bb8 <__gdtoa+0x2c8>
   15b9e:	86be                	mv	a3,a5
   15ba0:	00fed363          	bge	t4,a5,15ba6 <__gdtoa+0x2b6>
   15ba4:	86f6                	mv	a3,t4
   15ba6:	47e2                	lw	a5,24(sp)
   15ba8:	d6b6                	sw	a3,108(sp)
   15baa:	40de8eb3          	sub	t4,t4,a3
   15bae:	8f95                	sub	a5,a5,a3
   15bb0:	cc3e                	sw	a5,24(sp)
   15bb2:	57e2                	lw	a5,56(sp)
   15bb4:	8f95                	sub	a5,a5,a3
   15bb6:	dc3e                	sw	a5,56(sp)
   15bb8:	57c2                	lw	a5,48(sp)
   15bba:	c39d                	beqz	a5,15be0 <__gdtoa+0x2f0>
   15bbc:	47c6                	lw	a5,80(sp)
   15bbe:	c399                	beqz	a5,15bc4 <__gdtoa+0x2d4>
   15bc0:	7e0d1863          	bnez	s10,163b0 <__gdtoa+0xac0>
   15bc4:	5642                	lw	a2,48(sp)
   15bc6:	85e6                	mv	a1,s9
   15bc8:	8522                	mv	a0,s0
   15bca:	ccc6                	sw	a7,88(sp)
   15bcc:	c4f6                	sw	t4,72(sp)
   15bce:	c0c2                	sw	a6,64(sp)
   15bd0:	4f8010ef          	jal	170c8 <__pow5mult>
   15bd4:	4806                	lw	a6,64(sp)
   15bd6:	4ea6                	lw	t4,72(sp)
   15bd8:	48e6                	lw	a7,88(sp)
   15bda:	8caa                	mv	s9,a0
   15bdc:	24050a63          	beqz	a0,15e30 <__gdtoa+0x540>
   15be0:	4585                	li	a1,1
   15be2:	8522                	mv	a0,s0
   15be4:	c4c6                	sw	a7,72(sp)
   15be6:	c0f6                	sw	t4,64(sp)
   15be8:	d842                	sw	a6,48(sp)
   15bea:	2e0010ef          	jal	16eca <__i2b>
   15bee:	8d2a                	mv	s10,a0
   15bf0:	24050063          	beqz	a0,15e30 <__gdtoa+0x540>
   15bf4:	5842                	lw	a6,48(sp)
   15bf6:	4e86                	lw	t4,64(sp)
   15bf8:	48a6                	lw	a7,72(sp)
   15bfa:	70081663          	bnez	a6,16306 <__gdtoa+0xa16>
   15bfe:	4685                	li	a3,1
   15c00:	5126d263          	bge	a3,s2,16104 <__gdtoa+0x814>
   15c04:	4a7d                	li	s4,31
   15c06:	47e2                	lw	a5,24(sp)
   15c08:	41da0a33          	sub	s4,s4,t4
   15c0c:	1a71                	addi	s4,s4,-4
   15c0e:	01fa7a13          	andi	s4,s4,31
   15c12:	00fa0633          	add	a2,s4,a5
   15c16:	d6d2                	sw	s4,108(sp)
   15c18:	87d2                	mv	a5,s4
   15c1a:	58c04d63          	bgtz	a2,161b4 <__gdtoa+0x8c4>
   15c1e:	00fe8633          	add	a2,t4,a5
   15c22:	1ec04c63          	bgtz	a2,15e1a <__gdtoa+0x52a>
   15c26:	47d6                	lw	a5,84(sp)
   15c28:	5a079563          	bnez	a5,161d2 <__gdtoa+0x8e2>
   15c2c:	57b2                	lw	a5,44(sp)
   15c2e:	66f05a63          	blez	a5,162a2 <__gdtoa+0x9b2>
   15c32:	47c6                	lw	a5,80(sp)
   15c34:	5c078d63          	beqz	a5,1620e <__gdtoa+0x91e>
   15c38:	57e2                	lw	a5,56(sp)
   15c3a:	00fa0633          	add	a2,s4,a5
   15c3e:	7ec04763          	bgtz	a2,1642c <__gdtoa+0xb3c>
   15c42:	8a62                	mv	s4,s8
   15c44:	02081ce3          	bnez	a6,1647c <__gdtoa+0xb8c>
   15c48:	5b32                	lw	s6,44(sp)
   15c4a:	8dc6                	mv	s11,a7
   15c4c:	4685                	li	a3,1
   15c4e:	d446                	sw	a7,40(sp)
   15c50:	cc5e                	sw	s7,24(sp)
   15c52:	d626                	sw	s1,44(sp)
   15c54:	a885                	j	15cc4 <__gdtoa+0x3d4>
   15c56:	8522                	mv	a0,s0
   15c58:	7d7000ef          	jal	16c2e <_Bfree>
   15c5c:	100ac3e3          	bltz	s5,16562 <__gdtoa+0xc72>
   15c60:	01596ab3          	or	s5,s2,s5
   15c64:	000a9763          	bnez	s5,15c72 <__gdtoa+0x382>
   15c68:	0009a783          	lw	a5,0(s3)
   15c6c:	8b85                	andi	a5,a5,1
   15c6e:	0e078ae3          	beqz	a5,16562 <__gdtoa+0xc72>
   15c72:	5782                	lw	a5,32(sp)
   15c74:	4709                	li	a4,2
   15c76:	26e798e3          	bne	a5,a4,166e6 <__gdtoa+0xdf6>
   15c7a:	017d8023          	sb	s7,0(s11)
   15c7e:	57b6                	lw	a5,108(sp)
   15c80:	0d85                	addi	s11,s11,1
   15c82:	1efb0fe3          	beq	s6,a5,16680 <__gdtoa+0xd90>
   15c86:	85e6                	mv	a1,s9
   15c88:	4681                	li	a3,0
   15c8a:	4629                	li	a2,10
   15c8c:	8522                	mv	a0,s0
   15c8e:	7b3000ef          	jal	16c40 <__multadd>
   15c92:	8caa                	mv	s9,a0
   15c94:	18050e63          	beqz	a0,15e30 <__gdtoa+0x540>
   15c98:	4681                	li	a3,0
   15c9a:	4629                	li	a2,10
   15c9c:	85e2                	mv	a1,s8
   15c9e:	8522                	mv	a0,s0
   15ca0:	494c0c63          	beq	s8,s4,16138 <__gdtoa+0x848>
   15ca4:	79d000ef          	jal	16c40 <__multadd>
   15ca8:	8c2a                	mv	s8,a0
   15caa:	18050363          	beqz	a0,15e30 <__gdtoa+0x540>
   15cae:	85d2                	mv	a1,s4
   15cb0:	4681                	li	a3,0
   15cb2:	4629                	li	a2,10
   15cb4:	8522                	mv	a0,s0
   15cb6:	78b000ef          	jal	16c40 <__multadd>
   15cba:	8a2a                	mv	s4,a0
   15cbc:	16050a63          	beqz	a0,15e30 <__gdtoa+0x540>
   15cc0:	56b6                	lw	a3,108(sp)
   15cc2:	0685                	addi	a3,a3,1
   15cc4:	85ea                	mv	a1,s10
   15cc6:	8566                	mv	a0,s9
   15cc8:	d6b6                	sw	a3,108(sp)
   15cca:	47f000ef          	jal	16948 <__quorem_D2A>
   15cce:	84aa                	mv	s1,a0
   15cd0:	85e2                	mv	a1,s8
   15cd2:	8566                	mv	a0,s9
   15cd4:	5d6010ef          	jal	172aa <__mcmp>
   15cd8:	85ea                	mv	a1,s10
   15cda:	8aaa                	mv	s5,a0
   15cdc:	8652                	mv	a2,s4
   15cde:	8522                	mv	a0,s0
   15ce0:	606010ef          	jal	172e6 <__mdiff>
   15ce4:	03048b93          	addi	s7,s1,48
   15ce8:	85aa                	mv	a1,a0
   15cea:	14050363          	beqz	a0,15e30 <__gdtoa+0x540>
   15cee:	455c                	lw	a5,12(a0)
   15cf0:	f3bd                	bnez	a5,15c56 <__gdtoa+0x366>
   15cf2:	c82a                	sw	a0,16(sp)
   15cf4:	8566                	mv	a0,s9
   15cf6:	5b4010ef          	jal	172aa <__mcmp>
   15cfa:	45c2                	lw	a1,16(sp)
   15cfc:	86aa                	mv	a3,a0
   15cfe:	8522                	mv	a0,s0
   15d00:	c836                	sw	a3,16(sp)
   15d02:	72d000ef          	jal	16c2e <_Bfree>
   15d06:	46c2                	lw	a3,16(sp)
   15d08:	00d96733          	or	a4,s2,a3
   15d0c:	340711e3          	bnez	a4,1684e <__gdtoa+0xf5e>
   15d10:	0009a783          	lw	a5,0(s3)
   15d14:	8b85                	andi	a5,a5,1
   15d16:	42079863          	bnez	a5,16146 <__gdtoa+0x856>
   15d1a:	5782                	lw	a5,32(sp)
   15d1c:	280787e3          	beqz	a5,167aa <__gdtoa+0xeba>
   15d20:	f5504de3          	bgtz	s5,15c7a <__gdtoa+0x38a>
   15d24:	010ca603          	lw	a2,16(s9)
   15d28:	4685                	li	a3,1
   15d2a:	835e                	mv	t1,s7
   15d2c:	58a2                	lw	a7,40(sp)
   15d2e:	4be2                	lw	s7,24(sp)
   15d30:	54b2                	lw	s1,44(sp)
   15d32:	8b3a                	mv	s6,a4
   15d34:	2ec6dae3          	bge	a3,a2,16828 <__gdtoa+0xf38>
   15d38:	5782                	lw	a5,32(sp)
   15d3a:	4689                	li	a3,2
   15d3c:	8a9a                	mv	s5,t1
   15d3e:	8b46                	mv	s6,a7
   15d40:	02d79063          	bne	a5,a3,15d60 <__gdtoa+0x470>
   15d44:	2cb0006f          	j	1680e <__gdtoa+0xf1e>
   15d48:	6f9000ef          	jal	16c40 <__multadd>
   15d4c:	85ea                	mv	a1,s10
   15d4e:	8caa                	mv	s9,a0
   15d50:	0e050063          	beqz	a0,15e30 <__gdtoa+0x540>
   15d54:	3f5000ef          	jal	16948 <__quorem_D2A>
   15d58:	03050a93          	addi	s5,a0,48
   15d5c:	8dca                	mv	s11,s2
   15d5e:	8a4e                	mv	s4,s3
   15d60:	85d2                	mv	a1,s4
   15d62:	856a                	mv	a0,s10
   15d64:	546010ef          	jal	172aa <__mcmp>
   15d68:	87aa                	mv	a5,a0
   15d6a:	4681                	li	a3,0
   15d6c:	4629                	li	a2,10
   15d6e:	85d2                	mv	a1,s4
   15d70:	8522                	mv	a0,s0
   15d72:	001d8913          	addi	s2,s11,1
   15d76:	28f052e3          	blez	a5,167fa <__gdtoa+0xf0a>
   15d7a:	ff590fa3          	sb	s5,-1(s2)
   15d7e:	6c3000ef          	jal	16c40 <__multadd>
   15d82:	89aa                	mv	s3,a0
   15d84:	4681                	li	a3,0
   15d86:	4629                	li	a2,10
   15d88:	85e6                	mv	a1,s9
   15d8a:	8522                	mv	a0,s0
   15d8c:	0a098263          	beqz	s3,15e30 <__gdtoa+0x540>
   15d90:	fb4c1ce3          	bne	s8,s4,15d48 <__gdtoa+0x458>
   15d94:	8c4e                	mv	s8,s3
   15d96:	bf4d                	j	15d48 <__gdtoa+0x458>
   15d98:	4791                	li	a5,4
   15d9a:	0afe1363          	bne	t3,a5,15e40 <__gdtoa+0x550>
   15d9e:	4632                	lw	a2,12(sp)
   15da0:	4b4a                	lw	s6,144(sp)
   15da2:	50ba                	lw	ra,172(sp)
   15da4:	549a                	lw	s1,164(sp)
   15da6:	4ada                	lw	s5,148(sp)
   15da8:	4bba                	lw	s7,140(sp)
   15daa:	77e1                	lui	a5,0xffff8
   15dac:	00f8a023          	sw	a5,0(a7)
   15db0:	65ed                	lui	a1,0x1b
   15db2:	468d                	li	a3,3
   15db4:	ad458593          	addi	a1,a1,-1324 # 1aad4 <__clzsi2+0x13a>
   15db8:	614d                	addi	sp,sp,176
   15dba:	3110006f          	j	168ca <__nrv_alloc_D2A>
   15dbe:	85e6                	mv	a1,s9
   15dc0:	8522                	mv	a0,s0
   15dc2:	66d000ef          	jal	16c2e <_Bfree>
   15dc6:	590a                	lw	s2,160(sp)
   15dc8:	49fa                	lw	s3,156(sp)
   15dca:	4a6a                	lw	s4,152(sp)
   15dcc:	4c2a                	lw	s8,136(sp)
   15dce:	4c9a                	lw	s9,132(sp)
   15dd0:	4d0a                	lw	s10,128(sp)
   15dd2:	5df6                	lw	s11,124(sp)
   15dd4:	4632                	lw	a2,12(sp)
   15dd6:	4785                	li	a5,1
   15dd8:	65ed                	lui	a1,0x1b
   15dda:	8522                	mv	a0,s0
   15ddc:	c09c                	sw	a5,0(s1)
   15dde:	4685                	li	a3,1
   15de0:	ab458593          	addi	a1,a1,-1356 # 1aab4 <__clzsi2+0x11a>
   15de4:	2e7000ef          	jal	168ca <__nrv_alloc_D2A>
   15de8:	542a                	lw	s0,168(sp)
   15dea:	88aa                	mv	a7,a0
   15dec:	50ba                	lw	ra,172(sp)
   15dee:	4b4a                	lw	s6,144(sp)
   15df0:	549a                	lw	s1,164(sp)
   15df2:	4ada                	lw	s5,148(sp)
   15df4:	4bba                	lw	s7,140(sp)
   15df6:	8546                	mv	a0,a7
   15df8:	614d                	addi	sp,sp,176
   15dfa:	8082                	ret
   15dfc:	4632                	lw	a2,12(sp)
   15dfe:	50ba                	lw	ra,172(sp)
   15e00:	549a                	lw	s1,164(sp)
   15e02:	4ada                	lw	s5,148(sp)
   15e04:	4bba                	lw	s7,140(sp)
   15e06:	77e1                	lui	a5,0xffff8
   15e08:	00f8a023          	sw	a5,0(a7)
   15e0c:	65ed                	lui	a1,0x1b
   15e0e:	46a1                	li	a3,8
   15e10:	ac858593          	addi	a1,a1,-1336 # 1aac8 <__clzsi2+0x12e>
   15e14:	614d                	addi	sp,sp,176
   15e16:	2b50006f          	j	168ca <__nrv_alloc_D2A>
   15e1a:	85ea                	mv	a1,s10
   15e1c:	8522                	mv	a0,s0
   15e1e:	cc46                	sw	a7,24(sp)
   15e20:	c842                	sw	a6,16(sp)
   15e22:	37a010ef          	jal	1719c <__lshift>
   15e26:	4842                	lw	a6,16(sp)
   15e28:	48e2                	lw	a7,24(sp)
   15e2a:	8d2a                	mv	s10,a0
   15e2c:	de051de3          	bnez	a0,15c26 <__gdtoa+0x336>
   15e30:	542a                	lw	s0,168(sp)
   15e32:	590a                	lw	s2,160(sp)
   15e34:	49fa                	lw	s3,156(sp)
   15e36:	4a6a                	lw	s4,152(sp)
   15e38:	4c2a                	lw	s8,136(sp)
   15e3a:	4c9a                	lw	s9,132(sp)
   15e3c:	4d0a                	lw	s10,128(sp)
   15e3e:	5df6                	lw	s11,124(sp)
   15e40:	4881                	li	a7,0
   15e42:	b76d                	j	15dec <__gdtoa+0x4fc>
   15e44:	000ca823          	sw	zero,16(s9)
   15e48:	b649                	j	159ca <__gdtoa+0xda>
   15e4a:	4785                	li	a5,1
   15e4c:	cabe                	sw	a5,84(sp)
   15e4e:	cc02                	sw	zero,24(sp)
   15e50:	1a0ec163          	bltz	t4,15ff2 <__gdtoa+0x702>
   15e54:	c40859e3          	bgez	a6,15aa6 <__gdtoa+0x1b6>
   15e58:	47e2                	lw	a5,24(sp)
   15e5a:	da42                	sw	a6,52(sp)
   15e5c:	410787b3          	sub	a5,a5,a6
   15e60:	cc3e                	sw	a5,24(sp)
   15e62:	410007b3          	neg	a5,a6
   15e66:	d83e                	sw	a5,48(sp)
   15e68:	4801                	li	a6,0
   15e6a:	b189                	j	15aac <__gdtoa+0x1bc>
   15e6c:	85aa                	mv	a1,a0
   15e6e:	8566                	mv	a0,s9
   15e70:	42f000ef          	jal	16a9e <__rshift_D2A>
   15e74:	5636                	lw	a2,108(sp)
   15e76:	47c2                	lw	a5,16(sp)
   15e78:	40cd8db3          	sub	s11,s11,a2
   15e7c:	00f60c33          	add	s8,a2,a5
   15e80:	bea1                	j	159d8 <__gdtoa+0xe8>
   15e82:	3fd88893          	addi	a7,a7,1021
   15e86:	7f88b793          	sltiu	a5,a7,2040
   15e8a:	ccbe                	sw	a5,88(sp)
   15e8c:	4901                	li	s2,0
   15e8e:	ee01b707          	fld	fa4,-288(gp) # 1c958 <__SDATA_BEGIN__+0x38>
   15e92:	d20d07d3          	fcvt.d.w	fa5,s10
   15e96:	4785                	li	a5,1
   15e98:	c8be                	sw	a5,80(sp)
   15e9a:	12e7f7d3          	fmul.d	fa5,fa5,fa4
   15e9e:	57fd                	li	a5,-1
   15ea0:	d402                	sw	zero,40(sp)
   15ea2:	cebe                	sw	a5,92(sp)
   15ea4:	d63e                	sw	a5,44(sp)
   15ea6:	c20795d3          	fcvt.w.d	a1,fa5,rtz
   15eaa:	058d                	addi	a1,a1,3
   15eac:	862e                	mv	a2,a1
   15eae:	b181                	j	15aee <__gdtoa+0x1fe>
   15eb0:	5782                	lw	a5,32(sp)
   15eb2:	460d                	li	a2,3
   15eb4:	40f607b3          	sub	a5,a2,a5
   15eb8:	d03e                	sw	a5,32(sp)
   15eba:	57b2                	lw	a5,44(sp)
   15ebc:	4639                	li	a2,14
   15ebe:	c6f663e3          	bltu	a2,a5,15b24 <__gdtoa+0x234>
   15ec2:	4766                	lw	a4,88(sp)
   15ec4:	c60700e3          	beqz	a4,15b24 <__gdtoa+0x234>
   15ec8:	5752                	lw	a4,52(sp)
   15eca:	5682                	lw	a3,32(sp)
   15ecc:	00d76633          	or	a2,a4,a3
   15ed0:	c4061ae3          	bnez	a2,15b24 <__gdtoa+0x234>
   15ed4:	4756                	lw	a4,84(sp)
   15ed6:	d682                	sw	zero,108(sp)
   15ed8:	d07a                	sw	t5,32(sp)
   15eda:	d27e                	sw	t6,36(sp)
   15edc:	cb11                	beqz	a4,15ef0 <__gdtoa+0x600>
   15ede:	dc7a                	sw	t5,56(sp)
   15ee0:	de7e                	sw	t6,60(sp)
   15ee2:	eb01b787          	fld	fa5,-336(gp) # 1c928 <__SDATA_BEGIN__+0x8>
   15ee6:	3762                	fld	fa4,56(sp)
   15ee8:	a2f71653          	flt.d	a2,fa4,fa5
   15eec:	7a061163          	bnez	a2,1668e <__gdtoa+0xd9e>
   15ef0:	f001b707          	fld	fa4,-256(gp) # 1c978 <__SDATA_BEGIN__+0x58>
   15ef4:	ef81b787          	fld	fa5,-264(gp) # 1c970 <__SDATA_BEGIN__+0x50>
   15ef8:	3682                	fld	fa3,32(sp)
   15efa:	57b2                	lw	a5,44(sp)
   15efc:	fcc00637          	lui	a2,0xfcc00
   15f00:	7ae6f7c3          	fmadd.d	fa5,fa3,fa4,fa5
   15f04:	bc3e                	fsd	fa5,56(sp)
   15f06:	5562                	lw	a0,56(sp)
   15f08:	55f2                	lw	a1,60(sp)
   15f0a:	832a                	mv	t1,a0
   15f0c:	962e                	add	a2,a2,a1
   15f0e:	5c078063          	beqz	a5,164ce <__gdtoa+0xbde>
   15f12:	3782                	fld	fa5,32(sp)
   15f14:	5532                	lw	a0,44(sp)
   15f16:	4381                	li	t2,0
   15f18:	bc3e                	fsd	fa5,56(sp)
   15f1a:	65ed                	lui	a1,0x1b
   15f1c:	fff50793          	addi	a5,a0,-1
   15f20:	078e                	slli	a5,a5,0x3
   15f22:	f9858293          	addi	t0,a1,-104 # 1af98 <__mprec_tens>
   15f26:	005786b3          	add	a3,a5,t0
   15f2a:	229c                	fld	fa5,0(a3)
   15f2c:	46c6                	lw	a3,80(sp)
   15f2e:	871a                	mv	a4,t1
   15f30:	87b2                	mv	a5,a2
   15f32:	6c068163          	beqz	a3,165f4 <__gdtoa+0xd04>
   15f36:	3762                	fld	fa4,56(sp)
   15f38:	36e2                	fld	fa3,56(sp)
   15f3a:	c2071353          	fcvt.w.d	t1,fa4,rtz
   15f3e:	f101b707          	fld	fa4,-240(gp) # 1c988 <__SDATA_BEGIN__+0x68>
   15f42:	dc3a                	sw	a4,56(sp)
   15f44:	de3e                	sw	a5,60(sp)
   15f46:	1af77753          	fdiv.d	fa4,fa4,fa5
   15f4a:	d20307d3          	fcvt.d.w	fa5,t1
   15f4e:	03030313          	addi	t1,t1,48
   15f52:	00688023          	sb	t1,0(a7)
   15f56:	0af6f7d3          	fsub.d	fa5,fa3,fa5
   15f5a:	36e2                	fld	fa3,56(sp)
   15f5c:	00188613          	addi	a2,a7,1
   15f60:	0ad77753          	fsub.d	fa4,fa4,fa3
   15f64:	a2e79353          	flt.d	t1,fa5,fa4
   15f68:	7c031e63          	bnez	t1,16744 <__gdtoa+0xe54>
   15f6c:	eb01b587          	fld	fa1,-336(gp) # 1c928 <__SDATA_BEGIN__+0x8>
   15f70:	ee81b607          	fld	fa2,-280(gp) # 1c960 <__SDATA_BEGIN__+0x40>
   15f74:	a80d                	j	15fa6 <__gdtoa+0x6b6>
   15f76:	57b6                	lw	a5,108(sp)
   15f78:	0605                	addi	a2,a2,1 # fcc00001 <__BSS_END__+0xfcbe3335>
   15f7a:	0785                	addi	a5,a5,1 # ffff8001 <__BSS_END__+0xfffdb335>
   15f7c:	d6be                	sw	a5,108(sp)
   15f7e:	7ea7d163          	bge	a5,a0,16760 <__gdtoa+0xe70>
   15f82:	12c7f7d3          	fmul.d	fa5,fa5,fa2
   15f86:	12c77753          	fmul.d	fa4,fa4,fa2
   15f8a:	c20797d3          	fcvt.w.d	a5,fa5,rtz
   15f8e:	d20786d3          	fcvt.d.w	fa3,a5
   15f92:	03078793          	addi	a5,a5,48
   15f96:	fef60fa3          	sb	a5,-1(a2)
   15f9a:	0ad7f7d3          	fsub.d	fa5,fa5,fa3
   15f9e:	a2e797d3          	flt.d	a5,fa5,fa4
   15fa2:	7a079163          	bnez	a5,16744 <__gdtoa+0xe54>
   15fa6:	0af5f6d3          	fsub.d	fa3,fa1,fa5
   15faa:	a2e697d3          	flt.d	a5,fa3,fa4
   15fae:	d7e1                	beqz	a5,15f76 <__gdtoa+0x686>
   15fb0:	fff64683          	lbu	a3,-1(a2)
   15fb4:	00138513          	addi	a0,t2,1
   15fb8:	03900593          	li	a1,57
   15fbc:	a031                	j	15fc8 <__gdtoa+0x6d8>
   15fbe:	62f88763          	beq	a7,a5,165ec <__gdtoa+0xcfc>
   15fc2:	fff7c683          	lbu	a3,-1(a5)
   15fc6:	863e                	mv	a2,a5
   15fc8:	fff60793          	addi	a5,a2,-1
   15fcc:	feb689e3          	beq	a3,a1,15fbe <__gdtoa+0x6ce>
   15fd0:	0685                	addi	a3,a3,1
   15fd2:	0ff6f693          	zext.b	a3,a3
   15fd6:	00d78023          	sb	a3,0(a5)
   15fda:	892a                	mv	s2,a0
   15fdc:	02000b13          	li	s6,32
   15fe0:	a0e5                	j	160c8 <__gdtoa+0x7d8>
   15fe2:	542a                	lw	s0,168(sp)
   15fe4:	590a                	lw	s2,160(sp)
   15fe6:	49fa                	lw	s3,156(sp)
   15fe8:	4a6a                	lw	s4,152(sp)
   15fea:	4c9a                	lw	s9,132(sp)
   15fec:	4d0a                	lw	s10,128(sp)
   15fee:	4881                	li	a7,0
   15ff0:	bbf5                	j	15dec <__gdtoa+0x4fc>
   15ff2:	4605                	li	a2,1
   15ff4:	40a607b3          	sub	a5,a2,a0
   15ff8:	cc3e                	sw	a5,24(sp)
   15ffa:	4e81                	li	t4,0
   15ffc:	e4084ee3          	bltz	a6,15e58 <__gdtoa+0x568>
   16000:	b45d                	j	15aa6 <__gdtoa+0x1b6>
   16002:	47e2                	lw	a5,24(sp)
   16004:	5d42                	lw	s10,48(sp)
   16006:	4c01                	li	s8,0
   16008:	dc3e                	sw	a5,56(sp)
   1600a:	b671                	j	15b96 <__gdtoa+0x2a6>
   1600c:	4789                	li	a5,2
   1600e:	d03e                	sw	a5,32(sp)
   16010:	b631                	j	15b1c <__gdtoa+0x22c>
   16012:	187d                	addi	a6,a6,-1
   16014:	ca82                	sw	zero,84(sp)
   16016:	bd25                	j	15e4e <__gdtoa+0x55e>
   16018:	1971                	addi	s2,s2,-4
   1601a:	4591                	li	a1,4
   1601c:	10b90263          	beq	s2,a1,16120 <__gdtoa+0x830>
   16020:	42c90263          	beq	s2,a2,16444 <__gdtoa+0xb54>
   16024:	4609                	li	a2,2
   16026:	cc82                	sw	zero,88(sp)
   16028:	c882                	sw	zero,80(sp)
   1602a:	0ec90e63          	beq	s2,a2,16126 <__gdtoa+0x836>
   1602e:	490d                	li	s2,3
   16030:	b46d                	j	15ada <__gdtoa+0x1ea>
   16032:	66ed                	lui	a3,0x1b
   16034:	078e                	slli	a5,a5,0x3
   16036:	f9868693          	addi	a3,a3,-104 # 1af98 <__mprec_tens>
   1603a:	97b6                	add	a5,a5,a3
   1603c:	2398                	fld	fa4,0(a5)
   1603e:	57a2                	lw	a5,40(sp)
   16040:	3207c263          	bltz	a5,16364 <__gdtoa+0xa74>
   16044:	c87a                	sw	t5,16(sp)
   16046:	ca7e                	sw	t6,20(sp)
   16048:	27c2                	fld	fa5,16(sp)
   1604a:	4785                	li	a5,1
   1604c:	d6be                	sw	a5,108(sp)
   1604e:	1ae7f7d3          	fdiv.d	fa5,fa5,fa4
   16052:	57d2                	lw	a5,52(sp)
   16054:	26c2                	fld	fa3,16(sp)
   16056:	00188613          	addi	a2,a7,1
   1605a:	00178513          	addi	a0,a5,1
   1605e:	892a                	mv	s2,a0
   16060:	c20797d3          	fcvt.w.d	a5,fa5,rtz
   16064:	d20787d3          	fcvt.d.w	fa5,a5
   16068:	03078693          	addi	a3,a5,48
   1606c:	00d88023          	sb	a3,0(a7)
   16070:	6af777cb          	fnmsub.d	fa5,fa4,fa5,fa3
   16074:	d20006d3          	fcvt.d.w	fa3,zero
   16078:	a2d7a6d3          	feq.d	a3,fa5,fa3
   1607c:	e6b1                	bnez	a3,160c8 <__gdtoa+0x7d8>
   1607e:	ee81b587          	fld	fa1,-280(gp) # 1c960 <__SDATA_BEGIN__+0x40>
   16082:	22d68653          	fmv.d	fa2,fa3
   16086:	55b2                	lw	a1,44(sp)
   16088:	a025                	j	160b0 <__gdtoa+0x7c0>
   1608a:	12b7f7d3          	fmul.d	fa5,fa5,fa1
   1608e:	d6b6                	sw	a3,108(sp)
   16090:	0605                	addi	a2,a2,1
   16092:	1ae7f6d3          	fdiv.d	fa3,fa5,fa4
   16096:	c20697d3          	fcvt.w.d	a5,fa3,rtz
   1609a:	d20786d3          	fcvt.d.w	fa3,a5
   1609e:	03078713          	addi	a4,a5,48
   160a2:	fee60fa3          	sb	a4,-1(a2)
   160a6:	7ae6f7cb          	fnmsub.d	fa5,fa3,fa4,fa5
   160aa:	a2c7a753          	feq.d	a4,fa5,fa2
   160ae:	ef09                	bnez	a4,160c8 <__gdtoa+0x7d8>
   160b0:	5736                	lw	a4,108(sp)
   160b2:	00170693          	addi	a3,a4,1
   160b6:	fcb71ae3          	bne	a4,a1,1608a <__gdtoa+0x79a>
   160ba:	5702                	lw	a4,32(sp)
   160bc:	4e070e63          	beqz	a4,165b8 <__gdtoa+0xcc8>
   160c0:	4785                	li	a5,1
   160c2:	4b41                	li	s6,16
   160c4:	60f70263          	beq	a4,a5,166c8 <__gdtoa+0xdd8>
   160c8:	85e6                	mv	a1,s9
   160ca:	8522                	mv	a0,s0
   160cc:	d446                	sw	a7,40(sp)
   160ce:	c832                	sw	a2,16(sp)
   160d0:	35f000ef          	jal	16c2e <_Bfree>
   160d4:	4642                	lw	a2,16(sp)
   160d6:	47b2                	lw	a5,12(sp)
   160d8:	58a2                	lw	a7,40(sp)
   160da:	00060023          	sb	zero,0(a2)
   160de:	0124a023          	sw	s2,0(s1)
   160e2:	c391                	beqz	a5,160e6 <__gdtoa+0x7f6>
   160e4:	c390                	sw	a2,0(a5)
   160e6:	000ba783          	lw	a5,0(s7)
   160ea:	542a                	lw	s0,168(sp)
   160ec:	590a                	lw	s2,160(sp)
   160ee:	0167e7b3          	or	a5,a5,s6
   160f2:	49fa                	lw	s3,156(sp)
   160f4:	4a6a                	lw	s4,152(sp)
   160f6:	4c2a                	lw	s8,136(sp)
   160f8:	4c9a                	lw	s9,132(sp)
   160fa:	4d0a                	lw	s10,128(sp)
   160fc:	5df6                	lw	s11,124(sp)
   160fe:	00fba023          	sw	a5,0(s7)
   16102:	b1ed                	j	15dec <__gdtoa+0x4fc>
   16104:	b0dd90e3          	bne	s11,a3,15c04 <__gdtoa+0x314>
   16108:	004a2783          	lw	a5,4(s4)
   1610c:	4742                	lw	a4,16(sp)
   1610e:	0785                	addi	a5,a5,1
   16110:	aee7dae3          	bge	a5,a4,15c04 <__gdtoa+0x314>
   16114:	47e2                	lw	a5,24(sp)
   16116:	0e85                	addi	t4,t4,1
   16118:	4805                	li	a6,1
   1611a:	0785                	addi	a5,a5,1
   1611c:	cc3e                	sw	a5,24(sp)
   1611e:	b4dd                	j	15c04 <__gdtoa+0x314>
   16120:	4785                	li	a5,1
   16122:	cc82                	sw	zero,88(sp)
   16124:	c8be                	sw	a5,80(sp)
   16126:	55a2                	lw	a1,40(sp)
   16128:	00b04363          	bgtz	a1,1612e <__gdtoa+0x83e>
   1612c:	4585                	li	a1,1
   1612e:	862e                	mv	a2,a1
   16130:	ceae                	sw	a1,92(sp)
   16132:	d62e                	sw	a1,44(sp)
   16134:	d42e                	sw	a1,40(sp)
   16136:	ba65                	j	15aee <__gdtoa+0x1fe>
   16138:	309000ef          	jal	16c40 <__multadd>
   1613c:	8c2a                	mv	s8,a0
   1613e:	ce0509e3          	beqz	a0,15e30 <__gdtoa+0x540>
   16142:	8a2a                	mv	s4,a0
   16144:	beb5                	j	15cc0 <__gdtoa+0x3d0>
   16146:	b20adae3          	bgez	s5,15c7a <__gdtoa+0x38a>
   1614a:	5782                	lw	a5,32(sp)
   1614c:	835e                	mv	t1,s7
   1614e:	58a2                	lw	a7,40(sp)
   16150:	4be2                	lw	s7,24(sp)
   16152:	54b2                	lw	s1,44(sp)
   16154:	8b3a                	mv	s6,a4
   16156:	6c079463          	bnez	a5,1681e <__gdtoa+0xf2e>
   1615a:	010ca603          	lw	a2,16(s9)
   1615e:	4685                	li	a3,1
   16160:	4b41                	li	s6,16
   16162:	001d8913          	addi	s2,s11,1
   16166:	68c6d463          	bge	a3,a2,167ee <__gdtoa+0xefe>
   1616a:	89e2                	mv	s3,s8
   1616c:	864a                	mv	a2,s2
   1616e:	006d8023          	sb	t1,0(s11)
   16172:	8c52                	mv	s8,s4
   16174:	85ea                	mv	a1,s10
   16176:	8522                	mv	a0,s0
   16178:	d446                	sw	a7,40(sp)
   1617a:	c832                	sw	a2,16(sp)
   1617c:	2b3000ef          	jal	16c2e <_Bfree>
   16180:	57d2                	lw	a5,52(sp)
   16182:	4642                	lw	a2,16(sp)
   16184:	58a2                	lw	a7,40(sp)
   16186:	00178913          	addi	s2,a5,1
   1618a:	f20c0fe3          	beqz	s8,160c8 <__gdtoa+0x7d8>
   1618e:	00098a63          	beqz	s3,161a2 <__gdtoa+0x8b2>
   16192:	01898863          	beq	s3,s8,161a2 <__gdtoa+0x8b2>
   16196:	85ce                	mv	a1,s3
   16198:	8522                	mv	a0,s0
   1619a:	295000ef          	jal	16c2e <_Bfree>
   1619e:	58a2                	lw	a7,40(sp)
   161a0:	4642                	lw	a2,16(sp)
   161a2:	85e2                	mv	a1,s8
   161a4:	8522                	mv	a0,s0
   161a6:	d446                	sw	a7,40(sp)
   161a8:	c832                	sw	a2,16(sp)
   161aa:	285000ef          	jal	16c2e <_Bfree>
   161ae:	58a2                	lw	a7,40(sp)
   161b0:	4642                	lw	a2,16(sp)
   161b2:	bf19                	j	160c8 <__gdtoa+0x7d8>
   161b4:	85e6                	mv	a1,s9
   161b6:	8522                	mv	a0,s0
   161b8:	d846                	sw	a7,48(sp)
   161ba:	cc76                	sw	t4,24(sp)
   161bc:	c842                	sw	a6,16(sp)
   161be:	7df000ef          	jal	1719c <__lshift>
   161c2:	8caa                	mv	s9,a0
   161c4:	c60506e3          	beqz	a0,15e30 <__gdtoa+0x540>
   161c8:	57b6                	lw	a5,108(sp)
   161ca:	58c2                	lw	a7,48(sp)
   161cc:	4ee2                	lw	t4,24(sp)
   161ce:	4842                	lw	a6,16(sp)
   161d0:	b4b9                	j	15c1e <__gdtoa+0x32e>
   161d2:	85ea                	mv	a1,s10
   161d4:	8566                	mv	a0,s9
   161d6:	cc46                	sw	a7,24(sp)
   161d8:	c842                	sw	a6,16(sp)
   161da:	0d0010ef          	jal	172aa <__mcmp>
   161de:	4842                	lw	a6,16(sp)
   161e0:	48e2                	lw	a7,24(sp)
   161e2:	a40555e3          	bgez	a0,15c2c <__gdtoa+0x33c>
   161e6:	57d2                	lw	a5,52(sp)
   161e8:	85e6                	mv	a1,s9
   161ea:	4681                	li	a3,0
   161ec:	17fd                	addi	a5,a5,-1
   161ee:	4629                	li	a2,10
   161f0:	8522                	mv	a0,s0
   161f2:	da3e                	sw	a5,52(sp)
   161f4:	24d000ef          	jal	16c40 <__multadd>
   161f8:	8caa                	mv	s9,a0
   161fa:	c2050be3          	beqz	a0,15e30 <__gdtoa+0x540>
   161fe:	47c6                	lw	a5,80(sp)
   16200:	48e2                	lw	a7,24(sp)
   16202:	50079a63          	bnez	a5,16716 <__gdtoa+0xe26>
   16206:	47f6                	lw	a5,92(sp)
   16208:	14f05863          	blez	a5,16358 <__gdtoa+0xa68>
   1620c:	d63e                	sw	a5,44(sp)
   1620e:	5932                	lw	s2,44(sp)
   16210:	8dc6                	mv	s11,a7
   16212:	4685                	li	a3,1
   16214:	89c6                	mv	s3,a7
   16216:	a801                	j	16226 <__gdtoa+0x936>
   16218:	229000ef          	jal	16c40 <__multadd>
   1621c:	8caa                	mv	s9,a0
   1621e:	c00509e3          	beqz	a0,15e30 <__gdtoa+0x540>
   16222:	56b6                	lw	a3,108(sp)
   16224:	0685                	addi	a3,a3,1
   16226:	85ea                	mv	a1,s10
   16228:	8566                	mv	a0,s9
   1622a:	d6b6                	sw	a3,108(sp)
   1622c:	2f31                	jal	16948 <__quorem_D2A>
   1622e:	03050313          	addi	t1,a0,48
   16232:	006d8023          	sb	t1,0(s11)
   16236:	57b6                	lw	a5,108(sp)
   16238:	4681                	li	a3,0
   1623a:	4629                	li	a2,10
   1623c:	85e6                	mv	a1,s9
   1623e:	8522                	mv	a0,s0
   16240:	0d85                	addi	s11,s11,1
   16242:	fd27cbe3          	blt	a5,s2,16218 <__gdtoa+0x928>
   16246:	88ce                	mv	a7,s3
   16248:	4981                	li	s3,0
   1624a:	5782                	lw	a5,32(sp)
   1624c:	2c078263          	beqz	a5,16510 <__gdtoa+0xc20>
   16250:	4689                	li	a3,2
   16252:	010ca603          	lw	a2,16(s9)
   16256:	2ed78363          	beq	a5,a3,1653c <__gdtoa+0xc4c>
   1625a:	4685                	li	a3,1
   1625c:	1ac6c763          	blt	a3,a2,1640a <__gdtoa+0xb1a>
   16260:	014ca683          	lw	a3,20(s9)
   16264:	1a069363          	bnez	a3,1640a <__gdtoa+0xb1a>
   16268:	00d036b3          	snez	a3,a3
   1626c:	00469b13          	slli	s6,a3,0x4
   16270:	03000593          	li	a1,48
   16274:	fffdc783          	lbu	a5,-1(s11)
   16278:	866e                	mv	a2,s11
   1627a:	1dfd                	addi	s11,s11,-1
   1627c:	feb78ce3          	beq	a5,a1,16274 <__gdtoa+0x984>
   16280:	bdd5                	j	16174 <__gdtoa+0x884>
   16282:	57b2                	lw	a5,44(sp)
   16284:	5742                	lw	a4,48(sp)
   16286:	fff78693          	addi	a3,a5,-1
   1628a:	10d74463          	blt	a4,a3,16392 <__gdtoa+0xaa2>
   1628e:	40d70d33          	sub	s10,a4,a3
   16292:	4407d263          	bgez	a5,166d6 <__gdtoa+0xde6>
   16296:	47e2                	lw	a5,24(sp)
   16298:	5732                	lw	a4,44(sp)
   1629a:	d682                	sw	zero,108(sp)
   1629c:	8f99                	sub	a5,a5,a4
   1629e:	dc3e                	sw	a5,56(sp)
   162a0:	b8f1                	j	15b7c <__gdtoa+0x28c>
   162a2:	4789                	li	a5,2
   162a4:	9927d7e3          	bge	a5,s2,15c32 <__gdtoa+0x342>
   162a8:	85ea                	mv	a1,s10
   162aa:	4681                	li	a3,0
   162ac:	4615                	li	a2,5
   162ae:	8522                	mv	a0,s0
   162b0:	c846                	sw	a7,16(sp)
   162b2:	18f000ef          	jal	16c40 <__multadd>
   162b6:	85aa                	mv	a1,a0
   162b8:	b6050ce3          	beqz	a0,15e30 <__gdtoa+0x540>
   162bc:	57b2                	lw	a5,44(sp)
   162be:	48c2                	lw	a7,16(sp)
   162c0:	e3f9                	bnez	a5,16386 <__gdtoa+0xa96>
   162c2:	c82a                	sw	a0,16(sp)
   162c4:	8566                	mv	a0,s9
   162c6:	cc46                	sw	a7,24(sp)
   162c8:	7e3000ef          	jal	172aa <__mcmp>
   162cc:	45c2                	lw	a1,16(sp)
   162ce:	48e2                	lw	a7,24(sp)
   162d0:	0aa05b63          	blez	a0,16386 <__gdtoa+0xa96>
   162d4:	57d2                	lw	a5,52(sp)
   162d6:	00278913          	addi	s2,a5,2
   162da:	03100793          	li	a5,49
   162de:	00188613          	addi	a2,a7,1
   162e2:	00f88023          	sb	a5,0(a7)
   162e6:	02000b13          	li	s6,32
   162ea:	8522                	mv	a0,s0
   162ec:	d446                	sw	a7,40(sp)
   162ee:	c832                	sw	a2,16(sp)
   162f0:	13f000ef          	jal	16c2e <_Bfree>
   162f4:	4642                	lw	a2,16(sp)
   162f6:	58a2                	lw	a7,40(sp)
   162f8:	dc0c08e3          	beqz	s8,160c8 <__gdtoa+0x7d8>
   162fc:	b55d                	j	161a2 <__gdtoa+0x8b2>
   162fe:	4605                	li	a2,1
   16300:	4585                	li	a1,1
   16302:	fecff06f          	j	15aee <__gdtoa+0x1fe>
   16306:	85aa                	mv	a1,a0
   16308:	8642                	mv	a2,a6
   1630a:	8522                	mv	a0,s0
   1630c:	c0c6                	sw	a7,64(sp)
   1630e:	d876                	sw	t4,48(sp)
   16310:	5b9000ef          	jal	170c8 <__pow5mult>
   16314:	8d2a                	mv	s10,a0
   16316:	b0050de3          	beqz	a0,15e30 <__gdtoa+0x540>
   1631a:	4685                	li	a3,1
   1631c:	5ec2                	lw	t4,48(sp)
   1631e:	4886                	lw	a7,64(sp)
   16320:	1526d063          	bge	a3,s2,16460 <__gdtoa+0xb70>
   16324:	010d2783          	lw	a5,16(s10)
   16328:	d846                	sw	a7,48(sp)
   1632a:	c876                	sw	t4,16(sp)
   1632c:	078d                	addi	a5,a5,3
   1632e:	078a                	slli	a5,a5,0x2
   16330:	97ea                	add	a5,a5,s10
   16332:	43c8                	lw	a0,4(a5)
   16334:	2b9000ef          	jal	16dec <__hi0bits>
   16338:	58c2                	lw	a7,48(sp)
   1633a:	4ec2                	lw	t4,16(sp)
   1633c:	8a2a                	mv	s4,a0
   1633e:	885a                	mv	a6,s6
   16340:	b0d9                	j	15c06 <__gdtoa+0x316>
   16342:	4685                	li	a3,1
   16344:	f326cfe3          	blt	a3,s2,16282 <__gdtoa+0x992>
   16348:	47e2                	lw	a5,24(sp)
   1634a:	5d42                	lw	s10,48(sp)
   1634c:	9eae                	add	t4,t4,a1
   1634e:	dc3e                	sw	a5,56(sp)
   16350:	97ae                	add	a5,a5,a1
   16352:	cc3e                	sw	a5,24(sp)
   16354:	829ff06f          	j	15b7c <__gdtoa+0x28c>
   16358:	4789                	li	a5,2
   1635a:	4727ce63          	blt	a5,s2,167d6 <__gdtoa+0xee6>
   1635e:	47f6                	lw	a5,92(sp)
   16360:	d63e                	sw	a5,44(sp)
   16362:	b575                	j	1620e <__gdtoa+0x91e>
   16364:	57b2                	lw	a5,44(sp)
   16366:	ccf04fe3          	bgtz	a5,16044 <__gdtoa+0x754>
   1636a:	ef81                	bnez	a5,16382 <__gdtoa+0xa92>
   1636c:	f081b787          	fld	fa5,-248(gp) # 1c980 <__SDATA_BEGIN__+0x60>
   16370:	c87a                	sw	t5,16(sp)
   16372:	ca7e                	sw	t6,20(sp)
   16374:	12f77753          	fmul.d	fa4,fa4,fa5
   16378:	27c2                	fld	fa5,16(sp)
   1637a:	a2e787d3          	fle.d	a5,fa5,fa4
   1637e:	38078663          	beqz	a5,1670a <__gdtoa+0xe1a>
   16382:	4581                	li	a1,0
   16384:	4c01                	li	s8,0
   16386:	57a2                	lw	a5,40(sp)
   16388:	8646                	mv	a2,a7
   1638a:	4b41                	li	s6,16
   1638c:	40f00933          	neg	s2,a5
   16390:	bfa9                	j	162ea <__gdtoa+0x9fa>
   16392:	57c2                	lw	a5,48(sp)
   16394:	4762                	lw	a4,24(sp)
   16396:	4d01                	li	s10,0
   16398:	40f68633          	sub	a2,a3,a5
   1639c:	57b2                	lw	a5,44(sp)
   1639e:	dc3a                	sw	a4,56(sp)
   163a0:	9832                	add	a6,a6,a2
   163a2:	d6be                	sw	a5,108(sp)
   163a4:	9ebe                	add	t4,t4,a5
   163a6:	97ba                	add	a5,a5,a4
   163a8:	cc3e                	sw	a5,24(sp)
   163aa:	d836                	sw	a3,48(sp)
   163ac:	fd0ff06f          	j	15b7c <__gdtoa+0x28c>
   163b0:	85e2                	mv	a1,s8
   163b2:	866a                	mv	a2,s10
   163b4:	8522                	mv	a0,s0
   163b6:	ccc6                	sw	a7,88(sp)
   163b8:	c4f6                	sw	t4,72(sp)
   163ba:	c0c2                	sw	a6,64(sp)
   163bc:	50d000ef          	jal	170c8 <__pow5mult>
   163c0:	8c2a                	mv	s8,a0
   163c2:	a60507e3          	beqz	a0,15e30 <__gdtoa+0x540>
   163c6:	85aa                	mv	a1,a0
   163c8:	8666                	mv	a2,s9
   163ca:	8522                	mv	a0,s0
   163cc:	367000ef          	jal	16f32 <__multiply>
   163d0:	8aaa                	mv	s5,a0
   163d2:	a4050fe3          	beqz	a0,15e30 <__gdtoa+0x540>
   163d6:	85e6                	mv	a1,s9
   163d8:	8522                	mv	a0,s0
   163da:	055000ef          	jal	16c2e <_Bfree>
   163de:	57c2                	lw	a5,48(sp)
   163e0:	4806                	lw	a6,64(sp)
   163e2:	4ea6                	lw	t4,72(sp)
   163e4:	41a787b3          	sub	a5,a5,s10
   163e8:	d83e                	sw	a5,48(sp)
   163ea:	48e6                	lw	a7,88(sp)
   163ec:	8cd6                	mv	s9,s5
   163ee:	fe078963          	beqz	a5,15be0 <__gdtoa+0x2f0>
   163f2:	fd2ff06f          	j	15bc4 <__gdtoa+0x2d4>
   163f6:	89e2                	mv	s3,s8
   163f8:	86ee                	mv	a3,s11
   163fa:	001d8913          	addi	s2,s11,1
   163fe:	8c52                	mv	s8,s4
   16400:	03900613          	li	a2,57
   16404:	8dca                	mv	s11,s2
   16406:	00c68023          	sb	a2,0(a3)
   1640a:	03900593          	li	a1,57
   1640e:	a019                	j	16414 <__gdtoa+0xb24>
   16410:	13b88f63          	beq	a7,s11,1654e <__gdtoa+0xc5e>
   16414:	fffdc683          	lbu	a3,-1(s11)
   16418:	866e                	mv	a2,s11
   1641a:	1dfd                	addi	s11,s11,-1
   1641c:	feb68ae3          	beq	a3,a1,16410 <__gdtoa+0xb20>
   16420:	0685                	addi	a3,a3,1
   16422:	00dd8023          	sb	a3,0(s11)
   16426:	02000b13          	li	s6,32
   1642a:	b3a9                	j	16174 <__gdtoa+0x884>
   1642c:	85e2                	mv	a1,s8
   1642e:	8522                	mv	a0,s0
   16430:	d446                	sw	a7,40(sp)
   16432:	c842                	sw	a6,16(sp)
   16434:	569000ef          	jal	1719c <__lshift>
   16438:	4842                	lw	a6,16(sp)
   1643a:	58a2                	lw	a7,40(sp)
   1643c:	8c2a                	mv	s8,a0
   1643e:	800512e3          	bnez	a0,15c42 <__gdtoa+0x352>
   16442:	b2fd                	j	15e30 <__gdtoa+0x540>
   16444:	4785                	li	a5,1
   16446:	cc82                	sw	zero,88(sp)
   16448:	c8be                	sw	a5,80(sp)
   1644a:	e90ff06f          	j	15ada <__gdtoa+0x1ea>
   1644e:	4785                	li	a5,1
   16450:	c8be                	sw	a5,80(sp)
   16452:	e88ff06f          	j	15ada <__gdtoa+0x1ea>
   16456:	4785                	li	a5,1
   16458:	c8be                	sw	a5,80(sp)
   1645a:	b1f1                	j	16126 <__gdtoa+0x836>
   1645c:	c882                	sw	zero,80(sp)
   1645e:	b1e1                	j	16126 <__gdtoa+0x836>
   16460:	ecdd92e3          	bne	s11,a3,16324 <__gdtoa+0xa34>
   16464:	004a2783          	lw	a5,4(s4)
   16468:	4742                	lw	a4,16(sp)
   1646a:	0785                	addi	a5,a5,1
   1646c:	eae7dce3          	bge	a5,a4,16324 <__gdtoa+0xa34>
   16470:	47e2                	lw	a5,24(sp)
   16472:	0e85                	addi	t4,t4,1
   16474:	4b05                	li	s6,1
   16476:	0785                	addi	a5,a5,1
   16478:	cc3e                	sw	a5,24(sp)
   1647a:	b56d                	j	16324 <__gdtoa+0xa34>
   1647c:	004c2583          	lw	a1,4(s8)
   16480:	8522                	mv	a0,s0
   16482:	c846                	sw	a7,16(sp)
   16484:	2f3d                	jal	16bc2 <_Balloc>
   16486:	8a2a                	mv	s4,a0
   16488:	9a0504e3          	beqz	a0,15e30 <__gdtoa+0x540>
   1648c:	010c2603          	lw	a2,16(s8)
   16490:	00cc0593          	addi	a1,s8,12
   16494:	0531                	addi	a0,a0,12
   16496:	0609                	addi	a2,a2,2
   16498:	060a                	slli	a2,a2,0x2
   1649a:	e51fe0ef          	jal	152ea <memcpy>
   1649e:	85d2                	mv	a1,s4
   164a0:	4605                	li	a2,1
   164a2:	8522                	mv	a0,s0
   164a4:	4f9000ef          	jal	1719c <__lshift>
   164a8:	48c2                	lw	a7,16(sp)
   164aa:	8a2a                	mv	s4,a0
   164ac:	f8051e63          	bnez	a0,15c48 <__gdtoa+0x358>
   164b0:	b241                	j	15e30 <__gdtoa+0x540>
   164b2:	f001b707          	fld	fa4,-256(gp) # 1c978 <__SDATA_BEGIN__+0x58>
   164b6:	ef81b787          	fld	fa5,-264(gp) # 1c970 <__SDATA_BEGIN__+0x50>
   164ba:	3682                	fld	fa3,32(sp)
   164bc:	fcc00637          	lui	a2,0xfcc00
   164c0:	7ae6f7c3          	fmadd.d	fa5,fa3,fa4,fa5
   164c4:	bc3e                	fsd	fa5,56(sp)
   164c6:	5562                	lw	a0,56(sp)
   164c8:	55f2                	lw	a1,60(sp)
   164ca:	832a                	mv	t1,a0
   164cc:	962e                	add	a2,a2,a1
   164ce:	de32                	sw	a2,60(sp)
   164d0:	f081b707          	fld	fa4,-248(gp) # 1c980 <__SDATA_BEGIN__+0x60>
   164d4:	3782                	fld	fa5,32(sp)
   164d6:	dc1a                	sw	t1,56(sp)
   164d8:	0ae7f753          	fsub.d	fa4,fa5,fa4
   164dc:	37e2                	fld	fa5,56(sp)
   164de:	a2e79653          	flt.d	a2,fa5,fa4
   164e2:	1e061663          	bnez	a2,166ce <__gdtoa+0xdde>
   164e6:	22f797d3          	fneg.d	fa5,fa5
   164ea:	a2f71653          	flt.d	a2,fa4,fa5
   164ee:	e8061ae3          	bnez	a2,16382 <__gdtoa+0xa92>
   164f2:	5f02                	lw	t5,32(sp)
   164f4:	5f92                	lw	t6,36(sp)
   164f6:	65ed                	lui	a1,0x1b
   164f8:	280c4b63          	bltz	s8,1678e <__gdtoa+0xe9e>
   164fc:	57a2                	lw	a5,40(sp)
   164fe:	d002                	sw	zero,32(sp)
   16500:	f985b707          	fld	fa4,-104(a1) # 1af98 <__mprec_tens>
   16504:	b407d0e3          	bgez	a5,16044 <__gdtoa+0x754>
   16508:	57b2                	lw	a5,44(sp)
   1650a:	b2079de3          	bnez	a5,16044 <__gdtoa+0x754>
   1650e:	bdb9                	j	1636c <__gdtoa+0xa7c>
   16510:	85e6                	mv	a1,s9
   16512:	4605                	li	a2,1
   16514:	8522                	mv	a0,s0
   16516:	c846                	sw	a7,16(sp)
   16518:	d41a                	sw	t1,40(sp)
   1651a:	483000ef          	jal	1719c <__lshift>
   1651e:	8caa                	mv	s9,a0
   16520:	900508e3          	beqz	a0,15e30 <__gdtoa+0x540>
   16524:	85ea                	mv	a1,s10
   16526:	585000ef          	jal	172aa <__mcmp>
   1652a:	48c2                	lw	a7,16(sp)
   1652c:	eca04fe3          	bgtz	a0,1640a <__gdtoa+0xb1a>
   16530:	e511                	bnez	a0,1653c <__gdtoa+0xc4c>
   16532:	5322                	lw	t1,40(sp)
   16534:	00137313          	andi	t1,t1,1
   16538:	ec0319e3          	bnez	t1,1640a <__gdtoa+0xb1a>
   1653c:	010ca603          	lw	a2,16(s9)
   16540:	4685                	li	a3,1
   16542:	4b41                	li	s6,16
   16544:	d2c6c6e3          	blt	a3,a2,16270 <__gdtoa+0x980>
   16548:	014ca683          	lw	a3,20(s9)
   1654c:	bb31                	j	16268 <__gdtoa+0x978>
   1654e:	57d2                	lw	a5,52(sp)
   16550:	02000b13          	li	s6,32
   16554:	0785                	addi	a5,a5,1
   16556:	da3e                	sw	a5,52(sp)
   16558:	03100793          	li	a5,49
   1655c:	00f88023          	sb	a5,0(a7)
   16560:	b911                	j	16174 <__gdtoa+0x884>
   16562:	5782                	lw	a5,32(sp)
   16564:	8926                	mv	s2,s1
   16566:	835e                	mv	t1,s7
   16568:	58a2                	lw	a7,40(sp)
   1656a:	4be2                	lw	s7,24(sp)
   1656c:	54b2                	lw	s1,44(sp)
   1656e:	cb91                	beqz	a5,16582 <__gdtoa+0xc92>
   16570:	010ca603          	lw	a2,16(s9)
   16574:	4685                	li	a3,1
   16576:	fcc6c163          	blt	a3,a2,15d38 <__gdtoa+0x448>
   1657a:	014ca683          	lw	a3,20(s9)
   1657e:	fa069d63          	bnez	a3,15d38 <__gdtoa+0x448>
   16582:	85e6                	mv	a1,s9
   16584:	4605                	li	a2,1
   16586:	8522                	mv	a0,s0
   16588:	d446                	sw	a7,40(sp)
   1658a:	c81a                	sw	t1,16(sp)
   1658c:	411000ef          	jal	1719c <__lshift>
   16590:	8caa                	mv	s9,a0
   16592:	88050fe3          	beqz	a0,15e30 <__gdtoa+0x540>
   16596:	85ea                	mv	a1,s10
   16598:	513000ef          	jal	172aa <__mcmp>
   1659c:	4342                	lw	t1,16(sp)
   1659e:	58a2                	lw	a7,40(sp)
   165a0:	22a05e63          	blez	a0,167dc <__gdtoa+0xeec>
   165a4:	03900693          	li	a3,57
   165a8:	e4d307e3          	beq	t1,a3,163f6 <__gdtoa+0xb06>
   165ac:	02000793          	li	a5,32
   165b0:	03190313          	addi	t1,s2,49
   165b4:	d03e                	sw	a5,32(sp)
   165b6:	b655                	j	1615a <__gdtoa+0x86a>
   165b8:	02f7f7d3          	fadd.d	fa5,fa5,fa5
   165bc:	fff64683          	lbu	a3,-1(a2) # fcbfffff <__BSS_END__+0xfcbe3333>
   165c0:	a2f715d3          	flt.d	a1,fa4,fa5
   165c4:	9e059ae3          	bnez	a1,15fb8 <__gdtoa+0x6c8>
   165c8:	a2e7a5d3          	feq.d	a1,fa5,fa4
   165cc:	c581                	beqz	a1,165d4 <__gdtoa+0xce4>
   165ce:	8b85                	andi	a5,a5,1
   165d0:	9e0794e3          	bnez	a5,15fb8 <__gdtoa+0x6c8>
   165d4:	87b2                	mv	a5,a2
   165d6:	4b41                	li	s6,16
   165d8:	03000593          	li	a1,48
   165dc:	fff7c703          	lbu	a4,-1(a5)
   165e0:	863e                	mv	a2,a5
   165e2:	17fd                	addi	a5,a5,-1
   165e4:	feb70ce3          	beq	a4,a1,165dc <__gdtoa+0xcec>
   165e8:	892a                	mv	s2,a0
   165ea:	bcf9                	j	160c8 <__gdtoa+0x7d8>
   165ec:	03100693          	li	a3,49
   165f0:	0505                	addi	a0,a0,1
   165f2:	b2d5                	j	15fd6 <__gdtoa+0x6e6>
   165f4:	de32                	sw	a2,60(sp)
   165f6:	dc1a                	sw	t1,56(sp)
   165f8:	3762                	fld	fa4,56(sp)
   165fa:	de7e                	sw	t6,60(sp)
   165fc:	dc7a                	sw	t5,56(sp)
   165fe:	35e2                	fld	fa1,56(sp)
   16600:	12e7f653          	fmul.d	fa2,fa5,fa4
   16604:	ee81b707          	fld	fa4,-280(gp) # 1c960 <__SDATA_BEGIN__+0x40>
   16608:	4685                	li	a3,1
   1660a:	22b587d3          	fmv.d	fa5,fa1
   1660e:	d6b6                	sw	a3,108(sp)
   16610:	8646                	mv	a2,a7
   16612:	4f81                	li	t6,0
   16614:	a029                	j	1661e <__gdtoa+0xd2e>
   16616:	12e7f7d3          	fmul.d	fa5,fa5,fa4
   1661a:	d6ba                	sw	a4,108(sp)
   1661c:	4f85                	li	t6,1
   1661e:	c20797d3          	fcvt.w.d	a5,fa5,rtz
   16622:	0605                	addi	a2,a2,1
   16624:	03078693          	addi	a3,a5,48
   16628:	0ff6f693          	zext.b	a3,a3
   1662c:	c791                	beqz	a5,16638 <__gdtoa+0xd48>
   1662e:	d20786d3          	fcvt.d.w	fa3,a5
   16632:	4f85                	li	t6,1
   16634:	0ad7f7d3          	fsub.d	fa5,fa5,fa3
   16638:	fed60fa3          	sb	a3,-1(a2)
   1663c:	57b6                	lw	a5,108(sp)
   1663e:	00178713          	addi	a4,a5,1
   16642:	fca79ae3          	bne	a5,a0,16616 <__gdtoa+0xd26>
   16646:	000f8463          	beqz	t6,1664e <__gdtoa+0xd5e>
   1664a:	22f785d3          	fmv.d	fa1,fa5
   1664e:	f101b787          	fld	fa5,-240(gp) # 1c988 <__SDATA_BEGIN__+0x68>
   16652:	02f67753          	fadd.d	fa4,fa2,fa5
   16656:	a2b71553          	flt.d	a0,fa4,fa1
   1665a:	0e051f63          	bnez	a0,16758 <__gdtoa+0xe68>
   1665e:	0ac7f7d3          	fsub.d	fa5,fa5,fa2
   16662:	a2f596d3          	flt.d	a3,fa1,fa5
   16666:	12069763          	bnez	a3,16794 <__gdtoa+0xea4>
   1666a:	5f02                	lw	t5,32(sp)
   1666c:	5f92                	lw	t6,36(sp)
   1666e:	e80c57e3          	bgez	s8,164fc <__gdtoa+0xc0c>
   16672:	47e2                	lw	a5,24(sp)
   16674:	5d42                	lw	s10,48(sp)
   16676:	d002                	sw	zero,32(sp)
   16678:	dc3e                	sw	a5,56(sp)
   1667a:	4c01                	li	s8,0
   1667c:	d1aff06f          	j	15b96 <__gdtoa+0x2a6>
   16680:	835e                	mv	t1,s7
   16682:	89e2                	mv	s3,s8
   16684:	58a2                	lw	a7,40(sp)
   16686:	4be2                	lw	s7,24(sp)
   16688:	54b2                	lw	s1,44(sp)
   1668a:	8c52                	mv	s8,s4
   1668c:	be7d                	j	1624a <__gdtoa+0x95a>
   1668e:	e20782e3          	beqz	a5,164b2 <__gdtoa+0xbc2>
   16692:	4576                	lw	a0,92(sp)
   16694:	e4a05fe3          	blez	a0,164f2 <__gdtoa+0xc02>
   16698:	ee81b787          	fld	fa5,-280(gp) # 1c960 <__SDATA_BEGIN__+0x40>
   1669c:	53fd                	li	t2,-1
   1669e:	12f777d3          	fmul.d	fa5,fa4,fa5
   166a2:	ef01b707          	fld	fa4,-272(gp) # 1c968 <__SDATA_BEGIN__+0x48>
   166a6:	bc3e                	fsd	fa5,56(sp)
   166a8:	36e2                	fld	fa3,56(sp)
   166aa:	ef81b787          	fld	fa5,-264(gp) # 1c970 <__SDATA_BEGIN__+0x50>
   166ae:	fcc00637          	lui	a2,0xfcc00
   166b2:	5f62                	lw	t5,56(sp)
   166b4:	7ae6f7c3          	fmadd.d	fa5,fa3,fa4,fa5
   166b8:	5ff2                	lw	t6,60(sp)
   166ba:	a0be                	fsd	fa5,64(sp)
   166bc:	4706                	lw	a4,64(sp)
   166be:	4796                	lw	a5,68(sp)
   166c0:	833a                	mv	t1,a4
   166c2:	963e                	add	a2,a2,a5
   166c4:	857ff06f          	j	15f1a <__gdtoa+0x62a>
   166c8:	fff64683          	lbu	a3,-1(a2) # fcbfffff <__BSS_END__+0xfcbe3333>
   166cc:	b0f5                	j	15fb8 <__gdtoa+0x6c8>
   166ce:	4909                	li	s2,2
   166d0:	4581                	li	a1,0
   166d2:	4c01                	li	s8,0
   166d4:	b119                	j	162da <__gdtoa+0x9ea>
   166d6:	4762                	lw	a4,24(sp)
   166d8:	d6be                	sw	a5,108(sp)
   166da:	9ebe                	add	t4,t4,a5
   166dc:	97ba                	add	a5,a5,a4
   166de:	dc3a                	sw	a4,56(sp)
   166e0:	cc3e                	sw	a5,24(sp)
   166e2:	c9aff06f          	j	15b7c <__gdtoa+0x28c>
   166e6:	835e                	mv	t1,s7
   166e8:	03900693          	li	a3,57
   166ec:	58a2                	lw	a7,40(sp)
   166ee:	4be2                	lw	s7,24(sp)
   166f0:	54b2                	lw	s1,44(sp)
   166f2:	d0d302e3          	beq	t1,a3,163f6 <__gdtoa+0xb06>
   166f6:	0305                	addi	t1,t1,1
   166f8:	89e2                	mv	s3,s8
   166fa:	001d8613          	addi	a2,s11,1
   166fe:	006d8023          	sb	t1,0(s11)
   16702:	8c52                	mv	s8,s4
   16704:	02000b13          	li	s6,32
   16708:	b4b5                	j	16174 <__gdtoa+0x884>
   1670a:	57d2                	lw	a5,52(sp)
   1670c:	4581                	li	a1,0
   1670e:	4c01                	li	s8,0
   16710:	00278913          	addi	s2,a5,2
   16714:	b6d9                	j	162da <__gdtoa+0x9ea>
   16716:	85e2                	mv	a1,s8
   16718:	4681                	li	a3,0
   1671a:	4629                	li	a2,10
   1671c:	8522                	mv	a0,s0
   1671e:	230d                	jal	16c40 <__multadd>
   16720:	8c2a                	mv	s8,a0
   16722:	f0050763          	beqz	a0,15e30 <__gdtoa+0x540>
   16726:	47f6                	lw	a5,92(sp)
   16728:	4842                	lw	a6,16(sp)
   1672a:	48e2                	lw	a7,24(sp)
   1672c:	00f05563          	blez	a5,16736 <__gdtoa+0xe46>
   16730:	d63e                	sw	a5,44(sp)
   16732:	d06ff06f          	j	15c38 <__gdtoa+0x348>
   16736:	4789                	li	a5,2
   16738:	0927cf63          	blt	a5,s2,167d6 <__gdtoa+0xee6>
   1673c:	47f6                	lw	a5,92(sp)
   1673e:	d63e                	sw	a5,44(sp)
   16740:	cf8ff06f          	j	15c38 <__gdtoa+0x348>
   16744:	d2000753          	fcvt.d.w	fa4,zero
   16748:	00138913          	addi	s2,t2,1
   1674c:	a2e7ab53          	feq.d	s6,fa5,fa4
   16750:	001b3b13          	seqz	s6,s6
   16754:	0b12                	slli	s6,s6,0x4
   16756:	ba8d                	j	160c8 <__gdtoa+0x7d8>
   16758:	00138513          	addi	a0,t2,1
   1675c:	85dff06f          	j	15fb8 <__gdtoa+0x6c8>
   16760:	5f02                	lw	t5,32(sp)
   16762:	5f92                	lw	t6,36(sp)
   16764:	d80c5ce3          	bgez	s8,164fc <__gdtoa+0xc0c>
   16768:	d002                	sw	zero,32(sp)
   1676a:	bccff06f          	j	15b36 <__gdtoa+0x246>
   1676e:	57b2                	lw	a5,44(sp)
   16770:	5742                	lw	a4,48(sp)
   16772:	fff78693          	addi	a3,a5,-1
   16776:	c0d74ee3          	blt	a4,a3,16392 <__gdtoa+0xaa2>
   1677a:	4662                	lw	a2,24(sp)
   1677c:	9ebe                	add	t4,t4,a5
   1677e:	d6be                	sw	a5,108(sp)
   16780:	97b2                	add	a5,a5,a2
   16782:	dc32                	sw	a2,56(sp)
   16784:	40d70d33          	sub	s10,a4,a3
   16788:	cc3e                	sw	a5,24(sp)
   1678a:	bf2ff06f          	j	15b7c <__gdtoa+0x28c>
   1678e:	d002                	sw	zero,32(sp)
   16790:	ba0ff06f          	j	15b30 <__gdtoa+0x240>
   16794:	d20007d3          	fcvt.d.w	fa5,zero
   16798:	87b2                	mv	a5,a2
   1679a:	00138513          	addi	a0,t2,1
   1679e:	a2f5ab53          	feq.d	s6,fa1,fa5
   167a2:	001b3b13          	seqz	s6,s6
   167a6:	0b12                	slli	s6,s6,0x4
   167a8:	bd05                	j	165d8 <__gdtoa+0xce8>
   167aa:	835e                	mv	t1,s7
   167ac:	03900693          	li	a3,57
   167b0:	8926                	mv	s2,s1
   167b2:	58a2                	lw	a7,40(sp)
   167b4:	4be2                	lw	s7,24(sp)
   167b6:	54b2                	lw	s1,44(sp)
   167b8:	c2d30fe3          	beq	t1,a3,163f6 <__gdtoa+0xb06>
   167bc:	07505d63          	blez	s5,16836 <__gdtoa+0xf46>
   167c0:	03190313          	addi	t1,s2,49
   167c4:	02000b13          	li	s6,32
   167c8:	89e2                	mv	s3,s8
   167ca:	001d8613          	addi	a2,s11,1
   167ce:	006d8023          	sb	t1,0(s11)
   167d2:	8c52                	mv	s8,s4
   167d4:	b245                	j	16174 <__gdtoa+0x884>
   167d6:	47f6                	lw	a5,92(sp)
   167d8:	d63e                	sw	a5,44(sp)
   167da:	b4f9                	j	162a8 <__gdtoa+0x9b8>
   167dc:	e509                	bnez	a0,167e6 <__gdtoa+0xef6>
   167de:	00137693          	andi	a3,t1,1
   167e2:	dc0691e3          	bnez	a3,165a4 <__gdtoa+0xcb4>
   167e6:	02000793          	li	a5,32
   167ea:	d03e                	sw	a5,32(sp)
   167ec:	b2bd                	j	1615a <__gdtoa+0x86a>
   167ee:	014ca683          	lw	a3,20(s9)
   167f2:	96069ce3          	bnez	a3,1616a <__gdtoa+0x87a>
   167f6:	5b02                	lw	s6,32(sp)
   167f8:	ba8d                	j	1616a <__gdtoa+0x87a>
   167fa:	03900693          	li	a3,57
   167fe:	88da                	mv	a7,s6
   16800:	00da8b63          	beq	s5,a3,16816 <__gdtoa+0xf26>
   16804:	001a8313          	addi	t1,s5,1
   16808:	02000b13          	li	s6,32
   1680c:	bab9                	j	1616a <__gdtoa+0x87a>
   1680e:	4b41                	li	s6,16
   16810:	001d8913          	addi	s2,s11,1
   16814:	ba99                	j	1616a <__gdtoa+0x87a>
   16816:	89e2                	mv	s3,s8
   16818:	86ee                	mv	a3,s11
   1681a:	8c52                	mv	s8,s4
   1681c:	b6d5                	j	16400 <__gdtoa+0xb10>
   1681e:	010ca603          	lw	a2,16(s9)
   16822:	4685                	li	a3,1
   16824:	d0c6ca63          	blt	a3,a2,15d38 <__gdtoa+0x448>
   16828:	014ca683          	lw	a3,20(s9)
   1682c:	d0069663          	bnez	a3,15d38 <__gdtoa+0x448>
   16830:	001d8913          	addi	s2,s11,1
   16834:	ba1d                	j	1616a <__gdtoa+0x87a>
   16836:	010ca603          	lw	a2,16(s9)
   1683a:	4685                	li	a3,1
   1683c:	4b41                	li	s6,16
   1683e:	f8c6c5e3          	blt	a3,a2,167c8 <__gdtoa+0xed8>
   16842:	014cab03          	lw	s6,20(s9)
   16846:	01603b33          	snez	s6,s6
   1684a:	0b12                	slli	s6,s6,0x4
   1684c:	bfb5                	j	167c8 <__gdtoa+0xed8>
   1684e:	000ace63          	bltz	s5,1686a <__gdtoa+0xf7a>
   16852:	01596ab3          	or	s5,s2,s5
   16856:	000a9663          	bnez	s5,16862 <__gdtoa+0xf72>
   1685a:	0009a783          	lw	a5,0(s3)
   1685e:	8b85                	andi	a5,a5,1
   16860:	c789                	beqz	a5,1686a <__gdtoa+0xf7a>
   16862:	c0d05c63          	blez	a3,15c7a <__gdtoa+0x38a>
   16866:	c0cff06f          	j	15c72 <__gdtoa+0x382>
   1686a:	5782                	lw	a5,32(sp)
   1686c:	8926                	mv	s2,s1
   1686e:	835e                	mv	t1,s7
   16870:	58a2                	lw	a7,40(sp)
   16872:	4be2                	lw	s7,24(sp)
   16874:	54b2                	lw	s1,44(sp)
   16876:	c385                	beqz	a5,16896 <__gdtoa+0xfa6>
   16878:	010ca583          	lw	a1,16(s9)
   1687c:	4605                	li	a2,1
   1687e:	cab64d63          	blt	a2,a1,15d38 <__gdtoa+0x448>
   16882:	014ca603          	lw	a2,20(s9)
   16886:	ca061963          	bnez	a2,15d38 <__gdtoa+0x448>
   1688a:	ced04ce3          	bgtz	a3,16582 <__gdtoa+0xc92>
   1688e:	4b01                	li	s6,0
   16890:	001d8913          	addi	s2,s11,1
   16894:	b8d9                	j	1616a <__gdtoa+0x87a>
   16896:	8cd052e3          	blez	a3,1615a <__gdtoa+0x86a>
   1689a:	b1e5                	j	16582 <__gdtoa+0xc92>

0001689c <__rv_alloc_D2A>:
   1689c:	1141                	addi	sp,sp,-16
   1689e:	c422                	sw	s0,8(sp)
   168a0:	c606                	sw	ra,12(sp)
   168a2:	47cd                	li	a5,19
   168a4:	4401                	li	s0,0
   168a6:	00b7f963          	bgeu	a5,a1,168b8 <__rv_alloc_D2A+0x1c>
   168aa:	4791                	li	a5,4
   168ac:	0786                	slli	a5,a5,0x1
   168ae:	01078713          	addi	a4,a5,16
   168b2:	0405                	addi	s0,s0,1
   168b4:	fee5fce3          	bgeu	a1,a4,168ac <__rv_alloc_D2A+0x10>
   168b8:	85a2                	mv	a1,s0
   168ba:	2621                	jal	16bc2 <_Balloc>
   168bc:	c119                	beqz	a0,168c2 <__rv_alloc_D2A+0x26>
   168be:	c100                	sw	s0,0(a0)
   168c0:	0511                	addi	a0,a0,4
   168c2:	40b2                	lw	ra,12(sp)
   168c4:	4422                	lw	s0,8(sp)
   168c6:	0141                	addi	sp,sp,16
   168c8:	8082                	ret

000168ca <__nrv_alloc_D2A>:
   168ca:	1141                	addi	sp,sp,-16
   168cc:	c422                	sw	s0,8(sp)
   168ce:	c04a                	sw	s2,0(sp)
   168d0:	c606                	sw	ra,12(sp)
   168d2:	c226                	sw	s1,4(sp)
   168d4:	47cd                	li	a5,19
   168d6:	842e                	mv	s0,a1
   168d8:	8932                	mv	s2,a2
   168da:	04d7f963          	bgeu	a5,a3,1692c <__nrv_alloc_D2A+0x62>
   168de:	4791                	li	a5,4
   168e0:	4481                	li	s1,0
   168e2:	0786                	slli	a5,a5,0x1
   168e4:	01078713          	addi	a4,a5,16
   168e8:	0485                	addi	s1,s1,1
   168ea:	fee6fce3          	bgeu	a3,a4,168e2 <__nrv_alloc_D2A+0x18>
   168ee:	85a6                	mv	a1,s1
   168f0:	2cc9                	jal	16bc2 <_Balloc>
   168f2:	87aa                	mv	a5,a0
   168f4:	cd15                	beqz	a0,16930 <__nrv_alloc_D2A+0x66>
   168f6:	c104                	sw	s1,0(a0)
   168f8:	00044703          	lbu	a4,0(s0)
   168fc:	0511                	addi	a0,a0,4
   168fe:	00140593          	addi	a1,s0,1
   16902:	00e78223          	sb	a4,4(a5)
   16906:	87aa                	mv	a5,a0
   16908:	cb01                	beqz	a4,16918 <__nrv_alloc_D2A+0x4e>
   1690a:	0005c703          	lbu	a4,0(a1)
   1690e:	0785                	addi	a5,a5,1
   16910:	0585                	addi	a1,a1,1
   16912:	00e78023          	sb	a4,0(a5)
   16916:	fb75                	bnez	a4,1690a <__nrv_alloc_D2A+0x40>
   16918:	00090463          	beqz	s2,16920 <__nrv_alloc_D2A+0x56>
   1691c:	00f92023          	sw	a5,0(s2)
   16920:	40b2                	lw	ra,12(sp)
   16922:	4422                	lw	s0,8(sp)
   16924:	4492                	lw	s1,4(sp)
   16926:	4902                	lw	s2,0(sp)
   16928:	0141                	addi	sp,sp,16
   1692a:	8082                	ret
   1692c:	4481                	li	s1,0
   1692e:	b7c1                	j	168ee <__nrv_alloc_D2A+0x24>
   16930:	4501                	li	a0,0
   16932:	b7fd                	j	16920 <__nrv_alloc_D2A+0x56>

00016934 <__freedtoa>:
   16934:	ffc5a683          	lw	a3,-4(a1)
   16938:	4705                	li	a4,1
   1693a:	87ae                	mv	a5,a1
   1693c:	00d71733          	sll	a4,a4,a3
   16940:	15f1                	addi	a1,a1,-4
   16942:	c394                	sw	a3,0(a5)
   16944:	c3d8                	sw	a4,4(a5)
   16946:	a4e5                	j	16c2e <_Bfree>

00016948 <__quorem_D2A>:
   16948:	1101                	addi	sp,sp,-32
   1694a:	ca26                	sw	s1,20(sp)
   1694c:	491c                	lw	a5,16(a0)
   1694e:	4984                	lw	s1,16(a1)
   16950:	ce06                	sw	ra,28(sp)
   16952:	1497c163          	blt	a5,s1,16a94 <__quorem_D2A+0x14c>
   16956:	14fd                	addi	s1,s1,-1
   16958:	00249313          	slli	t1,s1,0x2
   1695c:	cc22                	sw	s0,24(sp)
   1695e:	01458413          	addi	s0,a1,20
   16962:	c64e                	sw	s3,12(sp)
   16964:	c452                	sw	s4,8(sp)
   16966:	006409b3          	add	s3,s0,t1
   1696a:	01450a13          	addi	s4,a0,20
   1696e:	0009a783          	lw	a5,0(s3)
   16972:	9352                	add	t1,t1,s4
   16974:	00032703          	lw	a4,0(t1)
   16978:	c84a                	sw	s2,16(sp)
   1697a:	c256                	sw	s5,4(sp)
   1697c:	0785                	addi	a5,a5,1
   1697e:	02f75933          	divu	s2,a4,a5
   16982:	8aaa                	mv	s5,a0
   16984:	08f76663          	bltu	a4,a5,16a10 <__quorem_D2A+0xc8>
   16988:	6541                	lui	a0,0x10
   1698a:	88a2                	mv	a7,s0
   1698c:	8852                	mv	a6,s4
   1698e:	4f01                	li	t5,0
   16990:	4e81                	li	t4,0
   16992:	157d                	addi	a0,a0,-1 # ffff <exit-0x95>
   16994:	0008a783          	lw	a5,0(a7)
   16998:	00082603          	lw	a2,0(a6)
   1699c:	0811                	addi	a6,a6,4
   1699e:	00a7f6b3          	and	a3,a5,a0
   169a2:	83c1                	srli	a5,a5,0x10
   169a4:	00a67733          	and	a4,a2,a0
   169a8:	01065e13          	srli	t3,a2,0x10
   169ac:	0891                	addi	a7,a7,4
   169ae:	032686b3          	mul	a3,a3,s2
   169b2:	032787b3          	mul	a5,a5,s2
   169b6:	96fa                	add	a3,a3,t5
   169b8:	00a6f633          	and	a2,a3,a0
   169bc:	8f11                	sub	a4,a4,a2
   169be:	41d70733          	sub	a4,a4,t4
   169c2:	82c1                	srli	a3,a3,0x10
   169c4:	01075613          	srli	a2,a4,0x10
   169c8:	8a05                	andi	a2,a2,1
   169ca:	8f69                	and	a4,a4,a0
   169cc:	97b6                	add	a5,a5,a3
   169ce:	00a7f6b3          	and	a3,a5,a0
   169d2:	9636                	add	a2,a2,a3
   169d4:	40ce06b3          	sub	a3,t3,a2
   169d8:	01069613          	slli	a2,a3,0x10
   169dc:	8f51                	or	a4,a4,a2
   169de:	82c1                	srli	a3,a3,0x10
   169e0:	fee82e23          	sw	a4,-4(a6)
   169e4:	0107df13          	srli	t5,a5,0x10
   169e8:	0016fe93          	andi	t4,a3,1
   169ec:	fb19f4e3          	bgeu	s3,a7,16994 <__quorem_D2A+0x4c>
   169f0:	00032783          	lw	a5,0(t1)
   169f4:	ef91                	bnez	a5,16a10 <__quorem_D2A+0xc8>
   169f6:	1371                	addi	t1,t1,-4
   169f8:	006a6663          	bltu	s4,t1,16a04 <__quorem_D2A+0xbc>
   169fc:	a801                	j	16a0c <__quorem_D2A+0xc4>
   169fe:	14fd                	addi	s1,s1,-1
   16a00:	006a7663          	bgeu	s4,t1,16a0c <__quorem_D2A+0xc4>
   16a04:	00032783          	lw	a5,0(t1)
   16a08:	1371                	addi	t1,t1,-4
   16a0a:	dbf5                	beqz	a5,169fe <__quorem_D2A+0xb6>
   16a0c:	009aa823          	sw	s1,16(s5)
   16a10:	8556                	mv	a0,s5
   16a12:	099000ef          	jal	172aa <__mcmp>
   16a16:	06054563          	bltz	a0,16a80 <__quorem_D2A+0x138>
   16a1a:	6541                	lui	a0,0x10
   16a1c:	85d2                	mv	a1,s4
   16a1e:	4681                	li	a3,0
   16a20:	157d                	addi	a0,a0,-1 # ffff <exit-0x95>
   16a22:	419c                	lw	a5,0(a1)
   16a24:	4010                	lw	a2,0(s0)
   16a26:	0591                	addi	a1,a1,4
   16a28:	00a7f733          	and	a4,a5,a0
   16a2c:	00a67833          	and	a6,a2,a0
   16a30:	41070733          	sub	a4,a4,a6
   16a34:	8f15                	sub	a4,a4,a3
   16a36:	01075693          	srli	a3,a4,0x10
   16a3a:	8a85                	andi	a3,a3,1
   16a3c:	8241                	srli	a2,a2,0x10
   16a3e:	96b2                	add	a3,a3,a2
   16a40:	83c1                	srli	a5,a5,0x10
   16a42:	8f95                	sub	a5,a5,a3
   16a44:	01079693          	slli	a3,a5,0x10
   16a48:	8f69                	and	a4,a4,a0
   16a4a:	8f55                	or	a4,a4,a3
   16a4c:	83c1                	srli	a5,a5,0x10
   16a4e:	0411                	addi	s0,s0,4
   16a50:	fee5ae23          	sw	a4,-4(a1)
   16a54:	0017f693          	andi	a3,a5,1
   16a58:	fc89f5e3          	bgeu	s3,s0,16a22 <__quorem_D2A+0xda>
   16a5c:	00249793          	slli	a5,s1,0x2
   16a60:	97d2                	add	a5,a5,s4
   16a62:	4398                	lw	a4,0(a5)
   16a64:	ef09                	bnez	a4,16a7e <__quorem_D2A+0x136>
   16a66:	17f1                	addi	a5,a5,-4
   16a68:	00fa6663          	bltu	s4,a5,16a74 <__quorem_D2A+0x12c>
   16a6c:	a039                	j	16a7a <__quorem_D2A+0x132>
   16a6e:	14fd                	addi	s1,s1,-1
   16a70:	00fa7563          	bgeu	s4,a5,16a7a <__quorem_D2A+0x132>
   16a74:	4398                	lw	a4,0(a5)
   16a76:	17f1                	addi	a5,a5,-4
   16a78:	db7d                	beqz	a4,16a6e <__quorem_D2A+0x126>
   16a7a:	009aa823          	sw	s1,16(s5)
   16a7e:	0905                	addi	s2,s2,1
   16a80:	4462                	lw	s0,24(sp)
   16a82:	40f2                	lw	ra,28(sp)
   16a84:	49b2                	lw	s3,12(sp)
   16a86:	4a22                	lw	s4,8(sp)
   16a88:	4a92                	lw	s5,4(sp)
   16a8a:	44d2                	lw	s1,20(sp)
   16a8c:	854a                	mv	a0,s2
   16a8e:	4942                	lw	s2,16(sp)
   16a90:	6105                	addi	sp,sp,32
   16a92:	8082                	ret
   16a94:	40f2                	lw	ra,28(sp)
   16a96:	44d2                	lw	s1,20(sp)
   16a98:	4501                	li	a0,0
   16a9a:	6105                	addi	sp,sp,32
   16a9c:	8082                	ret

00016a9e <__rshift_D2A>:
   16a9e:	01052803          	lw	a6,16(a0)
   16aa2:	4055de13          	srai	t3,a1,0x5
   16aa6:	010e4763          	blt	t3,a6,16ab4 <__rshift_D2A+0x16>
   16aaa:	00052823          	sw	zero,16(a0)
   16aae:	00052a23          	sw	zero,20(a0)
   16ab2:	8082                	ret
   16ab4:	01450313          	addi	t1,a0,20
   16ab8:	00281613          	slli	a2,a6,0x2
   16abc:	002e1793          	slli	a5,t3,0x2
   16ac0:	89fd                	andi	a1,a1,31
   16ac2:	961a                	add	a2,a2,t1
   16ac4:	979a                	add	a5,a5,t1
   16ac6:	c5a1                	beqz	a1,16b0e <__rshift_D2A+0x70>
   16ac8:	4394                	lw	a3,0(a5)
   16aca:	02000e93          	li	t4,32
   16ace:	0791                	addi	a5,a5,4
   16ad0:	40be8eb3          	sub	t4,t4,a1
   16ad4:	00b6d6b3          	srl	a3,a3,a1
   16ad8:	06c7f063          	bgeu	a5,a2,16b38 <__rshift_D2A+0x9a>
   16adc:	889a                	mv	a7,t1
   16ade:	4398                	lw	a4,0(a5)
   16ae0:	0891                	addi	a7,a7,4
   16ae2:	0791                	addi	a5,a5,4
   16ae4:	01d71733          	sll	a4,a4,t4
   16ae8:	8f55                	or	a4,a4,a3
   16aea:	fee8ae23          	sw	a4,-4(a7)
   16aee:	ffc7a683          	lw	a3,-4(a5)
   16af2:	00b6d6b3          	srl	a3,a3,a1
   16af6:	fec7e4e3          	bltu	a5,a2,16ade <__rshift_D2A+0x40>
   16afa:	41c80833          	sub	a6,a6,t3
   16afe:	080a                	slli	a6,a6,0x2
   16b00:	1871                	addi	a6,a6,-4
   16b02:	981a                	add	a6,a6,t1
   16b04:	00d82023          	sw	a3,0(a6)
   16b08:	c28d                	beqz	a3,16b2a <__rshift_D2A+0x8c>
   16b0a:	0811                	addi	a6,a6,4
   16b0c:	a839                	j	16b2a <__rshift_D2A+0x8c>
   16b0e:	871a                	mv	a4,t1
   16b10:	f8c7fde3          	bgeu	a5,a2,16aaa <__rshift_D2A+0xc>
   16b14:	4394                	lw	a3,0(a5)
   16b16:	0791                	addi	a5,a5,4
   16b18:	0711                	addi	a4,a4,4
   16b1a:	fed72e23          	sw	a3,-4(a4)
   16b1e:	fec7ebe3          	bltu	a5,a2,16b14 <__rshift_D2A+0x76>
   16b22:	41c80833          	sub	a6,a6,t3
   16b26:	080a                	slli	a6,a6,0x2
   16b28:	981a                	add	a6,a6,t1
   16b2a:	406807b3          	sub	a5,a6,t1
   16b2e:	8789                	srai	a5,a5,0x2
   16b30:	c91c                	sw	a5,16(a0)
   16b32:	f6680ee3          	beq	a6,t1,16aae <__rshift_D2A+0x10>
   16b36:	8082                	ret
   16b38:	c954                	sw	a3,20(a0)
   16b3a:	daa5                	beqz	a3,16aaa <__rshift_D2A+0xc>
   16b3c:	881a                	mv	a6,t1
   16b3e:	0811                	addi	a6,a6,4
   16b40:	b7ed                	j	16b2a <__rshift_D2A+0x8c>

00016b42 <__trailz_D2A>:
   16b42:	4918                	lw	a4,16(a0)
   16b44:	1101                	addi	sp,sp,-32
   16b46:	0551                	addi	a0,a0,20
   16b48:	070a                	slli	a4,a4,0x2
   16b4a:	cc22                	sw	s0,24(sp)
   16b4c:	ce06                	sw	ra,28(sp)
   16b4e:	972a                	add	a4,a4,a0
   16b50:	4401                	li	s0,0
   16b52:	00e56863          	bltu	a0,a4,16b62 <__trailz_D2A+0x20>
   16b56:	a831                	j	16b72 <__trailz_D2A+0x30>
   16b58:	0511                	addi	a0,a0,4
   16b5a:	02040413          	addi	s0,s0,32
   16b5e:	00e57a63          	bgeu	a0,a4,16b72 <__trailz_D2A+0x30>
   16b62:	411c                	lw	a5,0(a0)
   16b64:	dbf5                	beqz	a5,16b58 <__trailz_D2A+0x16>
   16b66:	00e57663          	bgeu	a0,a4,16b72 <__trailz_D2A+0x30>
   16b6a:	0068                	addi	a0,sp,12
   16b6c:	c63e                	sw	a5,12(sp)
   16b6e:	2cc9                	jal	16e40 <__lo0bits>
   16b70:	942a                	add	s0,s0,a0
   16b72:	40f2                	lw	ra,28(sp)
   16b74:	8522                	mv	a0,s0
   16b76:	4462                	lw	s0,24(sp)
   16b78:	6105                	addi	sp,sp,32
   16b7a:	8082                	ret

00016b7c <_mbtowc_r>:
   16b7c:	e1c1a783          	lw	a5,-484(gp) # 1c894 <__global_locale+0xe4>
   16b80:	8782                	jr	a5

00016b82 <__ascii_mbtowc>:
   16b82:	c999                	beqz	a1,16b98 <__ascii_mbtowc+0x16>
   16b84:	c61d                	beqz	a2,16bb2 <__ascii_mbtowc+0x30>
   16b86:	ca95                	beqz	a3,16bba <__ascii_mbtowc+0x38>
   16b88:	00064783          	lbu	a5,0(a2)
   16b8c:	c19c                	sw	a5,0(a1)
   16b8e:	00064503          	lbu	a0,0(a2)
   16b92:	00a03533          	snez	a0,a0
   16b96:	8082                	ret
   16b98:	1141                	addi	sp,sp,-16
   16b9a:	006c                	addi	a1,sp,12
   16b9c:	ce09                	beqz	a2,16bb6 <__ascii_mbtowc+0x34>
   16b9e:	c285                	beqz	a3,16bbe <__ascii_mbtowc+0x3c>
   16ba0:	00064783          	lbu	a5,0(a2)
   16ba4:	c19c                	sw	a5,0(a1)
   16ba6:	00064503          	lbu	a0,0(a2)
   16baa:	00a03533          	snez	a0,a0
   16bae:	0141                	addi	sp,sp,16
   16bb0:	8082                	ret
   16bb2:	4501                	li	a0,0
   16bb4:	8082                	ret
   16bb6:	4501                	li	a0,0
   16bb8:	bfdd                	j	16bae <__ascii_mbtowc+0x2c>
   16bba:	5579                	li	a0,-2
   16bbc:	8082                	ret
   16bbe:	5579                	li	a0,-2
   16bc0:	b7fd                	j	16bae <__ascii_mbtowc+0x2c>

00016bc2 <_Balloc>:
   16bc2:	417c                	lw	a5,68(a0)
   16bc4:	1141                	addi	sp,sp,-16
   16bc6:	c422                	sw	s0,8(sp)
   16bc8:	c226                	sw	s1,4(sp)
   16bca:	c606                	sw	ra,12(sp)
   16bcc:	842a                	mv	s0,a0
   16bce:	84ae                	mv	s1,a1
   16bd0:	c38d                	beqz	a5,16bf2 <_Balloc+0x30>
   16bd2:	00249713          	slli	a4,s1,0x2
   16bd6:	97ba                	add	a5,a5,a4
   16bd8:	4388                	lw	a0,0(a5)
   16bda:	c515                	beqz	a0,16c06 <_Balloc+0x44>
   16bdc:	4118                	lw	a4,0(a0)
   16bde:	c398                	sw	a4,0(a5)
   16be0:	00052823          	sw	zero,16(a0)
   16be4:	00052623          	sw	zero,12(a0)
   16be8:	40b2                	lw	ra,12(sp)
   16bea:	4422                	lw	s0,8(sp)
   16bec:	4492                	lw	s1,4(sp)
   16bee:	0141                	addi	sp,sp,16
   16bf0:	8082                	ret
   16bf2:	02100613          	li	a2,33
   16bf6:	4591                	li	a1,4
   16bf8:	2a6010ef          	jal	17e9e <_calloc_r>
   16bfc:	c068                	sw	a0,68(s0)
   16bfe:	87aa                	mv	a5,a0
   16c00:	f969                	bnez	a0,16bd2 <_Balloc+0x10>
   16c02:	4501                	li	a0,0
   16c04:	b7d5                	j	16be8 <_Balloc+0x26>
   16c06:	c04a                	sw	s2,0(sp)
   16c08:	4905                	li	s2,1
   16c0a:	00991933          	sll	s2,s2,s1
   16c0e:	00590613          	addi	a2,s2,5
   16c12:	060a                	slli	a2,a2,0x2
   16c14:	4585                	li	a1,1
   16c16:	8522                	mv	a0,s0
   16c18:	286010ef          	jal	17e9e <_calloc_r>
   16c1c:	c511                	beqz	a0,16c28 <_Balloc+0x66>
   16c1e:	01252423          	sw	s2,8(a0)
   16c22:	c144                	sw	s1,4(a0)
   16c24:	4902                	lw	s2,0(sp)
   16c26:	bf6d                	j	16be0 <_Balloc+0x1e>
   16c28:	4902                	lw	s2,0(sp)
   16c2a:	4501                	li	a0,0
   16c2c:	bf75                	j	16be8 <_Balloc+0x26>

00016c2e <_Bfree>:
   16c2e:	c981                	beqz	a1,16c3e <_Bfree+0x10>
   16c30:	41d8                	lw	a4,4(a1)
   16c32:	417c                	lw	a5,68(a0)
   16c34:	070a                	slli	a4,a4,0x2
   16c36:	97ba                	add	a5,a5,a4
   16c38:	4398                	lw	a4,0(a5)
   16c3a:	c198                	sw	a4,0(a1)
   16c3c:	c38c                	sw	a1,0(a5)
   16c3e:	8082                	ret

00016c40 <__multadd>:
   16c40:	1101                	addi	sp,sp,-32
   16c42:	ca26                	sw	s1,20(sp)
   16c44:	4984                	lw	s1,16(a1)
   16c46:	6341                	lui	t1,0x10
   16c48:	cc22                	sw	s0,24(sp)
   16c4a:	c84a                	sw	s2,16(sp)
   16c4c:	c64e                	sw	s3,12(sp)
   16c4e:	ce06                	sw	ra,28(sp)
   16c50:	892e                	mv	s2,a1
   16c52:	89aa                	mv	s3,a0
   16c54:	8436                	mv	s0,a3
   16c56:	01458813          	addi	a6,a1,20
   16c5a:	4881                	li	a7,0
   16c5c:	137d                	addi	t1,t1,-1 # ffff <exit-0x95>
   16c5e:	00082783          	lw	a5,0(a6)
   16c62:	0811                	addi	a6,a6,4
   16c64:	0885                	addi	a7,a7,1
   16c66:	0067f733          	and	a4,a5,t1
   16c6a:	02c70733          	mul	a4,a4,a2
   16c6e:	0107d693          	srli	a3,a5,0x10
   16c72:	02c686b3          	mul	a3,a3,a2
   16c76:	008707b3          	add	a5,a4,s0
   16c7a:	0107d713          	srli	a4,a5,0x10
   16c7e:	0067f7b3          	and	a5,a5,t1
   16c82:	96ba                	add	a3,a3,a4
   16c84:	01069713          	slli	a4,a3,0x10
   16c88:	97ba                	add	a5,a5,a4
   16c8a:	fef82e23          	sw	a5,-4(a6)
   16c8e:	0106d413          	srli	s0,a3,0x10
   16c92:	fc98c6e3          	blt	a7,s1,16c5e <__multadd+0x1e>
   16c96:	cc09                	beqz	s0,16cb0 <__multadd+0x70>
   16c98:	00892783          	lw	a5,8(s2)
   16c9c:	02f4d263          	bge	s1,a5,16cc0 <__multadd+0x80>
   16ca0:	00448793          	addi	a5,s1,4
   16ca4:	078a                	slli	a5,a5,0x2
   16ca6:	97ca                	add	a5,a5,s2
   16ca8:	c3c0                	sw	s0,4(a5)
   16caa:	0485                	addi	s1,s1,1
   16cac:	00992823          	sw	s1,16(s2)
   16cb0:	40f2                	lw	ra,28(sp)
   16cb2:	4462                	lw	s0,24(sp)
   16cb4:	44d2                	lw	s1,20(sp)
   16cb6:	49b2                	lw	s3,12(sp)
   16cb8:	854a                	mv	a0,s2
   16cba:	4942                	lw	s2,16(sp)
   16cbc:	6105                	addi	sp,sp,32
   16cbe:	8082                	ret
   16cc0:	00492583          	lw	a1,4(s2)
   16cc4:	854e                	mv	a0,s3
   16cc6:	c452                	sw	s4,8(sp)
   16cc8:	0585                	addi	a1,a1,1
   16cca:	ef9ff0ef          	jal	16bc2 <_Balloc>
   16cce:	8a2a                	mv	s4,a0
   16cd0:	c121                	beqz	a0,16d10 <__multadd+0xd0>
   16cd2:	01092603          	lw	a2,16(s2)
   16cd6:	00c90593          	addi	a1,s2,12
   16cda:	0531                	addi	a0,a0,12
   16cdc:	0609                	addi	a2,a2,2
   16cde:	060a                	slli	a2,a2,0x2
   16ce0:	e0afe0ef          	jal	152ea <memcpy>
   16ce4:	00492703          	lw	a4,4(s2)
   16ce8:	0449a783          	lw	a5,68(s3)
   16cec:	070a                	slli	a4,a4,0x2
   16cee:	97ba                	add	a5,a5,a4
   16cf0:	4398                	lw	a4,0(a5)
   16cf2:	00e92023          	sw	a4,0(s2)
   16cf6:	0127a023          	sw	s2,0(a5)
   16cfa:	00448793          	addi	a5,s1,4
   16cfe:	8952                	mv	s2,s4
   16d00:	078a                	slli	a5,a5,0x2
   16d02:	97ca                	add	a5,a5,s2
   16d04:	4a22                	lw	s4,8(sp)
   16d06:	0485                	addi	s1,s1,1
   16d08:	c3c0                	sw	s0,4(a5)
   16d0a:	00992823          	sw	s1,16(s2)
   16d0e:	b74d                	j	16cb0 <__multadd+0x70>
   16d10:	66ed                	lui	a3,0x1b
   16d12:	656d                	lui	a0,0x1b
   16d14:	ad868693          	addi	a3,a3,-1320 # 1aad8 <__clzsi2+0x13e>
   16d18:	4601                	li	a2,0
   16d1a:	0ba00593          	li	a1,186
   16d1e:	aec50513          	addi	a0,a0,-1300 # 1aaec <__clzsi2+0x152>
   16d22:	138010ef          	jal	17e5a <__assert_func>

00016d26 <__s2b>:
   16d26:	1101                	addi	sp,sp,-32
   16d28:	cc22                	sw	s0,24(sp)
   16d2a:	ca26                	sw	s1,20(sp)
   16d2c:	c84a                	sw	s2,16(sp)
   16d2e:	c64e                	sw	s3,12(sp)
   16d30:	c452                	sw	s4,8(sp)
   16d32:	89b6                	mv	s3,a3
   16d34:	47a5                	li	a5,9
   16d36:	06a1                	addi	a3,a3,8
   16d38:	ce06                	sw	ra,28(sp)
   16d3a:	02f6c6b3          	div	a3,a3,a5
   16d3e:	892a                	mv	s2,a0
   16d40:	842e                	mv	s0,a1
   16d42:	8a32                	mv	s4,a2
   16d44:	84ba                	mv	s1,a4
   16d46:	0937d563          	bge	a5,s3,16dd0 <__s2b+0xaa>
   16d4a:	4785                	li	a5,1
   16d4c:	4581                	li	a1,0
   16d4e:	0786                	slli	a5,a5,0x1
   16d50:	0585                	addi	a1,a1,1
   16d52:	fed7cee3          	blt	a5,a3,16d4e <__s2b+0x28>
   16d56:	854a                	mv	a0,s2
   16d58:	e6bff0ef          	jal	16bc2 <_Balloc>
   16d5c:	85aa                	mv	a1,a0
   16d5e:	c93d                	beqz	a0,16dd4 <__s2b+0xae>
   16d60:	4785                	li	a5,1
   16d62:	c91c                	sw	a5,16(a0)
   16d64:	c944                	sw	s1,20(a0)
   16d66:	47a5                	li	a5,9
   16d68:	0747d163          	bge	a5,s4,16dca <__s2b+0xa4>
   16d6c:	c256                	sw	s5,4(sp)
   16d6e:	00940a93          	addi	s5,s0,9
   16d72:	84d6                	mv	s1,s5
   16d74:	9452                	add	s0,s0,s4
   16d76:	0004c683          	lbu	a3,0(s1)
   16d7a:	4629                	li	a2,10
   16d7c:	854a                	mv	a0,s2
   16d7e:	fd068693          	addi	a3,a3,-48
   16d82:	ebfff0ef          	jal	16c40 <__multadd>
   16d86:	0485                	addi	s1,s1,1
   16d88:	85aa                	mv	a1,a0
   16d8a:	fe8496e3          	bne	s1,s0,16d76 <__s2b+0x50>
   16d8e:	ff8a0413          	addi	s0,s4,-8
   16d92:	9456                	add	s0,s0,s5
   16d94:	4a92                	lw	s5,4(sp)
   16d96:	033a5163          	bge	s4,s3,16db8 <__s2b+0x92>
   16d9a:	414989b3          	sub	s3,s3,s4
   16d9e:	99a2                	add	s3,s3,s0
   16da0:	00044683          	lbu	a3,0(s0)
   16da4:	4629                	li	a2,10
   16da6:	854a                	mv	a0,s2
   16da8:	fd068693          	addi	a3,a3,-48
   16dac:	e95ff0ef          	jal	16c40 <__multadd>
   16db0:	0405                	addi	s0,s0,1
   16db2:	85aa                	mv	a1,a0
   16db4:	ff3416e3          	bne	s0,s3,16da0 <__s2b+0x7a>
   16db8:	40f2                	lw	ra,28(sp)
   16dba:	4462                	lw	s0,24(sp)
   16dbc:	44d2                	lw	s1,20(sp)
   16dbe:	4942                	lw	s2,16(sp)
   16dc0:	49b2                	lw	s3,12(sp)
   16dc2:	4a22                	lw	s4,8(sp)
   16dc4:	852e                	mv	a0,a1
   16dc6:	6105                	addi	sp,sp,32
   16dc8:	8082                	ret
   16dca:	0429                	addi	s0,s0,10
   16dcc:	4a25                	li	s4,9
   16dce:	b7e1                	j	16d96 <__s2b+0x70>
   16dd0:	4581                	li	a1,0
   16dd2:	b751                	j	16d56 <__s2b+0x30>
   16dd4:	66ed                	lui	a3,0x1b
   16dd6:	656d                	lui	a0,0x1b
   16dd8:	ad868693          	addi	a3,a3,-1320 # 1aad8 <__clzsi2+0x13e>
   16ddc:	4601                	li	a2,0
   16dde:	0d300593          	li	a1,211
   16de2:	aec50513          	addi	a0,a0,-1300 # 1aaec <__clzsi2+0x152>
   16de6:	c256                	sw	s5,4(sp)
   16de8:	072010ef          	jal	17e5a <__assert_func>

00016dec <__hi0bits>:
   16dec:	87aa                	mv	a5,a0
   16dee:	6741                	lui	a4,0x10
   16df0:	4501                	li	a0,0
   16df2:	00e7f463          	bgeu	a5,a4,16dfa <__hi0bits+0xe>
   16df6:	07c2                	slli	a5,a5,0x10
   16df8:	4541                	li	a0,16
   16dfa:	01000737          	lui	a4,0x1000
   16dfe:	00e7f463          	bgeu	a5,a4,16e06 <__hi0bits+0x1a>
   16e02:	0521                	addi	a0,a0,8
   16e04:	07a2                	slli	a5,a5,0x8
   16e06:	10000737          	lui	a4,0x10000
   16e0a:	00e7f463          	bgeu	a5,a4,16e12 <__hi0bits+0x26>
   16e0e:	0511                	addi	a0,a0,4
   16e10:	0792                	slli	a5,a5,0x4
   16e12:	40000737          	lui	a4,0x40000
   16e16:	00e7e763          	bltu	a5,a4,16e24 <__hi0bits+0x38>
   16e1a:	fff7c793          	not	a5,a5
   16e1e:	83fd                	srli	a5,a5,0x1f
   16e20:	953e                	add	a0,a0,a5
   16e22:	8082                	ret
   16e24:	078a                	slli	a5,a5,0x2
   16e26:	0007c963          	bltz	a5,16e38 <__hi0bits+0x4c>
   16e2a:	00179713          	slli	a4,a5,0x1
   16e2e:	00074763          	bltz	a4,16e3c <__hi0bits+0x50>
   16e32:	02000513          	li	a0,32
   16e36:	8082                	ret
   16e38:	0509                	addi	a0,a0,2
   16e3a:	8082                	ret
   16e3c:	050d                	addi	a0,a0,3
   16e3e:	8082                	ret

00016e40 <__lo0bits>:
   16e40:	411c                	lw	a5,0(a0)
   16e42:	872a                	mv	a4,a0
   16e44:	0077f693          	andi	a3,a5,7
   16e48:	ce81                	beqz	a3,16e60 <__lo0bits+0x20>
   16e4a:	0017f693          	andi	a3,a5,1
   16e4e:	4501                	li	a0,0
   16e50:	ee95                	bnez	a3,16e8c <__lo0bits+0x4c>
   16e52:	0027f693          	andi	a3,a5,2
   16e56:	c6b5                	beqz	a3,16ec2 <__lo0bits+0x82>
   16e58:	8385                	srli	a5,a5,0x1
   16e5a:	c31c                	sw	a5,0(a4)
   16e5c:	4505                	li	a0,1
   16e5e:	8082                	ret
   16e60:	01079693          	slli	a3,a5,0x10
   16e64:	82c1                	srli	a3,a3,0x10
   16e66:	4501                	li	a0,0
   16e68:	c6b9                	beqz	a3,16eb6 <__lo0bits+0x76>
   16e6a:	0ff7f693          	zext.b	a3,a5
   16e6e:	ce95                	beqz	a3,16eaa <__lo0bits+0x6a>
   16e70:	00f7f693          	andi	a3,a5,15
   16e74:	c68d                	beqz	a3,16e9e <__lo0bits+0x5e>
   16e76:	0037f693          	andi	a3,a5,3
   16e7a:	ce81                	beqz	a3,16e92 <__lo0bits+0x52>
   16e7c:	0017f693          	andi	a3,a5,1
   16e80:	e699                	bnez	a3,16e8e <__lo0bits+0x4e>
   16e82:	8385                	srli	a5,a5,0x1
   16e84:	0505                	addi	a0,a0,1
   16e86:	e781                	bnez	a5,16e8e <__lo0bits+0x4e>
   16e88:	02000513          	li	a0,32
   16e8c:	8082                	ret
   16e8e:	c31c                	sw	a5,0(a4)
   16e90:	8082                	ret
   16e92:	8389                	srli	a5,a5,0x2
   16e94:	0017f693          	andi	a3,a5,1
   16e98:	0509                	addi	a0,a0,2
   16e9a:	faf5                	bnez	a3,16e8e <__lo0bits+0x4e>
   16e9c:	b7dd                	j	16e82 <__lo0bits+0x42>
   16e9e:	8391                	srli	a5,a5,0x4
   16ea0:	0037f693          	andi	a3,a5,3
   16ea4:	0511                	addi	a0,a0,4
   16ea6:	faf9                	bnez	a3,16e7c <__lo0bits+0x3c>
   16ea8:	b7ed                	j	16e92 <__lo0bits+0x52>
   16eaa:	83a1                	srli	a5,a5,0x8
   16eac:	00f7f693          	andi	a3,a5,15
   16eb0:	0521                	addi	a0,a0,8
   16eb2:	f2f1                	bnez	a3,16e76 <__lo0bits+0x36>
   16eb4:	b7ed                	j	16e9e <__lo0bits+0x5e>
   16eb6:	83c1                	srli	a5,a5,0x10
   16eb8:	0ff7f693          	zext.b	a3,a5
   16ebc:	4541                	li	a0,16
   16ebe:	facd                	bnez	a3,16e70 <__lo0bits+0x30>
   16ec0:	b7ed                	j	16eaa <__lo0bits+0x6a>
   16ec2:	8389                	srli	a5,a5,0x2
   16ec4:	c31c                	sw	a5,0(a4)
   16ec6:	4509                	li	a0,2
   16ec8:	8082                	ret

00016eca <__i2b>:
   16eca:	417c                	lw	a5,68(a0)
   16ecc:	1141                	addi	sp,sp,-16
   16ece:	c422                	sw	s0,8(sp)
   16ed0:	c226                	sw	s1,4(sp)
   16ed2:	c606                	sw	ra,12(sp)
   16ed4:	842a                	mv	s0,a0
   16ed6:	84ae                	mv	s1,a1
   16ed8:	cf99                	beqz	a5,16ef6 <__i2b+0x2c>
   16eda:	43c8                	lw	a0,4(a5)
   16edc:	c121                	beqz	a0,16f1c <__i2b+0x52>
   16ede:	4118                	lw	a4,0(a0)
   16ee0:	c3d8                	sw	a4,4(a5)
   16ee2:	40b2                	lw	ra,12(sp)
   16ee4:	4422                	lw	s0,8(sp)
   16ee6:	4785                	li	a5,1
   16ee8:	c944                	sw	s1,20(a0)
   16eea:	00052623          	sw	zero,12(a0)
   16eee:	c91c                	sw	a5,16(a0)
   16ef0:	4492                	lw	s1,4(sp)
   16ef2:	0141                	addi	sp,sp,16
   16ef4:	8082                	ret
   16ef6:	02100613          	li	a2,33
   16efa:	4591                	li	a1,4
   16efc:	7a3000ef          	jal	17e9e <_calloc_r>
   16f00:	c068                	sw	a0,68(s0)
   16f02:	87aa                	mv	a5,a0
   16f04:	f979                	bnez	a0,16eda <__i2b+0x10>
   16f06:	66ed                	lui	a3,0x1b
   16f08:	656d                	lui	a0,0x1b
   16f0a:	ad868693          	addi	a3,a3,-1320 # 1aad8 <__clzsi2+0x13e>
   16f0e:	4601                	li	a2,0
   16f10:	14500593          	li	a1,325
   16f14:	aec50513          	addi	a0,a0,-1300 # 1aaec <__clzsi2+0x152>
   16f18:	743000ef          	jal	17e5a <__assert_func>
   16f1c:	4671                	li	a2,28
   16f1e:	4585                	li	a1,1
   16f20:	8522                	mv	a0,s0
   16f22:	77d000ef          	jal	17e9e <_calloc_r>
   16f26:	d165                	beqz	a0,16f06 <__i2b+0x3c>
   16f28:	4785                	li	a5,1
   16f2a:	c15c                	sw	a5,4(a0)
   16f2c:	4789                	li	a5,2
   16f2e:	c51c                	sw	a5,8(a0)
   16f30:	bf4d                	j	16ee2 <__i2b+0x18>

00016f32 <__multiply>:
   16f32:	1101                	addi	sp,sp,-32
   16f34:	c84a                	sw	s2,16(sp)
   16f36:	c64e                	sw	s3,12(sp)
   16f38:	0105a903          	lw	s2,16(a1)
   16f3c:	01062983          	lw	s3,16(a2)
   16f40:	ca26                	sw	s1,20(sp)
   16f42:	c452                	sw	s4,8(sp)
   16f44:	ce06                	sw	ra,28(sp)
   16f46:	cc22                	sw	s0,24(sp)
   16f48:	8a2e                	mv	s4,a1
   16f4a:	84b2                	mv	s1,a2
   16f4c:	01394763          	blt	s2,s3,16f5a <__multiply+0x28>
   16f50:	874e                	mv	a4,s3
   16f52:	84ae                	mv	s1,a1
   16f54:	89ca                	mv	s3,s2
   16f56:	8a32                	mv	s4,a2
   16f58:	893a                	mv	s2,a4
   16f5a:	449c                	lw	a5,8(s1)
   16f5c:	40cc                	lw	a1,4(s1)
   16f5e:	01298433          	add	s0,s3,s2
   16f62:	0087a7b3          	slt	a5,a5,s0
   16f66:	95be                	add	a1,a1,a5
   16f68:	c5bff0ef          	jal	16bc2 <_Balloc>
   16f6c:	14050363          	beqz	a0,170b2 <__multiply+0x180>
   16f70:	01450313          	addi	t1,a0,20
   16f74:	00241893          	slli	a7,s0,0x2
   16f78:	989a                	add	a7,a7,t1
   16f7a:	879a                	mv	a5,t1
   16f7c:	01137763          	bgeu	t1,a7,16f8a <__multiply+0x58>
   16f80:	0007a023          	sw	zero,0(a5)
   16f84:	0791                	addi	a5,a5,4
   16f86:	ff17ede3          	bltu	a5,a7,16f80 <__multiply+0x4e>
   16f8a:	014a0813          	addi	a6,s4,20
   16f8e:	00291e13          	slli	t3,s2,0x2
   16f92:	01448e93          	addi	t4,s1,20
   16f96:	00299593          	slli	a1,s3,0x2
   16f9a:	9e42                	add	t3,t3,a6
   16f9c:	95f6                	add	a1,a1,t4
   16f9e:	0fc87163          	bgeu	a6,t3,17080 <__multiply+0x14e>
   16fa2:	01548793          	addi	a5,s1,21
   16fa6:	4f11                	li	t5,4
   16fa8:	0ef5fe63          	bgeu	a1,a5,170a4 <__multiply+0x172>
   16fac:	66c1                	lui	a3,0x10
   16fae:	16fd                	addi	a3,a3,-1 # ffff <exit-0x95>
   16fb0:	a809                	j	16fc2 <__multiply+0x90>
   16fb2:	010fdf93          	srli	t6,t6,0x10
   16fb6:	060f9863          	bnez	t6,17026 <__multiply+0xf4>
   16fba:	0811                	addi	a6,a6,4
   16fbc:	0311                	addi	t1,t1,4
   16fbe:	0dc87163          	bgeu	a6,t3,17080 <__multiply+0x14e>
   16fc2:	00082f83          	lw	t6,0(a6)
   16fc6:	00dff3b3          	and	t2,t6,a3
   16fca:	fe0384e3          	beqz	t2,16fb2 <__multiply+0x80>
   16fce:	829a                	mv	t0,t1
   16fd0:	8ff6                	mv	t6,t4
   16fd2:	4481                	li	s1,0
   16fd4:	000fa783          	lw	a5,0(t6)
   16fd8:	0002a603          	lw	a2,0(t0)
   16fdc:	0291                	addi	t0,t0,4
   16fde:	00d7f733          	and	a4,a5,a3
   16fe2:	02770733          	mul	a4,a4,t2
   16fe6:	83c1                	srli	a5,a5,0x10
   16fe8:	00d67933          	and	s2,a2,a3
   16fec:	8241                	srli	a2,a2,0x10
   16fee:	0f91                	addi	t6,t6,4
   16ff0:	027787b3          	mul	a5,a5,t2
   16ff4:	974a                	add	a4,a4,s2
   16ff6:	9726                	add	a4,a4,s1
   16ff8:	01075493          	srli	s1,a4,0x10
   16ffc:	8f75                	and	a4,a4,a3
   16ffe:	97b2                	add	a5,a5,a2
   17000:	97a6                	add	a5,a5,s1
   17002:	01079613          	slli	a2,a5,0x10
   17006:	8f51                	or	a4,a4,a2
   17008:	fee2ae23          	sw	a4,-4(t0)
   1700c:	0107d493          	srli	s1,a5,0x10
   17010:	fcbfe2e3          	bltu	t6,a1,16fd4 <__multiply+0xa2>
   17014:	01e307b3          	add	a5,t1,t5
   17018:	c384                	sw	s1,0(a5)
   1701a:	00082f83          	lw	t6,0(a6)
   1701e:	010fdf93          	srli	t6,t6,0x10
   17022:	f80f8ce3          	beqz	t6,16fba <__multiply+0x88>
   17026:	00032703          	lw	a4,0(t1)
   1702a:	829a                	mv	t0,t1
   1702c:	8676                	mv	a2,t4
   1702e:	84ba                	mv	s1,a4
   17030:	4381                	li	t2,0
   17032:	421c                	lw	a5,0(a2)
   17034:	0104d993          	srli	s3,s1,0x10
   17038:	8f75                	and	a4,a4,a3
   1703a:	8ff5                	and	a5,a5,a3
   1703c:	03f787b3          	mul	a5,a5,t6
   17040:	0042a483          	lw	s1,4(t0)
   17044:	0291                	addi	t0,t0,4
   17046:	0611                	addi	a2,a2,4
   17048:	00d4f933          	and	s2,s1,a3
   1704c:	979e                	add	a5,a5,t2
   1704e:	97ce                	add	a5,a5,s3
   17050:	01079393          	slli	t2,a5,0x10
   17054:	00e3e733          	or	a4,t2,a4
   17058:	fee2ae23          	sw	a4,-4(t0)
   1705c:	ffe65703          	lhu	a4,-2(a2)
   17060:	83c1                	srli	a5,a5,0x10
   17062:	03f70733          	mul	a4,a4,t6
   17066:	974a                	add	a4,a4,s2
   17068:	973e                	add	a4,a4,a5
   1706a:	01075393          	srli	t2,a4,0x10
   1706e:	fcb662e3          	bltu	a2,a1,17032 <__multiply+0x100>
   17072:	01e307b3          	add	a5,t1,t5
   17076:	c398                	sw	a4,0(a5)
   17078:	0811                	addi	a6,a6,4
   1707a:	0311                	addi	t1,t1,4
   1707c:	f5c863e3          	bltu	a6,t3,16fc2 <__multiply+0x90>
   17080:	00804563          	bgtz	s0,1708a <__multiply+0x158>
   17084:	a039                	j	17092 <__multiply+0x160>
   17086:	147d                	addi	s0,s0,-1
   17088:	c409                	beqz	s0,17092 <__multiply+0x160>
   1708a:	ffc8a783          	lw	a5,-4(a7)
   1708e:	18f1                	addi	a7,a7,-4
   17090:	dbfd                	beqz	a5,17086 <__multiply+0x154>
   17092:	40f2                	lw	ra,28(sp)
   17094:	c900                	sw	s0,16(a0)
   17096:	4462                	lw	s0,24(sp)
   17098:	44d2                	lw	s1,20(sp)
   1709a:	4942                	lw	s2,16(sp)
   1709c:	49b2                	lw	s3,12(sp)
   1709e:	4a22                	lw	s4,8(sp)
   170a0:	6105                	addi	sp,sp,32
   170a2:	8082                	ret
   170a4:	409587b3          	sub	a5,a1,s1
   170a8:	17ad                	addi	a5,a5,-21
   170aa:	9bf1                	andi	a5,a5,-4
   170ac:	00478f13          	addi	t5,a5,4
   170b0:	bdf5                	j	16fac <__multiply+0x7a>
   170b2:	66ed                	lui	a3,0x1b
   170b4:	656d                	lui	a0,0x1b
   170b6:	ad868693          	addi	a3,a3,-1320 # 1aad8 <__clzsi2+0x13e>
   170ba:	4601                	li	a2,0
   170bc:	16200593          	li	a1,354
   170c0:	aec50513          	addi	a0,a0,-1300 # 1aaec <__clzsi2+0x152>
   170c4:	597000ef          	jal	17e5a <__assert_func>

000170c8 <__pow5mult>:
   170c8:	1101                	addi	sp,sp,-32
   170ca:	cc22                	sw	s0,24(sp)
   170cc:	c84a                	sw	s2,16(sp)
   170ce:	c64e                	sw	s3,12(sp)
   170d0:	ce06                	sw	ra,28(sp)
   170d2:	00367793          	andi	a5,a2,3
   170d6:	8432                	mv	s0,a2
   170d8:	89aa                	mv	s3,a0
   170da:	892e                	mv	s2,a1
   170dc:	ebad                	bnez	a5,1714e <__pow5mult+0x86>
   170de:	8409                	srai	s0,s0,0x2
   170e0:	c431                	beqz	s0,1712c <__pow5mult+0x64>
   170e2:	ca26                	sw	s1,20(sp)
   170e4:	0409a483          	lw	s1,64(s3)
   170e8:	ccbd                	beqz	s1,17166 <__pow5mult+0x9e>
   170ea:	00147793          	andi	a5,s0,1
   170ee:	eb89                	bnez	a5,17100 <__pow5mult+0x38>
   170f0:	8405                	srai	s0,s0,0x1
   170f2:	cc05                	beqz	s0,1712a <__pow5mult+0x62>
   170f4:	4088                	lw	a0,0(s1)
   170f6:	c131                	beqz	a0,1713a <__pow5mult+0x72>
   170f8:	84aa                	mv	s1,a0
   170fa:	00147793          	andi	a5,s0,1
   170fe:	dbed                	beqz	a5,170f0 <__pow5mult+0x28>
   17100:	8626                	mv	a2,s1
   17102:	85ca                	mv	a1,s2
   17104:	854e                	mv	a0,s3
   17106:	e2dff0ef          	jal	16f32 <__multiply>
   1710a:	00090d63          	beqz	s2,17124 <__pow5mult+0x5c>
   1710e:	00492703          	lw	a4,4(s2)
   17112:	0449a783          	lw	a5,68(s3)
   17116:	070a                	slli	a4,a4,0x2
   17118:	97ba                	add	a5,a5,a4
   1711a:	4398                	lw	a4,0(a5)
   1711c:	00e92023          	sw	a4,0(s2)
   17120:	0127a023          	sw	s2,0(a5)
   17124:	8405                	srai	s0,s0,0x1
   17126:	892a                	mv	s2,a0
   17128:	f471                	bnez	s0,170f4 <__pow5mult+0x2c>
   1712a:	44d2                	lw	s1,20(sp)
   1712c:	40f2                	lw	ra,28(sp)
   1712e:	4462                	lw	s0,24(sp)
   17130:	49b2                	lw	s3,12(sp)
   17132:	854a                	mv	a0,s2
   17134:	4942                	lw	s2,16(sp)
   17136:	6105                	addi	sp,sp,32
   17138:	8082                	ret
   1713a:	8626                	mv	a2,s1
   1713c:	85a6                	mv	a1,s1
   1713e:	854e                	mv	a0,s3
   17140:	df3ff0ef          	jal	16f32 <__multiply>
   17144:	c088                	sw	a0,0(s1)
   17146:	00052023          	sw	zero,0(a0)
   1714a:	84aa                	mv	s1,a0
   1714c:	b77d                	j	170fa <__pow5mult+0x32>
   1714e:	17fd                	addi	a5,a5,-1
   17150:	676d                	lui	a4,0x1b
   17152:	f3870713          	addi	a4,a4,-200 # 1af38 <p05.0>
   17156:	078a                	slli	a5,a5,0x2
   17158:	97ba                	add	a5,a5,a4
   1715a:	4390                	lw	a2,0(a5)
   1715c:	4681                	li	a3,0
   1715e:	ae3ff0ef          	jal	16c40 <__multadd>
   17162:	892a                	mv	s2,a0
   17164:	bfad                	j	170de <__pow5mult+0x16>
   17166:	4585                	li	a1,1
   17168:	854e                	mv	a0,s3
   1716a:	a59ff0ef          	jal	16bc2 <_Balloc>
   1716e:	84aa                	mv	s1,a0
   17170:	c919                	beqz	a0,17186 <__pow5mult+0xbe>
   17172:	27100793          	li	a5,625
   17176:	c95c                	sw	a5,20(a0)
   17178:	4785                	li	a5,1
   1717a:	c91c                	sw	a5,16(a0)
   1717c:	04a9a023          	sw	a0,64(s3)
   17180:	00052023          	sw	zero,0(a0)
   17184:	b79d                	j	170ea <__pow5mult+0x22>
   17186:	66ed                	lui	a3,0x1b
   17188:	656d                	lui	a0,0x1b
   1718a:	ad868693          	addi	a3,a3,-1320 # 1aad8 <__clzsi2+0x13e>
   1718e:	4601                	li	a2,0
   17190:	14500593          	li	a1,325
   17194:	aec50513          	addi	a0,a0,-1300 # 1aaec <__clzsi2+0x152>
   17198:	4c3000ef          	jal	17e5a <__assert_func>

0001719c <__lshift>:
   1719c:	1101                	addi	sp,sp,-32
   1719e:	c256                	sw	s5,4(sp)
   171a0:	0105aa83          	lw	s5,16(a1)
   171a4:	459c                	lw	a5,8(a1)
   171a6:	c64e                	sw	s3,12(sp)
   171a8:	40565993          	srai	s3,a2,0x5
   171ac:	9ace                	add	s5,s5,s3
   171ae:	cc22                	sw	s0,24(sp)
   171b0:	ca26                	sw	s1,20(sp)
   171b2:	c84a                	sw	s2,16(sp)
   171b4:	c452                	sw	s4,8(sp)
   171b6:	ce06                	sw	ra,28(sp)
   171b8:	001a8913          	addi	s2,s5,1
   171bc:	84ae                	mv	s1,a1
   171be:	8432                	mv	s0,a2
   171c0:	41cc                	lw	a1,4(a1)
   171c2:	8a2a                	mv	s4,a0
   171c4:	0127d663          	bge	a5,s2,171d0 <__lshift+0x34>
   171c8:	0786                	slli	a5,a5,0x1
   171ca:	0585                	addi	a1,a1,1
   171cc:	ff27cee3          	blt	a5,s2,171c8 <__lshift+0x2c>
   171d0:	8552                	mv	a0,s4
   171d2:	9f1ff0ef          	jal	16bc2 <_Balloc>
   171d6:	cd5d                	beqz	a0,17294 <__lshift+0xf8>
   171d8:	01450813          	addi	a6,a0,20
   171dc:	01305e63          	blez	s3,171f8 <__lshift+0x5c>
   171e0:	0995                	addi	s3,s3,5
   171e2:	098a                	slli	s3,s3,0x2
   171e4:	01350733          	add	a4,a0,s3
   171e8:	87c2                	mv	a5,a6
   171ea:	0791                	addi	a5,a5,4
   171ec:	fe07ae23          	sw	zero,-4(a5)
   171f0:	fee79de3          	bne	a5,a4,171ea <__lshift+0x4e>
   171f4:	19b1                	addi	s3,s3,-20
   171f6:	984e                	add	a6,a6,s3
   171f8:	0104a883          	lw	a7,16(s1)
   171fc:	01448793          	addi	a5,s1,20
   17200:	01f47613          	andi	a2,s0,31
   17204:	088a                	slli	a7,a7,0x2
   17206:	98be                	add	a7,a7,a5
   17208:	c63d                	beqz	a2,17276 <__lshift+0xda>
   1720a:	02000593          	li	a1,32
   1720e:	8d91                	sub	a1,a1,a2
   17210:	8342                	mv	t1,a6
   17212:	4681                	li	a3,0
   17214:	4398                	lw	a4,0(a5)
   17216:	0311                	addi	t1,t1,4
   17218:	0791                	addi	a5,a5,4
   1721a:	00c71733          	sll	a4,a4,a2
   1721e:	8f55                	or	a4,a4,a3
   17220:	fee32e23          	sw	a4,-4(t1)
   17224:	ffc7a683          	lw	a3,-4(a5)
   17228:	00b6d6b3          	srl	a3,a3,a1
   1722c:	ff17e4e3          	bltu	a5,a7,17214 <__lshift+0x78>
   17230:	01548793          	addi	a5,s1,21
   17234:	4711                	li	a4,4
   17236:	00f8e863          	bltu	a7,a5,17246 <__lshift+0xaa>
   1723a:	409887b3          	sub	a5,a7,s1
   1723e:	17ad                	addi	a5,a5,-21
   17240:	9bf1                	andi	a5,a5,-4
   17242:	00478713          	addi	a4,a5,4
   17246:	983a                	add	a6,a6,a4
   17248:	00d82023          	sw	a3,0(a6)
   1724c:	e291                	bnez	a3,17250 <__lshift+0xb4>
   1724e:	8956                	mv	s2,s5
   17250:	40d8                	lw	a4,4(s1)
   17252:	044a2783          	lw	a5,68(s4)
   17256:	40f2                	lw	ra,28(sp)
   17258:	070a                	slli	a4,a4,0x2
   1725a:	97ba                	add	a5,a5,a4
   1725c:	4398                	lw	a4,0(a5)
   1725e:	01252823          	sw	s2,16(a0)
   17262:	4462                	lw	s0,24(sp)
   17264:	c098                	sw	a4,0(s1)
   17266:	c384                	sw	s1,0(a5)
   17268:	4942                	lw	s2,16(sp)
   1726a:	44d2                	lw	s1,20(sp)
   1726c:	49b2                	lw	s3,12(sp)
   1726e:	4a22                	lw	s4,8(sp)
   17270:	4a92                	lw	s5,4(sp)
   17272:	6105                	addi	sp,sp,32
   17274:	8082                	ret
   17276:	4398                	lw	a4,0(a5)
   17278:	0791                	addi	a5,a5,4
   1727a:	0811                	addi	a6,a6,4
   1727c:	fee82e23          	sw	a4,-4(a6)
   17280:	fd17f7e3          	bgeu	a5,a7,1724e <__lshift+0xb2>
   17284:	4398                	lw	a4,0(a5)
   17286:	0791                	addi	a5,a5,4
   17288:	0811                	addi	a6,a6,4
   1728a:	fee82e23          	sw	a4,-4(a6)
   1728e:	ff17e4e3          	bltu	a5,a7,17276 <__lshift+0xda>
   17292:	bf75                	j	1724e <__lshift+0xb2>
   17294:	66ed                	lui	a3,0x1b
   17296:	656d                	lui	a0,0x1b
   17298:	ad868693          	addi	a3,a3,-1320 # 1aad8 <__clzsi2+0x13e>
   1729c:	4601                	li	a2,0
   1729e:	1de00593          	li	a1,478
   172a2:	aec50513          	addi	a0,a0,-1300 # 1aaec <__clzsi2+0x152>
   172a6:	3b5000ef          	jal	17e5a <__assert_func>

000172aa <__mcmp>:
   172aa:	4918                	lw	a4,16(a0)
   172ac:	499c                	lw	a5,16(a1)
   172ae:	882a                	mv	a6,a0
   172b0:	40f70533          	sub	a0,a4,a5
   172b4:	02f71863          	bne	a4,a5,172e4 <__mcmp+0x3a>
   172b8:	078a                	slli	a5,a5,0x2
   172ba:	0851                	addi	a6,a6,20
   172bc:	05d1                	addi	a1,a1,20
   172be:	00f80733          	add	a4,a6,a5
   172c2:	97ae                	add	a5,a5,a1
   172c4:	a019                	j	172ca <__mcmp+0x20>
   172c6:	00e87f63          	bgeu	a6,a4,172e4 <__mcmp+0x3a>
   172ca:	ffc72603          	lw	a2,-4(a4)
   172ce:	ffc7a683          	lw	a3,-4(a5)
   172d2:	1771                	addi	a4,a4,-4
   172d4:	17f1                	addi	a5,a5,-4
   172d6:	fed608e3          	beq	a2,a3,172c6 <__mcmp+0x1c>
   172da:	4505                	li	a0,1
   172dc:	00d67463          	bgeu	a2,a3,172e4 <__mcmp+0x3a>
   172e0:	557d                	li	a0,-1
   172e2:	8082                	ret
   172e4:	8082                	ret

000172e6 <__mdiff>:
   172e6:	4998                	lw	a4,16(a1)
   172e8:	4a1c                	lw	a5,16(a2)
   172ea:	1141                	addi	sp,sp,-16
   172ec:	c422                	sw	s0,8(sp)
   172ee:	c226                	sw	s1,4(sp)
   172f0:	c606                	sw	ra,12(sp)
   172f2:	c04a                	sw	s2,0(sp)
   172f4:	842e                	mv	s0,a1
   172f6:	84b2                	mv	s1,a2
   172f8:	40f706b3          	sub	a3,a4,a5
   172fc:	12f71863          	bne	a4,a5,1742c <__mdiff+0x146>
   17300:	00279693          	slli	a3,a5,0x2
   17304:	01458613          	addi	a2,a1,20
   17308:	01448713          	addi	a4,s1,20
   1730c:	00d607b3          	add	a5,a2,a3
   17310:	9736                	add	a4,a4,a3
   17312:	a019                	j	17318 <__mdiff+0x32>
   17314:	12f67463          	bgeu	a2,a5,1743c <__mdiff+0x156>
   17318:	ffc7a583          	lw	a1,-4(a5)
   1731c:	ffc72683          	lw	a3,-4(a4)
   17320:	17f1                	addi	a5,a5,-4
   17322:	1771                	addi	a4,a4,-4
   17324:	fed588e3          	beq	a1,a3,17314 <__mdiff+0x2e>
   17328:	4905                	li	s2,1
   1732a:	00d5e663          	bltu	a1,a3,17336 <__mdiff+0x50>
   1732e:	87a6                	mv	a5,s1
   17330:	4901                	li	s2,0
   17332:	84a2                	mv	s1,s0
   17334:	843e                	mv	s0,a5
   17336:	40cc                	lw	a1,4(s1)
   17338:	88bff0ef          	jal	16bc2 <_Balloc>
   1733c:	12050763          	beqz	a0,1746a <__mdiff+0x184>
   17340:	0104a883          	lw	a7,16(s1)
   17344:	01042283          	lw	t0,16(s0)
   17348:	01448f93          	addi	t6,s1,20
   1734c:	00289313          	slli	t1,a7,0x2
   17350:	01440813          	addi	a6,s0,20
   17354:	028a                	slli	t0,t0,0x2
   17356:	01450593          	addi	a1,a0,20
   1735a:	6e41                	lui	t3,0x10
   1735c:	01252623          	sw	s2,12(a0)
   17360:	937e                	add	t1,t1,t6
   17362:	92c2                	add	t0,t0,a6
   17364:	8f2e                	mv	t5,a1
   17366:	8efe                	mv	t4,t6
   17368:	4681                	li	a3,0
   1736a:	1e7d                	addi	t3,t3,-1 # ffff <exit-0x95>
   1736c:	000ea703          	lw	a4,0(t4)
   17370:	00082603          	lw	a2,0(a6)
   17374:	0f11                	addi	t5,t5,4
   17376:	01c777b3          	and	a5,a4,t3
   1737a:	01c673b3          	and	t2,a2,t3
   1737e:	407787b3          	sub	a5,a5,t2
   17382:	97b6                	add	a5,a5,a3
   17384:	8341                	srli	a4,a4,0x10
   17386:	8241                	srli	a2,a2,0x10
   17388:	4107d693          	srai	a3,a5,0x10
   1738c:	8f11                	sub	a4,a4,a2
   1738e:	9736                	add	a4,a4,a3
   17390:	01071693          	slli	a3,a4,0x10
   17394:	01c7f7b3          	and	a5,a5,t3
   17398:	8fd5                	or	a5,a5,a3
   1739a:	0811                	addi	a6,a6,4
   1739c:	feff2e23          	sw	a5,-4(t5)
   173a0:	0e91                	addi	t4,t4,4
   173a2:	41075693          	srai	a3,a4,0x10
   173a6:	fc5863e3          	bltu	a6,t0,1736c <__mdiff+0x86>
   173aa:	01540713          	addi	a4,s0,21
   173ae:	40828433          	sub	s0,t0,s0
   173b2:	142d                	addi	s0,s0,-21
   173b4:	00e2b2b3          	sltu	t0,t0,a4
   173b8:	0012cf13          	xori	t5,t0,1
   173bc:	8009                	srli	s0,s0,0x2
   173be:	4711                	li	a4,4
   173c0:	06028a63          	beqz	t0,17434 <__mdiff+0x14e>
   173c4:	9fba                	add	t6,t6,a4
   173c6:	00e58833          	add	a6,a1,a4
   173ca:	6ec1                	lui	t4,0x10
   173cc:	8e42                	mv	t3,a6
   173ce:	867e                	mv	a2,t6
   173d0:	1efd                	addi	t4,t4,-1 # ffff <exit-0x95>
   173d2:	086ff363          	bgeu	t6,t1,17458 <__mdiff+0x172>
   173d6:	421c                	lw	a5,0(a2)
   173d8:	0e11                	addi	t3,t3,4
   173da:	0611                	addi	a2,a2,4
   173dc:	01d7f733          	and	a4,a5,t4
   173e0:	9736                	add	a4,a4,a3
   173e2:	0107d593          	srli	a1,a5,0x10
   173e6:	8741                	srai	a4,a4,0x10
   173e8:	972e                	add	a4,a4,a1
   173ea:	97b6                	add	a5,a5,a3
   173ec:	01d7f7b3          	and	a5,a5,t4
   173f0:	01071693          	slli	a3,a4,0x10
   173f4:	8fd5                	or	a5,a5,a3
   173f6:	fefe2e23          	sw	a5,-4(t3)
   173fa:	41075693          	srai	a3,a4,0x10
   173fe:	fc666ce3          	bltu	a2,t1,173d6 <__mdiff+0xf0>
   17402:	137d                	addi	t1,t1,-1
   17404:	41f30333          	sub	t1,t1,t6
   17408:	ffc37313          	andi	t1,t1,-4
   1740c:	00680733          	add	a4,a6,t1
   17410:	e791                	bnez	a5,1741c <__mdiff+0x136>
   17412:	ffc72783          	lw	a5,-4(a4)
   17416:	18fd                	addi	a7,a7,-1
   17418:	1771                	addi	a4,a4,-4
   1741a:	dfe5                	beqz	a5,17412 <__mdiff+0x12c>
   1741c:	40b2                	lw	ra,12(sp)
   1741e:	4422                	lw	s0,8(sp)
   17420:	01152823          	sw	a7,16(a0)
   17424:	4492                	lw	s1,4(sp)
   17426:	4902                	lw	s2,0(sp)
   17428:	0141                	addi	sp,sp,16
   1742a:	8082                	ret
   1742c:	4905                	li	s2,1
   1742e:	f006d0e3          	bgez	a3,1732e <__mdiff+0x48>
   17432:	b711                	j	17336 <__mdiff+0x50>
   17434:	00140713          	addi	a4,s0,1
   17438:	070a                	slli	a4,a4,0x2
   1743a:	b769                	j	173c4 <__mdiff+0xde>
   1743c:	4581                	li	a1,0
   1743e:	f84ff0ef          	jal	16bc2 <_Balloc>
   17442:	cd1d                	beqz	a0,17480 <__mdiff+0x19a>
   17444:	40b2                	lw	ra,12(sp)
   17446:	4422                	lw	s0,8(sp)
   17448:	4785                	li	a5,1
   1744a:	c91c                	sw	a5,16(a0)
   1744c:	00052a23          	sw	zero,20(a0)
   17450:	4492                	lw	s1,4(sp)
   17452:	4902                	lw	s2,0(sp)
   17454:	0141                	addi	sp,sp,16
   17456:	8082                	ret
   17458:	4701                	li	a4,0
   1745a:	000f1463          	bnez	t5,17462 <__mdiff+0x17c>
   1745e:	972e                	add	a4,a4,a1
   17460:	bf45                	j	17410 <__mdiff+0x12a>
   17462:	00241713          	slli	a4,s0,0x2
   17466:	972e                	add	a4,a4,a1
   17468:	b765                	j	17410 <__mdiff+0x12a>
   1746a:	66ed                	lui	a3,0x1b
   1746c:	656d                	lui	a0,0x1b
   1746e:	ad868693          	addi	a3,a3,-1320 # 1aad8 <__clzsi2+0x13e>
   17472:	4601                	li	a2,0
   17474:	24500593          	li	a1,581
   17478:	aec50513          	addi	a0,a0,-1300 # 1aaec <__clzsi2+0x152>
   1747c:	1df000ef          	jal	17e5a <__assert_func>
   17480:	66ed                	lui	a3,0x1b
   17482:	656d                	lui	a0,0x1b
   17484:	ad868693          	addi	a3,a3,-1320 # 1aad8 <__clzsi2+0x13e>
   17488:	4601                	li	a2,0
   1748a:	23700593          	li	a1,567
   1748e:	aec50513          	addi	a0,a0,-1300 # 1aaec <__clzsi2+0x152>
   17492:	1c9000ef          	jal	17e5a <__assert_func>

00017496 <__ulp>:
   17496:	7ff007b7          	lui	a5,0x7ff00
   1749a:	8dfd                	and	a1,a1,a5
   1749c:	fcc007b7          	lui	a5,0xfcc00
   174a0:	95be                	add	a1,a1,a5
   174a2:	4781                	li	a5,0
   174a4:	00b05463          	blez	a1,174ac <__ulp+0x16>
   174a8:	853e                	mv	a0,a5
   174aa:	8082                	ret
   174ac:	40b005b3          	neg	a1,a1
   174b0:	85d1                	srai	a1,a1,0x14
   174b2:	47cd                	li	a5,19
   174b4:	00b7c963          	blt	a5,a1,174c6 <__ulp+0x30>
   174b8:	000807b7          	lui	a5,0x80
   174bc:	40b7d5b3          	sra	a1,a5,a1
   174c0:	4781                	li	a5,0
   174c2:	853e                	mv	a0,a5
   174c4:	8082                	ret
   174c6:	15b1                	addi	a1,a1,-20
   174c8:	4779                	li	a4,30
   174ca:	4785                	li	a5,1
   174cc:	00b74663          	blt	a4,a1,174d8 <__ulp+0x42>
   174d0:	800007b7          	lui	a5,0x80000
   174d4:	00b7d7b3          	srl	a5,a5,a1
   174d8:	4581                	li	a1,0
   174da:	853e                	mv	a0,a5
   174dc:	8082                	ret

000174de <__b2d>:
   174de:	1101                	addi	sp,sp,-32
   174e0:	ca26                	sw	s1,20(sp)
   174e2:	4904                	lw	s1,16(a0)
   174e4:	cc22                	sw	s0,24(sp)
   174e6:	01450413          	addi	s0,a0,20
   174ea:	048a                	slli	s1,s1,0x2
   174ec:	94a2                	add	s1,s1,s0
   174ee:	c84a                	sw	s2,16(sp)
   174f0:	ffc4a903          	lw	s2,-4(s1)
   174f4:	c64e                	sw	s3,12(sp)
   174f6:	c452                	sw	s4,8(sp)
   174f8:	854a                	mv	a0,s2
   174fa:	89ae                	mv	s3,a1
   174fc:	ce06                	sw	ra,28(sp)
   174fe:	8efff0ef          	jal	16dec <__hi0bits>
   17502:	02000713          	li	a4,32
   17506:	40a707b3          	sub	a5,a4,a0
   1750a:	00f9a023          	sw	a5,0(s3)
   1750e:	47a9                	li	a5,10
   17510:	ffc48a13          	addi	s4,s1,-4
   17514:	06a7db63          	bge	a5,a0,1758a <__b2d+0xac>
   17518:	ff550613          	addi	a2,a0,-11
   1751c:	03447d63          	bgeu	s0,s4,17556 <__b2d+0x78>
   17520:	ff84a783          	lw	a5,-8(s1)
   17524:	c629                	beqz	a2,1756e <__b2d+0x90>
   17526:	40c706b3          	sub	a3,a4,a2
   1752a:	00d7d733          	srl	a4,a5,a3
   1752e:	00c91933          	sll	s2,s2,a2
   17532:	00e96933          	or	s2,s2,a4
   17536:	ff848593          	addi	a1,s1,-8
   1753a:	3ff00737          	lui	a4,0x3ff00
   1753e:	00e96733          	or	a4,s2,a4
   17542:	00c797b3          	sll	a5,a5,a2
   17546:	02b47863          	bgeu	s0,a1,17576 <__b2d+0x98>
   1754a:	ff44a603          	lw	a2,-12(s1)
   1754e:	00d656b3          	srl	a3,a2,a3
   17552:	8fd5                	or	a5,a5,a3
   17554:	a00d                	j	17576 <__b2d+0x98>
   17556:	47ad                	li	a5,11
   17558:	00f50a63          	beq	a0,a5,1756c <__b2d+0x8e>
   1755c:	00c91933          	sll	s2,s2,a2
   17560:	3ff00737          	lui	a4,0x3ff00
   17564:	00e96733          	or	a4,s2,a4
   17568:	4781                	li	a5,0
   1756a:	a031                	j	17576 <__b2d+0x98>
   1756c:	4781                	li	a5,0
   1756e:	3ff00737          	lui	a4,0x3ff00
   17572:	00e96733          	or	a4,s2,a4
   17576:	40f2                	lw	ra,28(sp)
   17578:	4462                	lw	s0,24(sp)
   1757a:	44d2                	lw	s1,20(sp)
   1757c:	4942                	lw	s2,16(sp)
   1757e:	49b2                	lw	s3,12(sp)
   17580:	4a22                	lw	s4,8(sp)
   17582:	853e                	mv	a0,a5
   17584:	85ba                	mv	a1,a4
   17586:	6105                	addi	sp,sp,32
   17588:	8082                	ret
   1758a:	46ad                	li	a3,11
   1758c:	8e89                	sub	a3,a3,a0
   1758e:	3ff007b7          	lui	a5,0x3ff00
   17592:	00d95733          	srl	a4,s2,a3
   17596:	8f5d                	or	a4,a4,a5
   17598:	4781                	li	a5,0
   1759a:	01447663          	bgeu	s0,s4,175a6 <__b2d+0xc8>
   1759e:	ff84a783          	lw	a5,-8(s1)
   175a2:	00d7d7b3          	srl	a5,a5,a3
   175a6:	0555                	addi	a0,a0,21
   175a8:	00a91933          	sll	s2,s2,a0
   175ac:	00f967b3          	or	a5,s2,a5
   175b0:	b7d9                	j	17576 <__b2d+0x98>

000175b2 <__d2b>:
   175b2:	7179                	addi	sp,sp,-48
   175b4:	ca56                	sw	s5,20(sp)
   175b6:	8aae                	mv	s5,a1
   175b8:	4585                	li	a1,1
   175ba:	d226                	sw	s1,36(sp)
   175bc:	ce4e                	sw	s3,28(sp)
   175be:	cc52                	sw	s4,24(sp)
   175c0:	d606                	sw	ra,44(sp)
   175c2:	d422                	sw	s0,40(sp)
   175c4:	d04a                	sw	s2,32(sp)
   175c6:	84b2                	mv	s1,a2
   175c8:	8a36                	mv	s4,a3
   175ca:	89ba                	mv	s3,a4
   175cc:	df6ff0ef          	jal	16bc2 <_Balloc>
   175d0:	c955                	beqz	a0,17684 <__d2b+0xd2>
   175d2:	00100737          	lui	a4,0x100
   175d6:	0144d913          	srli	s2,s1,0x14
   175da:	fff70793          	addi	a5,a4,-1 # fffff <__BSS_END__+0xe3333>
   175de:	7ff97913          	andi	s2,s2,2047
   175e2:	842a                	mv	s0,a0
   175e4:	8fe5                	and	a5,a5,s1
   175e6:	00090363          	beqz	s2,175ec <__d2b+0x3a>
   175ea:	8fd9                	or	a5,a5,a4
   175ec:	c63e                	sw	a5,12(sp)
   175ee:	040a9263          	bnez	s5,17632 <__d2b+0x80>
   175f2:	0068                	addi	a0,sp,12
   175f4:	84dff0ef          	jal	16e40 <__lo0bits>
   175f8:	4732                	lw	a4,12(sp)
   175fa:	4485                	li	s1,1
   175fc:	c804                	sw	s1,16(s0)
   175fe:	c858                	sw	a4,20(s0)
   17600:	02050793          	addi	a5,a0,32
   17604:	06090063          	beqz	s2,17664 <__d2b+0xb2>
   17608:	bcd90913          	addi	s2,s2,-1075
   1760c:	993e                	add	s2,s2,a5
   1760e:	03500493          	li	s1,53
   17612:	012a2023          	sw	s2,0(s4)
   17616:	40f48533          	sub	a0,s1,a5
   1761a:	00a9a023          	sw	a0,0(s3)
   1761e:	50b2                	lw	ra,44(sp)
   17620:	8522                	mv	a0,s0
   17622:	5422                	lw	s0,40(sp)
   17624:	5492                	lw	s1,36(sp)
   17626:	5902                	lw	s2,32(sp)
   17628:	49f2                	lw	s3,28(sp)
   1762a:	4a62                	lw	s4,24(sp)
   1762c:	4ad2                	lw	s5,20(sp)
   1762e:	6145                	addi	sp,sp,48
   17630:	8082                	ret
   17632:	0028                	addi	a0,sp,8
   17634:	c456                	sw	s5,8(sp)
   17636:	80bff0ef          	jal	16e40 <__lo0bits>
   1763a:	4732                	lw	a4,12(sp)
   1763c:	87aa                	mv	a5,a0
   1763e:	c129                	beqz	a0,17680 <__d2b+0xce>
   17640:	4622                	lw	a2,8(sp)
   17642:	02000693          	li	a3,32
   17646:	8e89                	sub	a3,a3,a0
   17648:	00d716b3          	sll	a3,a4,a3
   1764c:	00a75733          	srl	a4,a4,a0
   17650:	8ed1                	or	a3,a3,a2
   17652:	c63a                	sw	a4,12(sp)
   17654:	00e034b3          	snez	s1,a4
   17658:	0485                	addi	s1,s1,1
   1765a:	c854                	sw	a3,20(s0)
   1765c:	cc18                	sw	a4,24(s0)
   1765e:	c804                	sw	s1,16(s0)
   17660:	fa0914e3          	bnez	s2,17608 <__d2b+0x56>
   17664:	00249713          	slli	a4,s1,0x2
   17668:	9722                	add	a4,a4,s0
   1766a:	4b08                	lw	a0,16(a4)
   1766c:	bce78793          	addi	a5,a5,-1074 # 3feffbce <__BSS_END__+0x3fee2f02>
   17670:	00fa2023          	sw	a5,0(s4)
   17674:	f78ff0ef          	jal	16dec <__hi0bits>
   17678:	0496                	slli	s1,s1,0x5
   1767a:	40a48533          	sub	a0,s1,a0
   1767e:	bf71                	j	1761a <__d2b+0x68>
   17680:	46a2                	lw	a3,8(sp)
   17682:	bfc9                	j	17654 <__d2b+0xa2>
   17684:	66ed                	lui	a3,0x1b
   17686:	656d                	lui	a0,0x1b
   17688:	ad868693          	addi	a3,a3,-1320 # 1aad8 <__clzsi2+0x13e>
   1768c:	4601                	li	a2,0
   1768e:	30f00593          	li	a1,783
   17692:	aec50513          	addi	a0,a0,-1300 # 1aaec <__clzsi2+0x152>
   17696:	7c4000ef          	jal	17e5a <__assert_func>

0001769a <__ratio>:
   1769a:	7179                	addi	sp,sp,-48
   1769c:	d422                	sw	s0,40(sp)
   1769e:	842e                	mv	s0,a1
   176a0:	082c                	addi	a1,sp,24
   176a2:	d606                	sw	ra,44(sp)
   176a4:	d226                	sw	s1,36(sp)
   176a6:	84aa                	mv	s1,a0
   176a8:	e37ff0ef          	jal	174de <__b2d>
   176ac:	c02a                	sw	a0,0(sp)
   176ae:	c22e                	sw	a1,4(sp)
   176b0:	2782                	fld	fa5,0(sp)
   176b2:	086c                	addi	a1,sp,28
   176b4:	8522                	mv	a0,s0
   176b6:	a43e                	fsd	fa5,8(sp)
   176b8:	e27ff0ef          	jal	174de <__b2d>
   176bc:	4818                	lw	a4,16(s0)
   176be:	489c                	lw	a5,16(s1)
   176c0:	46f2                	lw	a3,28(sp)
   176c2:	c02a                	sw	a0,0(sp)
   176c4:	8f99                	sub	a5,a5,a4
   176c6:	4762                	lw	a4,24(sp)
   176c8:	0796                	slli	a5,a5,0x5
   176ca:	c22e                	sw	a1,4(sp)
   176cc:	8f15                	sub	a4,a4,a3
   176ce:	97ba                	add	a5,a5,a4
   176d0:	02f05263          	blez	a5,176f4 <__ratio+0x5a>
   176d4:	46b2                	lw	a3,12(sp)
   176d6:	07d2                	slli	a5,a5,0x14
   176d8:	97b6                	add	a5,a5,a3
   176da:	c63e                	sw	a5,12(sp)
   176dc:	2702                	fld	fa4,0(sp)
   176de:	27a2                	fld	fa5,8(sp)
   176e0:	50b2                	lw	ra,44(sp)
   176e2:	5422                	lw	s0,40(sp)
   176e4:	1ae7f7d3          	fdiv.d	fa5,fa5,fa4
   176e8:	5492                	lw	s1,36(sp)
   176ea:	a03e                	fsd	fa5,0(sp)
   176ec:	4502                	lw	a0,0(sp)
   176ee:	4592                	lw	a1,4(sp)
   176f0:	6145                	addi	sp,sp,48
   176f2:	8082                	ret
   176f4:	4692                	lw	a3,4(sp)
   176f6:	07d2                	slli	a5,a5,0x14
   176f8:	40f687b3          	sub	a5,a3,a5
   176fc:	c23e                	sw	a5,4(sp)
   176fe:	bff9                	j	176dc <__ratio+0x42>

00017700 <_mprec_log10>:
   17700:	47dd                	li	a5,23
   17702:	1141                	addi	sp,sp,-16
   17704:	00a7df63          	bge	a5,a0,17722 <_mprec_log10+0x22>
   17708:	eb01b787          	fld	fa5,-336(gp) # 1c928 <__SDATA_BEGIN__+0x8>
   1770c:	ee81b707          	fld	fa4,-280(gp) # 1c960 <__SDATA_BEGIN__+0x40>
   17710:	157d                	addi	a0,a0,-1
   17712:	12e7f7d3          	fmul.d	fa5,fa5,fa4
   17716:	fd6d                	bnez	a0,17710 <_mprec_log10+0x10>
   17718:	a43e                	fsd	fa5,8(sp)
   1771a:	4522                	lw	a0,8(sp)
   1771c:	45b2                	lw	a1,12(sp)
   1771e:	0141                	addi	sp,sp,16
   17720:	8082                	ret
   17722:	67ed                	lui	a5,0x1b
   17724:	050e                	slli	a0,a0,0x3
   17726:	f9878793          	addi	a5,a5,-104 # 1af98 <__mprec_tens>
   1772a:	97aa                	add	a5,a5,a0
   1772c:	239c                	fld	fa5,0(a5)
   1772e:	a43e                	fsd	fa5,8(sp)
   17730:	4522                	lw	a0,8(sp)
   17732:	45b2                	lw	a1,12(sp)
   17734:	0141                	addi	sp,sp,16
   17736:	8082                	ret

00017738 <__copybits>:
   17738:	4a14                	lw	a3,16(a2)
   1773a:	15fd                	addi	a1,a1,-1
   1773c:	8595                	srai	a1,a1,0x5
   1773e:	0585                	addi	a1,a1,1
   17740:	01460793          	addi	a5,a2,20
   17744:	068a                	slli	a3,a3,0x2
   17746:	058a                	slli	a1,a1,0x2
   17748:	96be                	add	a3,a3,a5
   1774a:	95aa                	add	a1,a1,a0
   1774c:	02d7f163          	bgeu	a5,a3,1776e <__copybits+0x36>
   17750:	872a                	mv	a4,a0
   17752:	0007a803          	lw	a6,0(a5)
   17756:	0791                	addi	a5,a5,4
   17758:	0711                	addi	a4,a4,4
   1775a:	ff072e23          	sw	a6,-4(a4)
   1775e:	fed7eae3          	bltu	a5,a3,17752 <__copybits+0x1a>
   17762:	40c687b3          	sub	a5,a3,a2
   17766:	17ad                	addi	a5,a5,-21
   17768:	9bf1                	andi	a5,a5,-4
   1776a:	0791                	addi	a5,a5,4
   1776c:	953e                	add	a0,a0,a5
   1776e:	00b57763          	bgeu	a0,a1,1777c <__copybits+0x44>
   17772:	0511                	addi	a0,a0,4
   17774:	fe052e23          	sw	zero,-4(a0)
   17778:	feb56de3          	bltu	a0,a1,17772 <__copybits+0x3a>
   1777c:	8082                	ret

0001777e <__any_on>:
   1777e:	4918                	lw	a4,16(a0)
   17780:	4055d613          	srai	a2,a1,0x5
   17784:	01450693          	addi	a3,a0,20
   17788:	00c75d63          	bge	a4,a2,177a2 <__any_on+0x24>
   1778c:	070a                	slli	a4,a4,0x2
   1778e:	00e687b3          	add	a5,a3,a4
   17792:	02f6f863          	bgeu	a3,a5,177c2 <__any_on+0x44>
   17796:	ffc7a703          	lw	a4,-4(a5)
   1779a:	17f1                	addi	a5,a5,-4
   1779c:	db7d                	beqz	a4,17792 <__any_on+0x14>
   1779e:	4505                	li	a0,1
   177a0:	8082                	ret
   177a2:	00261793          	slli	a5,a2,0x2
   177a6:	97b6                	add	a5,a5,a3
   177a8:	fee655e3          	bge	a2,a4,17792 <__any_on+0x14>
   177ac:	89fd                	andi	a1,a1,31
   177ae:	d1f5                	beqz	a1,17792 <__any_on+0x14>
   177b0:	4390                	lw	a2,0(a5)
   177b2:	4505                	li	a0,1
   177b4:	00b65733          	srl	a4,a2,a1
   177b8:	00b71733          	sll	a4,a4,a1
   177bc:	fce60be3          	beq	a2,a4,17792 <__any_on+0x14>
   177c0:	8082                	ret
   177c2:	4501                	li	a0,0
   177c4:	8082                	ret

000177c6 <_realloc_r>:
   177c6:	7179                	addi	sp,sp,-48
   177c8:	d226                	sw	s1,36(sp)
   177ca:	d606                	sw	ra,44(sp)
   177cc:	84b2                	mv	s1,a2
   177ce:	14058d63          	beqz	a1,17928 <_realloc_r+0x162>
   177d2:	d422                	sw	s0,40(sp)
   177d4:	d04a                	sw	s2,32(sp)
   177d6:	842e                	mv	s0,a1
   177d8:	ce4e                	sw	s3,28(sp)
   177da:	ca56                	sw	s5,20(sp)
   177dc:	cc52                	sw	s4,24(sp)
   177de:	892a                	mv	s2,a0
   177e0:	f96f90ef          	jal	10f76 <__malloc_lock>
   177e4:	ffc42703          	lw	a4,-4(s0)
   177e8:	00b48793          	addi	a5,s1,11
   177ec:	46d9                	li	a3,22
   177ee:	ff840a93          	addi	s5,s0,-8
   177f2:	ffc77993          	andi	s3,a4,-4
   177f6:	0af6ff63          	bgeu	a3,a5,178b4 <_realloc_r+0xee>
   177fa:	ff87fa13          	andi	s4,a5,-8
   177fe:	0a07ce63          	bltz	a5,178ba <_realloc_r+0xf4>
   17802:	0a9a6c63          	bltu	s4,s1,178ba <_realloc_r+0xf4>
   17806:	0d49d563          	bge	s3,s4,178d0 <_realloc_r+0x10a>
   1780a:	67f1                	lui	a5,0x1c
   1780c:	c462                	sw	s8,8(sp)
   1780e:	27878c13          	addi	s8,a5,632 # 1c278 <__malloc_av_>
   17812:	008c2603          	lw	a2,8(s8)
   17816:	013a86b3          	add	a3,s5,s3
   1781a:	42dc                	lw	a5,4(a3)
   1781c:	12d60e63          	beq	a2,a3,17958 <_realloc_r+0x192>
   17820:	ffe7f613          	andi	a2,a5,-2
   17824:	9636                	add	a2,a2,a3
   17826:	4250                	lw	a2,4(a2)
   17828:	8a05                	andi	a2,a2,1
   1782a:	e27d                	bnez	a2,17910 <_realloc_r+0x14a>
   1782c:	9bf1                	andi	a5,a5,-4
   1782e:	00f98633          	add	a2,s3,a5
   17832:	09465963          	bge	a2,s4,178c4 <_realloc_r+0xfe>
   17836:	8b05                	andi	a4,a4,1
   17838:	e70d                	bnez	a4,17862 <_realloc_r+0x9c>
   1783a:	c65e                	sw	s7,12(sp)
   1783c:	ff842b83          	lw	s7,-8(s0)
   17840:	c85a                	sw	s6,16(sp)
   17842:	417a8bb3          	sub	s7,s5,s7
   17846:	004ba703          	lw	a4,4(s7)
   1784a:	9b71                	andi	a4,a4,-4
   1784c:	97ba                	add	a5,a5,a4
   1784e:	01378b33          	add	s6,a5,s3
   17852:	234b5f63          	bge	s6,s4,17a90 <_realloc_r+0x2ca>
   17856:	00e98b33          	add	s6,s3,a4
   1785a:	1d4b5463          	bge	s6,s4,17a22 <_realloc_r+0x25c>
   1785e:	4b42                	lw	s6,16(sp)
   17860:	4bb2                	lw	s7,12(sp)
   17862:	85a6                	mv	a1,s1
   17864:	854a                	mv	a0,s2
   17866:	96cf90ef          	jal	109d2 <_malloc_r>
   1786a:	84aa                	mv	s1,a0
   1786c:	2e050063          	beqz	a0,17b4c <_realloc_r+0x386>
   17870:	ffc42783          	lw	a5,-4(s0)
   17874:	ff850713          	addi	a4,a0,-8
   17878:	9bf9                	andi	a5,a5,-2
   1787a:	97d6                	add	a5,a5,s5
   1787c:	18e78d63          	beq	a5,a4,17a16 <_realloc_r+0x250>
   17880:	ffc98613          	addi	a2,s3,-4
   17884:	02400793          	li	a5,36
   17888:	20c7e063          	bltu	a5,a2,17a88 <_realloc_r+0x2c2>
   1788c:	474d                	li	a4,19
   1788e:	16c76863          	bltu	a4,a2,179fe <_realloc_r+0x238>
   17892:	87aa                	mv	a5,a0
   17894:	8722                	mv	a4,s0
   17896:	4314                	lw	a3,0(a4)
   17898:	c394                	sw	a3,0(a5)
   1789a:	4354                	lw	a3,4(a4)
   1789c:	c3d4                	sw	a3,4(a5)
   1789e:	4718                	lw	a4,8(a4)
   178a0:	c798                	sw	a4,8(a5)
   178a2:	85a2                	mv	a1,s0
   178a4:	854a                	mv	a0,s2
   178a6:	862fa0ef          	jal	11908 <_free_r>
   178aa:	854a                	mv	a0,s2
   178ac:	eccf90ef          	jal	10f78 <__malloc_unlock>
   178b0:	4c22                	lw	s8,8(sp)
   178b2:	a0a9                	j	178fc <_realloc_r+0x136>
   178b4:	4a41                	li	s4,16
   178b6:	f49a78e3          	bgeu	s4,s1,17806 <_realloc_r+0x40>
   178ba:	47b1                	li	a5,12
   178bc:	00f92023          	sw	a5,0(s2)
   178c0:	4481                	li	s1,0
   178c2:	a82d                	j	178fc <_realloc_r+0x136>
   178c4:	46dc                	lw	a5,12(a3)
   178c6:	4698                	lw	a4,8(a3)
   178c8:	4c22                	lw	s8,8(sp)
   178ca:	89b2                	mv	s3,a2
   178cc:	c75c                	sw	a5,12(a4)
   178ce:	c798                	sw	a4,8(a5)
   178d0:	004aa783          	lw	a5,4(s5)
   178d4:	414986b3          	sub	a3,s3,s4
   178d8:	463d                	li	a2,15
   178da:	8b85                	andi	a5,a5,1
   178dc:	013a8733          	add	a4,s5,s3
   178e0:	04d66a63          	bltu	a2,a3,17934 <_realloc_r+0x16e>
   178e4:	0137e7b3          	or	a5,a5,s3
   178e8:	00faa223          	sw	a5,4(s5)
   178ec:	435c                	lw	a5,4(a4)
   178ee:	0017e793          	ori	a5,a5,1
   178f2:	c35c                	sw	a5,4(a4)
   178f4:	854a                	mv	a0,s2
   178f6:	e82f90ef          	jal	10f78 <__malloc_unlock>
   178fa:	84a2                	mv	s1,s0
   178fc:	5422                	lw	s0,40(sp)
   178fe:	50b2                	lw	ra,44(sp)
   17900:	5902                	lw	s2,32(sp)
   17902:	49f2                	lw	s3,28(sp)
   17904:	4a62                	lw	s4,24(sp)
   17906:	4ad2                	lw	s5,20(sp)
   17908:	8526                	mv	a0,s1
   1790a:	5492                	lw	s1,36(sp)
   1790c:	6145                	addi	sp,sp,48
   1790e:	8082                	ret
   17910:	8b05                	andi	a4,a4,1
   17912:	fb21                	bnez	a4,17862 <_realloc_r+0x9c>
   17914:	c65e                	sw	s7,12(sp)
   17916:	ff842b83          	lw	s7,-8(s0)
   1791a:	c85a                	sw	s6,16(sp)
   1791c:	417a8bb3          	sub	s7,s5,s7
   17920:	004ba703          	lw	a4,4(s7)
   17924:	9b71                	andi	a4,a4,-4
   17926:	bf05                	j	17856 <_realloc_r+0x90>
   17928:	50b2                	lw	ra,44(sp)
   1792a:	5492                	lw	s1,36(sp)
   1792c:	85b2                	mv	a1,a2
   1792e:	6145                	addi	sp,sp,48
   17930:	8a2f906f          	j	109d2 <_malloc_r>
   17934:	0147e7b3          	or	a5,a5,s4
   17938:	00faa223          	sw	a5,4(s5)
   1793c:	014a85b3          	add	a1,s5,s4
   17940:	0016e693          	ori	a3,a3,1
   17944:	c1d4                	sw	a3,4(a1)
   17946:	435c                	lw	a5,4(a4)
   17948:	05a1                	addi	a1,a1,8
   1794a:	854a                	mv	a0,s2
   1794c:	0017e793          	ori	a5,a5,1
   17950:	c35c                	sw	a5,4(a4)
   17952:	fb7f90ef          	jal	11908 <_free_r>
   17956:	bf79                	j	178f4 <_realloc_r+0x12e>
   17958:	9bf1                	andi	a5,a5,-4
   1795a:	013786b3          	add	a3,a5,s3
   1795e:	010a0613          	addi	a2,s4,16
   17962:	1ac6db63          	bge	a3,a2,17b18 <_realloc_r+0x352>
   17966:	8b05                	andi	a4,a4,1
   17968:	ee071de3          	bnez	a4,17862 <_realloc_r+0x9c>
   1796c:	c65e                	sw	s7,12(sp)
   1796e:	ff842b83          	lw	s7,-8(s0)
   17972:	c85a                	sw	s6,16(sp)
   17974:	417a8bb3          	sub	s7,s5,s7
   17978:	004ba703          	lw	a4,4(s7)
   1797c:	9b71                	andi	a4,a4,-4
   1797e:	97ba                	add	a5,a5,a4
   17980:	01378b33          	add	s6,a5,s3
   17984:	eccb49e3          	blt	s6,a2,17856 <_realloc_r+0x90>
   17988:	00cba783          	lw	a5,12(s7)
   1798c:	008ba703          	lw	a4,8(s7)
   17990:	ffc98613          	addi	a2,s3,-4
   17994:	02400693          	li	a3,36
   17998:	c75c                	sw	a5,12(a4)
   1799a:	c798                	sw	a4,8(a5)
   1799c:	008b8493          	addi	s1,s7,8
   179a0:	1cc6e563          	bltu	a3,a2,17b6a <_realloc_r+0x3a4>
   179a4:	474d                	li	a4,19
   179a6:	87a6                	mv	a5,s1
   179a8:	00c77e63          	bgeu	a4,a2,179c4 <_realloc_r+0x1fe>
   179ac:	4018                	lw	a4,0(s0)
   179ae:	47ed                	li	a5,27
   179b0:	00eba423          	sw	a4,8(s7)
   179b4:	4058                	lw	a4,4(s0)
   179b6:	00eba623          	sw	a4,12(s7)
   179ba:	1ac7ed63          	bltu	a5,a2,17b74 <_realloc_r+0x3ae>
   179be:	0421                	addi	s0,s0,8
   179c0:	010b8793          	addi	a5,s7,16
   179c4:	4018                	lw	a4,0(s0)
   179c6:	c398                	sw	a4,0(a5)
   179c8:	4058                	lw	a4,4(s0)
   179ca:	c3d8                	sw	a4,4(a5)
   179cc:	4418                	lw	a4,8(s0)
   179ce:	c798                	sw	a4,8(a5)
   179d0:	014b8733          	add	a4,s7,s4
   179d4:	414b0b33          	sub	s6,s6,s4
   179d8:	00ec2423          	sw	a4,8(s8)
   179dc:	001b6793          	ori	a5,s6,1
   179e0:	c35c                	sw	a5,4(a4)
   179e2:	004ba783          	lw	a5,4(s7)
   179e6:	854a                	mv	a0,s2
   179e8:	8b85                	andi	a5,a5,1
   179ea:	0147e7b3          	or	a5,a5,s4
   179ee:	00fba223          	sw	a5,4(s7)
   179f2:	d86f90ef          	jal	10f78 <__malloc_unlock>
   179f6:	4b42                	lw	s6,16(sp)
   179f8:	4bb2                	lw	s7,12(sp)
   179fa:	4c22                	lw	s8,8(sp)
   179fc:	b701                	j	178fc <_realloc_r+0x136>
   179fe:	4014                	lw	a3,0(s0)
   17a00:	476d                	li	a4,27
   17a02:	c114                	sw	a3,0(a0)
   17a04:	4054                	lw	a3,4(s0)
   17a06:	c154                	sw	a3,4(a0)
   17a08:	0ec76d63          	bltu	a4,a2,17b02 <_realloc_r+0x33c>
   17a0c:	00840713          	addi	a4,s0,8
   17a10:	00850793          	addi	a5,a0,8
   17a14:	b549                	j	17896 <_realloc_r+0xd0>
   17a16:	ffc52783          	lw	a5,-4(a0)
   17a1a:	4c22                	lw	s8,8(sp)
   17a1c:	9bf1                	andi	a5,a5,-4
   17a1e:	99be                	add	s3,s3,a5
   17a20:	bd45                	j	178d0 <_realloc_r+0x10a>
   17a22:	00cba783          	lw	a5,12(s7)
   17a26:	008ba703          	lw	a4,8(s7)
   17a2a:	ffc98613          	addi	a2,s3,-4
   17a2e:	02400693          	li	a3,36
   17a32:	c75c                	sw	a5,12(a4)
   17a34:	c798                	sw	a4,8(a5)
   17a36:	008b8493          	addi	s1,s7,8
   17a3a:	0ac6ef63          	bltu	a3,a2,17af8 <_realloc_r+0x332>
   17a3e:	474d                	li	a4,19
   17a40:	87a6                	mv	a5,s1
   17a42:	02c77663          	bgeu	a4,a2,17a6e <_realloc_r+0x2a8>
   17a46:	4018                	lw	a4,0(s0)
   17a48:	47ed                	li	a5,27
   17a4a:	00eba423          	sw	a4,8(s7)
   17a4e:	4058                	lw	a4,4(s0)
   17a50:	00eba623          	sw	a4,12(s7)
   17a54:	0ec7f863          	bgeu	a5,a2,17b44 <_realloc_r+0x37e>
   17a58:	441c                	lw	a5,8(s0)
   17a5a:	00fba823          	sw	a5,16(s7)
   17a5e:	445c                	lw	a5,12(s0)
   17a60:	00fbaa23          	sw	a5,20(s7)
   17a64:	06d60f63          	beq	a2,a3,17ae2 <_realloc_r+0x31c>
   17a68:	0441                	addi	s0,s0,16
   17a6a:	018b8793          	addi	a5,s7,24
   17a6e:	4018                	lw	a4,0(s0)
   17a70:	c398                	sw	a4,0(a5)
   17a72:	4058                	lw	a4,4(s0)
   17a74:	c3d8                	sw	a4,4(a5)
   17a76:	4418                	lw	a4,8(s0)
   17a78:	c798                	sw	a4,8(a5)
   17a7a:	89da                	mv	s3,s6
   17a7c:	8ade                	mv	s5,s7
   17a7e:	4b42                	lw	s6,16(sp)
   17a80:	4bb2                	lw	s7,12(sp)
   17a82:	4c22                	lw	s8,8(sp)
   17a84:	8426                	mv	s0,s1
   17a86:	b5a9                	j	178d0 <_realloc_r+0x10a>
   17a88:	85a2                	mv	a1,s0
   17a8a:	f94fd0ef          	jal	1521e <memmove>
   17a8e:	bd11                	j	178a2 <_realloc_r+0xdc>
   17a90:	46dc                	lw	a5,12(a3)
   17a92:	4698                	lw	a4,8(a3)
   17a94:	ffc98613          	addi	a2,s3,-4
   17a98:	02400693          	li	a3,36
   17a9c:	c75c                	sw	a5,12(a4)
   17a9e:	c798                	sw	a4,8(a5)
   17aa0:	008ba703          	lw	a4,8(s7)
   17aa4:	00cba783          	lw	a5,12(s7)
   17aa8:	008b8493          	addi	s1,s7,8
   17aac:	c75c                	sw	a5,12(a4)
   17aae:	c798                	sw	a4,8(a5)
   17ab0:	04c6e463          	bltu	a3,a2,17af8 <_realloc_r+0x332>
   17ab4:	474d                	li	a4,19
   17ab6:	87a6                	mv	a5,s1
   17ab8:	fac77be3          	bgeu	a4,a2,17a6e <_realloc_r+0x2a8>
   17abc:	4018                	lw	a4,0(s0)
   17abe:	47ed                	li	a5,27
   17ac0:	00eba423          	sw	a4,8(s7)
   17ac4:	4058                	lw	a4,4(s0)
   17ac6:	00eba623          	sw	a4,12(s7)
   17aca:	06c7fd63          	bgeu	a5,a2,17b44 <_realloc_r+0x37e>
   17ace:	4418                	lw	a4,8(s0)
   17ad0:	02400793          	li	a5,36
   17ad4:	00eba823          	sw	a4,16(s7)
   17ad8:	4458                	lw	a4,12(s0)
   17ada:	00ebaa23          	sw	a4,20(s7)
   17ade:	f8f615e3          	bne	a2,a5,17a68 <_realloc_r+0x2a2>
   17ae2:	4818                	lw	a4,16(s0)
   17ae4:	020b8793          	addi	a5,s7,32
   17ae8:	0461                	addi	s0,s0,24
   17aea:	00ebac23          	sw	a4,24(s7)
   17aee:	ffc42703          	lw	a4,-4(s0)
   17af2:	00ebae23          	sw	a4,28(s7)
   17af6:	bfa5                	j	17a6e <_realloc_r+0x2a8>
   17af8:	85a2                	mv	a1,s0
   17afa:	8526                	mv	a0,s1
   17afc:	f22fd0ef          	jal	1521e <memmove>
   17b00:	bfad                	j	17a7a <_realloc_r+0x2b4>
   17b02:	4418                	lw	a4,8(s0)
   17b04:	c518                	sw	a4,8(a0)
   17b06:	4458                	lw	a4,12(s0)
   17b08:	c558                	sw	a4,12(a0)
   17b0a:	04f60763          	beq	a2,a5,17b58 <_realloc_r+0x392>
   17b0e:	01040713          	addi	a4,s0,16
   17b12:	01050793          	addi	a5,a0,16
   17b16:	b341                	j	17896 <_realloc_r+0xd0>
   17b18:	9ad2                	add	s5,s5,s4
   17b1a:	414686b3          	sub	a3,a3,s4
   17b1e:	015c2423          	sw	s5,8(s8)
   17b22:	0016e793          	ori	a5,a3,1
   17b26:	00faa223          	sw	a5,4(s5)
   17b2a:	ffc42783          	lw	a5,-4(s0)
   17b2e:	854a                	mv	a0,s2
   17b30:	84a2                	mv	s1,s0
   17b32:	8b85                	andi	a5,a5,1
   17b34:	0147e7b3          	or	a5,a5,s4
   17b38:	fef42e23          	sw	a5,-4(s0)
   17b3c:	c3cf90ef          	jal	10f78 <__malloc_unlock>
   17b40:	4c22                	lw	s8,8(sp)
   17b42:	bb6d                	j	178fc <_realloc_r+0x136>
   17b44:	0421                	addi	s0,s0,8
   17b46:	010b8793          	addi	a5,s7,16
   17b4a:	b715                	j	17a6e <_realloc_r+0x2a8>
   17b4c:	854a                	mv	a0,s2
   17b4e:	c2af90ef          	jal	10f78 <__malloc_unlock>
   17b52:	4481                	li	s1,0
   17b54:	4c22                	lw	s8,8(sp)
   17b56:	b35d                	j	178fc <_realloc_r+0x136>
   17b58:	4814                	lw	a3,16(s0)
   17b5a:	01840713          	addi	a4,s0,24
   17b5e:	01850793          	addi	a5,a0,24
   17b62:	c914                	sw	a3,16(a0)
   17b64:	4854                	lw	a3,20(s0)
   17b66:	c954                	sw	a3,20(a0)
   17b68:	b33d                	j	17896 <_realloc_r+0xd0>
   17b6a:	85a2                	mv	a1,s0
   17b6c:	8526                	mv	a0,s1
   17b6e:	eb0fd0ef          	jal	1521e <memmove>
   17b72:	bdb9                	j	179d0 <_realloc_r+0x20a>
   17b74:	441c                	lw	a5,8(s0)
   17b76:	00fba823          	sw	a5,16(s7)
   17b7a:	445c                	lw	a5,12(s0)
   17b7c:	00fbaa23          	sw	a5,20(s7)
   17b80:	00d60663          	beq	a2,a3,17b8c <_realloc_r+0x3c6>
   17b84:	0441                	addi	s0,s0,16
   17b86:	018b8793          	addi	a5,s7,24
   17b8a:	bd2d                	j	179c4 <_realloc_r+0x1fe>
   17b8c:	4818                	lw	a4,16(s0)
   17b8e:	020b8793          	addi	a5,s7,32
   17b92:	00ebac23          	sw	a4,24(s7)
   17b96:	4858                	lw	a4,20(s0)
   17b98:	0461                	addi	s0,s0,24
   17b9a:	00ebae23          	sw	a4,28(s7)
   17b9e:	b51d                	j	179c4 <_realloc_r+0x1fe>

00017ba0 <_wctomb_r>:
   17ba0:	e181a783          	lw	a5,-488(gp) # 1c890 <__global_locale+0xe0>
   17ba4:	8782                	jr	a5

00017ba6 <__ascii_wctomb>:
   17ba6:	cd91                	beqz	a1,17bc2 <__ascii_wctomb+0x1c>
   17ba8:	0ff00793          	li	a5,255
   17bac:	00c7e663          	bltu	a5,a2,17bb8 <__ascii_wctomb+0x12>
   17bb0:	00c58023          	sb	a2,0(a1)
   17bb4:	4505                	li	a0,1
   17bb6:	8082                	ret
   17bb8:	08a00793          	li	a5,138
   17bbc:	c11c                	sw	a5,0(a0)
   17bbe:	557d                	li	a0,-1
   17bc0:	8082                	ret
   17bc2:	4501                	li	a0,0
   17bc4:	8082                	ret

00017bc6 <_wcrtomb_r>:
   17bc6:	1101                	addi	sp,sp,-32
   17bc8:	cc22                	sw	s0,24(sp)
   17bca:	ca26                	sw	s1,20(sp)
   17bcc:	ce06                	sw	ra,28(sp)
   17bce:	e181a783          	lw	a5,-488(gp) # 1c890 <__global_locale+0xe0>
   17bd2:	842a                	mv	s0,a0
   17bd4:	84b6                	mv	s1,a3
   17bd6:	c991                	beqz	a1,17bea <_wcrtomb_r+0x24>
   17bd8:	9782                	jalr	a5
   17bda:	57fd                	li	a5,-1
   17bdc:	00f50d63          	beq	a0,a5,17bf6 <_wcrtomb_r+0x30>
   17be0:	40f2                	lw	ra,28(sp)
   17be2:	4462                	lw	s0,24(sp)
   17be4:	44d2                	lw	s1,20(sp)
   17be6:	6105                	addi	sp,sp,32
   17be8:	8082                	ret
   17bea:	4601                	li	a2,0
   17bec:	004c                	addi	a1,sp,4
   17bee:	9782                	jalr	a5
   17bf0:	57fd                	li	a5,-1
   17bf2:	fef517e3          	bne	a0,a5,17be0 <_wcrtomb_r+0x1a>
   17bf6:	0004a023          	sw	zero,0(s1)
   17bfa:	08a00793          	li	a5,138
   17bfe:	40f2                	lw	ra,28(sp)
   17c00:	c01c                	sw	a5,0(s0)
   17c02:	4462                	lw	s0,24(sp)
   17c04:	44d2                	lw	s1,20(sp)
   17c06:	6105                	addi	sp,sp,32
   17c08:	8082                	ret

00017c0a <wcrtomb>:
   17c0a:	1101                	addi	sp,sp,-32
   17c0c:	cc22                	sw	s0,24(sp)
   17c0e:	ca26                	sw	s1,20(sp)
   17c10:	ce06                	sw	ra,28(sp)
   17c12:	f241a483          	lw	s1,-220(gp) # 1c99c <_impure_ptr>
   17c16:	e181a783          	lw	a5,-488(gp) # 1c890 <__global_locale+0xe0>
   17c1a:	8432                	mv	s0,a2
   17c1c:	cd11                	beqz	a0,17c38 <wcrtomb+0x2e>
   17c1e:	862e                	mv	a2,a1
   17c20:	86a2                	mv	a3,s0
   17c22:	85aa                	mv	a1,a0
   17c24:	8526                	mv	a0,s1
   17c26:	9782                	jalr	a5
   17c28:	57fd                	li	a5,-1
   17c2a:	00f50f63          	beq	a0,a5,17c48 <wcrtomb+0x3e>
   17c2e:	40f2                	lw	ra,28(sp)
   17c30:	4462                	lw	s0,24(sp)
   17c32:	44d2                	lw	s1,20(sp)
   17c34:	6105                	addi	sp,sp,32
   17c36:	8082                	ret
   17c38:	86b2                	mv	a3,a2
   17c3a:	004c                	addi	a1,sp,4
   17c3c:	4601                	li	a2,0
   17c3e:	8526                	mv	a0,s1
   17c40:	9782                	jalr	a5
   17c42:	57fd                	li	a5,-1
   17c44:	fef515e3          	bne	a0,a5,17c2e <wcrtomb+0x24>
   17c48:	00042023          	sw	zero,0(s0)
   17c4c:	40f2                	lw	ra,28(sp)
   17c4e:	4462                	lw	s0,24(sp)
   17c50:	08a00793          	li	a5,138
   17c54:	c09c                	sw	a5,0(s1)
   17c56:	44d2                	lw	s1,20(sp)
   17c58:	6105                	addi	sp,sp,32
   17c5a:	8082                	ret

00017c5c <__smakebuf_r>:
   17c5c:	00c59783          	lh	a5,12(a1)
   17c60:	7119                	addi	sp,sp,-128
   17c62:	dca2                	sw	s0,120(sp)
   17c64:	de86                	sw	ra,124(sp)
   17c66:	0027f713          	andi	a4,a5,2
   17c6a:	842e                	mv	s0,a1
   17c6c:	cb19                	beqz	a4,17c82 <__smakebuf_r+0x26>
   17c6e:	04358793          	addi	a5,a1,67
   17c72:	c19c                	sw	a5,0(a1)
   17c74:	c99c                	sw	a5,16(a1)
   17c76:	4785                	li	a5,1
   17c78:	c9dc                	sw	a5,20(a1)
   17c7a:	50f6                	lw	ra,124(sp)
   17c7c:	5466                	lw	s0,120(sp)
   17c7e:	6109                	addi	sp,sp,128
   17c80:	8082                	ret
   17c82:	00e59583          	lh	a1,14(a1)
   17c86:	daa6                	sw	s1,116(sp)
   17c88:	d8ca                	sw	s2,112(sp)
   17c8a:	d6ce                	sw	s3,108(sp)
   17c8c:	d4d2                	sw	s4,104(sp)
   17c8e:	84aa                	mv	s1,a0
   17c90:	0605c263          	bltz	a1,17cf4 <__smakebuf_r+0x98>
   17c94:	0030                	addi	a2,sp,8
   17c96:	2aa1                	jal	17dee <_fstat_r>
   17c98:	04054c63          	bltz	a0,17cf0 <__smakebuf_r+0x94>
   17c9c:	47b2                	lw	a5,12(sp)
   17c9e:	693d                	lui	s2,0xf
   17ca0:	6985                	lui	s3,0x1
   17ca2:	00f97933          	and	s2,s2,a5
   17ca6:	77f9                	lui	a5,0xffffe
   17ca8:	993e                	add	s2,s2,a5
   17caa:	00193913          	seqz	s2,s2
   17cae:	40000a13          	li	s4,1024
   17cb2:	80098993          	addi	s3,s3,-2048 # 800 <exit-0xf894>
   17cb6:	85d2                	mv	a1,s4
   17cb8:	8526                	mv	a0,s1
   17cba:	d19f80ef          	jal	109d2 <_malloc_r>
   17cbe:	00c41783          	lh	a5,12(s0)
   17cc2:	c539                	beqz	a0,17d10 <__smakebuf_r+0xb4>
   17cc4:	0807e793          	ori	a5,a5,128
   17cc8:	c008                	sw	a0,0(s0)
   17cca:	c808                	sw	a0,16(s0)
   17ccc:	00f41623          	sh	a5,12(s0)
   17cd0:	01442a23          	sw	s4,20(s0)
   17cd4:	06091563          	bnez	s2,17d3e <__smakebuf_r+0xe2>
   17cd8:	0137e7b3          	or	a5,a5,s3
   17cdc:	50f6                	lw	ra,124(sp)
   17cde:	00f41623          	sh	a5,12(s0)
   17ce2:	5466                	lw	s0,120(sp)
   17ce4:	54d6                	lw	s1,116(sp)
   17ce6:	5946                	lw	s2,112(sp)
   17ce8:	59b6                	lw	s3,108(sp)
   17cea:	5a26                	lw	s4,104(sp)
   17cec:	6109                	addi	sp,sp,128
   17cee:	8082                	ret
   17cf0:	00c41783          	lh	a5,12(s0)
   17cf4:	0807f793          	andi	a5,a5,128
   17cf8:	4901                	li	s2,0
   17cfa:	cf95                	beqz	a5,17d36 <__smakebuf_r+0xda>
   17cfc:	04000a13          	li	s4,64
   17d00:	85d2                	mv	a1,s4
   17d02:	8526                	mv	a0,s1
   17d04:	ccff80ef          	jal	109d2 <_malloc_r>
   17d08:	00c41783          	lh	a5,12(s0)
   17d0c:	4981                	li	s3,0
   17d0e:	f95d                	bnez	a0,17cc4 <__smakebuf_r+0x68>
   17d10:	2007f713          	andi	a4,a5,512
   17d14:	ef0d                	bnez	a4,17d4e <__smakebuf_r+0xf2>
   17d16:	9bf1                	andi	a5,a5,-4
   17d18:	0027e793          	ori	a5,a5,2
   17d1c:	04340713          	addi	a4,s0,67
   17d20:	00f41623          	sh	a5,12(s0)
   17d24:	4785                	li	a5,1
   17d26:	54d6                	lw	s1,116(sp)
   17d28:	5946                	lw	s2,112(sp)
   17d2a:	59b6                	lw	s3,108(sp)
   17d2c:	5a26                	lw	s4,104(sp)
   17d2e:	c018                	sw	a4,0(s0)
   17d30:	c818                	sw	a4,16(s0)
   17d32:	c85c                	sw	a5,20(s0)
   17d34:	b799                	j	17c7a <__smakebuf_r+0x1e>
   17d36:	40000a13          	li	s4,1024
   17d3a:	4981                	li	s3,0
   17d3c:	bfad                	j	17cb6 <__smakebuf_r+0x5a>
   17d3e:	00e41583          	lh	a1,14(s0)
   17d42:	8526                	mv	a0,s1
   17d44:	20cd                	jal	17e26 <_isatty_r>
   17d46:	e909                	bnez	a0,17d58 <__smakebuf_r+0xfc>
   17d48:	00c41783          	lh	a5,12(s0)
   17d4c:	b771                	j	17cd8 <__smakebuf_r+0x7c>
   17d4e:	54d6                	lw	s1,116(sp)
   17d50:	5946                	lw	s2,112(sp)
   17d52:	59b6                	lw	s3,108(sp)
   17d54:	5a26                	lw	s4,104(sp)
   17d56:	b715                	j	17c7a <__smakebuf_r+0x1e>
   17d58:	00c45783          	lhu	a5,12(s0)
   17d5c:	9bf1                	andi	a5,a5,-4
   17d5e:	0017e793          	ori	a5,a5,1
   17d62:	07c2                	slli	a5,a5,0x10
   17d64:	87c1                	srai	a5,a5,0x10
   17d66:	bf8d                	j	17cd8 <__smakebuf_r+0x7c>

00017d68 <__swhatbuf_r>:
   17d68:	7159                	addi	sp,sp,-112
   17d6a:	d4a2                	sw	s0,104(sp)
   17d6c:	842e                	mv	s0,a1
   17d6e:	00e59583          	lh	a1,14(a1)
   17d72:	d2a6                	sw	s1,100(sp)
   17d74:	d0ca                	sw	s2,96(sp)
   17d76:	d686                	sw	ra,108(sp)
   17d78:	84b2                	mv	s1,a2
   17d7a:	8936                	mv	s2,a3
   17d7c:	0205cb63          	bltz	a1,17db2 <__swhatbuf_r+0x4a>
   17d80:	0030                	addi	a2,sp,8
   17d82:	20b5                	jal	17dee <_fstat_r>
   17d84:	02054763          	bltz	a0,17db2 <__swhatbuf_r+0x4a>
   17d88:	4732                	lw	a4,12(sp)
   17d8a:	67bd                	lui	a5,0xf
   17d8c:	50b6                	lw	ra,108(sp)
   17d8e:	8ff9                	and	a5,a5,a4
   17d90:	7779                	lui	a4,0xffffe
   17d92:	97ba                	add	a5,a5,a4
   17d94:	5426                	lw	s0,104(sp)
   17d96:	0017b793          	seqz	a5,a5
   17d9a:	00f92023          	sw	a5,0(s2) # f000 <exit-0x1094>
   17d9e:	40000713          	li	a4,1024
   17da2:	c098                	sw	a4,0(s1)
   17da4:	6505                	lui	a0,0x1
   17da6:	5496                	lw	s1,100(sp)
   17da8:	5906                	lw	s2,96(sp)
   17daa:	80050513          	addi	a0,a0,-2048 # 800 <exit-0xf894>
   17dae:	6165                	addi	sp,sp,112
   17db0:	8082                	ret
   17db2:	00c45783          	lhu	a5,12(s0)
   17db6:	0807f793          	andi	a5,a5,128
   17dba:	cf91                	beqz	a5,17dd6 <__swhatbuf_r+0x6e>
   17dbc:	50b6                	lw	ra,108(sp)
   17dbe:	5426                	lw	s0,104(sp)
   17dc0:	4781                	li	a5,0
   17dc2:	00f92023          	sw	a5,0(s2)
   17dc6:	04000713          	li	a4,64
   17dca:	c098                	sw	a4,0(s1)
   17dcc:	5906                	lw	s2,96(sp)
   17dce:	5496                	lw	s1,100(sp)
   17dd0:	4501                	li	a0,0
   17dd2:	6165                	addi	sp,sp,112
   17dd4:	8082                	ret
   17dd6:	50b6                	lw	ra,108(sp)
   17dd8:	5426                	lw	s0,104(sp)
   17dda:	00f92023          	sw	a5,0(s2)
   17dde:	40000713          	li	a4,1024
   17de2:	c098                	sw	a4,0(s1)
   17de4:	5906                	lw	s2,96(sp)
   17de6:	5496                	lw	s1,100(sp)
   17de8:	4501                	li	a0,0
   17dea:	6165                	addi	sp,sp,112
   17dec:	8082                	ret

00017dee <_fstat_r>:
   17dee:	1141                	addi	sp,sp,-16
   17df0:	872e                	mv	a4,a1
   17df2:	c422                	sw	s0,8(sp)
   17df4:	c226                	sw	s1,4(sp)
   17df6:	842a                	mv	s0,a0
   17df8:	85b2                	mv	a1,a2
   17dfa:	853a                	mv	a0,a4
   17dfc:	c606                	sw	ra,12(sp)
   17dfe:	f201ac23          	sw	zero,-200(gp) # 1c9b0 <errno>
   17e02:	2ba1                	jal	1835a <_fstat>
   17e04:	57fd                	li	a5,-1
   17e06:	00f50763          	beq	a0,a5,17e14 <_fstat_r+0x26>
   17e0a:	40b2                	lw	ra,12(sp)
   17e0c:	4422                	lw	s0,8(sp)
   17e0e:	4492                	lw	s1,4(sp)
   17e10:	0141                	addi	sp,sp,16
   17e12:	8082                	ret
   17e14:	f381a783          	lw	a5,-200(gp) # 1c9b0 <errno>
   17e18:	dbed                	beqz	a5,17e0a <_fstat_r+0x1c>
   17e1a:	40b2                	lw	ra,12(sp)
   17e1c:	c01c                	sw	a5,0(s0)
   17e1e:	4422                	lw	s0,8(sp)
   17e20:	4492                	lw	s1,4(sp)
   17e22:	0141                	addi	sp,sp,16
   17e24:	8082                	ret

00017e26 <_isatty_r>:
   17e26:	1141                	addi	sp,sp,-16
   17e28:	c422                	sw	s0,8(sp)
   17e2a:	c226                	sw	s1,4(sp)
   17e2c:	842a                	mv	s0,a0
   17e2e:	852e                	mv	a0,a1
   17e30:	c606                	sw	ra,12(sp)
   17e32:	f201ac23          	sw	zero,-200(gp) # 1c9b0 <errno>
   17e36:	238d                	jal	18398 <_isatty>
   17e38:	57fd                	li	a5,-1
   17e3a:	00f50763          	beq	a0,a5,17e48 <_isatty_r+0x22>
   17e3e:	40b2                	lw	ra,12(sp)
   17e40:	4422                	lw	s0,8(sp)
   17e42:	4492                	lw	s1,4(sp)
   17e44:	0141                	addi	sp,sp,16
   17e46:	8082                	ret
   17e48:	f381a783          	lw	a5,-200(gp) # 1c9b0 <errno>
   17e4c:	dbed                	beqz	a5,17e3e <_isatty_r+0x18>
   17e4e:	40b2                	lw	ra,12(sp)
   17e50:	c01c                	sw	a5,0(s0)
   17e52:	4422                	lw	s0,8(sp)
   17e54:	4492                	lw	s1,4(sp)
   17e56:	0141                	addi	sp,sp,16
   17e58:	8082                	ret

00017e5a <__assert_func>:
   17e5a:	f241a703          	lw	a4,-220(gp) # 1c99c <_impure_ptr>
   17e5e:	1141                	addi	sp,sp,-16
   17e60:	87b6                	mv	a5,a3
   17e62:	8832                	mv	a6,a2
   17e64:	c606                	sw	ra,12(sp)
   17e66:	00c72883          	lw	a7,12(a4) # ffffe00c <__BSS_END__+0xfffe1340>
   17e6a:	86aa                	mv	a3,a0
   17e6c:	872e                	mv	a4,a1
   17e6e:	863e                	mv	a2,a5
   17e70:	00080b63          	beqz	a6,17e86 <__assert_func+0x2c>
   17e74:	67ed                	lui	a5,0x1b
   17e76:	b3478793          	addi	a5,a5,-1228 # 1ab34 <__clzsi2+0x19a>
   17e7a:	65ed                	lui	a1,0x1b
   17e7c:	b4458593          	addi	a1,a1,-1212 # 1ab44 <__clzsi2+0x1aa>
   17e80:	8546                	mv	a0,a7
   17e82:	20cd                	jal	17f64 <fiprintf>
   17e84:	2a09                	jal	17f96 <abort>
   17e86:	686d                	lui	a6,0x1b
   17e88:	b4080793          	addi	a5,a6,-1216 # 1ab40 <__clzsi2+0x1a6>
   17e8c:	b4080813          	addi	a6,a6,-1216
   17e90:	b7ed                	j	17e7a <__assert_func+0x20>

00017e92 <__assert>:
   17e92:	1141                	addi	sp,sp,-16
   17e94:	86b2                	mv	a3,a2
   17e96:	4601                	li	a2,0
   17e98:	c606                	sw	ra,12(sp)
   17e9a:	fc1ff0ef          	jal	17e5a <__assert_func>

00017e9e <_calloc_r>:
   17e9e:	02c5b7b3          	mulhu	a5,a1,a2
   17ea2:	1141                	addi	sp,sp,-16
   17ea4:	c606                	sw	ra,12(sp)
   17ea6:	c422                	sw	s0,8(sp)
   17ea8:	02c585b3          	mul	a1,a1,a2
   17eac:	efa5                	bnez	a5,17f24 <_calloc_r+0x86>
   17eae:	b25f80ef          	jal	109d2 <_malloc_r>
   17eb2:	842a                	mv	s0,a0
   17eb4:	c93d                	beqz	a0,17f2a <_calloc_r+0x8c>
   17eb6:	ffc52603          	lw	a2,-4(a0)
   17eba:	02400713          	li	a4,36
   17ebe:	9a71                	andi	a2,a2,-4
   17ec0:	1671                	addi	a2,a2,-4
   17ec2:	04c76063          	bltu	a4,a2,17f02 <_calloc_r+0x64>
   17ec6:	46cd                	li	a3,19
   17ec8:	87aa                	mv	a5,a0
   17eca:	02c6f163          	bgeu	a3,a2,17eec <_calloc_r+0x4e>
   17ece:	00052023          	sw	zero,0(a0)
   17ed2:	00052223          	sw	zero,4(a0)
   17ed6:	47ed                	li	a5,27
   17ed8:	02c7fd63          	bgeu	a5,a2,17f12 <_calloc_r+0x74>
   17edc:	00052423          	sw	zero,8(a0)
   17ee0:	00052623          	sw	zero,12(a0)
   17ee4:	01050793          	addi	a5,a0,16
   17ee8:	04e60763          	beq	a2,a4,17f36 <_calloc_r+0x98>
   17eec:	0007a023          	sw	zero,0(a5)
   17ef0:	0007a223          	sw	zero,4(a5)
   17ef4:	0007a423          	sw	zero,8(a5)
   17ef8:	40b2                	lw	ra,12(sp)
   17efa:	8522                	mv	a0,s0
   17efc:	4422                	lw	s0,8(sp)
   17efe:	0141                	addi	sp,sp,16
   17f00:	8082                	ret
   17f02:	4581                	li	a1,0
   17f04:	f58f90ef          	jal	1165c <memset>
   17f08:	40b2                	lw	ra,12(sp)
   17f0a:	8522                	mv	a0,s0
   17f0c:	4422                	lw	s0,8(sp)
   17f0e:	0141                	addi	sp,sp,16
   17f10:	8082                	ret
   17f12:	00850793          	addi	a5,a0,8
   17f16:	0007a023          	sw	zero,0(a5)
   17f1a:	0007a223          	sw	zero,4(a5)
   17f1e:	0007a423          	sw	zero,8(a5)
   17f22:	bfd9                	j	17ef8 <_calloc_r+0x5a>
   17f24:	20b5                	jal	17f90 <__errno>
   17f26:	47b1                	li	a5,12
   17f28:	c11c                	sw	a5,0(a0)
   17f2a:	4401                	li	s0,0
   17f2c:	40b2                	lw	ra,12(sp)
   17f2e:	8522                	mv	a0,s0
   17f30:	4422                	lw	s0,8(sp)
   17f32:	0141                	addi	sp,sp,16
   17f34:	8082                	ret
   17f36:	00052823          	sw	zero,16(a0)
   17f3a:	01850793          	addi	a5,a0,24
   17f3e:	00052a23          	sw	zero,20(a0)
   17f42:	b76d                	j	17eec <_calloc_r+0x4e>

00017f44 <_fiprintf_r>:
   17f44:	7139                	addi	sp,sp,-64
   17f46:	02c10313          	addi	t1,sp,44
   17f4a:	d636                	sw	a3,44(sp)
   17f4c:	869a                	mv	a3,t1
   17f4e:	ce06                	sw	ra,28(sp)
   17f50:	d83a                	sw	a4,48(sp)
   17f52:	da3e                	sw	a5,52(sp)
   17f54:	dc42                	sw	a6,56(sp)
   17f56:	de46                	sw	a7,60(sp)
   17f58:	c61a                	sw	t1,12(sp)
   17f5a:	8dbfb0ef          	jal	13834 <_vfiprintf_r>
   17f5e:	40f2                	lw	ra,28(sp)
   17f60:	6121                	addi	sp,sp,64
   17f62:	8082                	ret

00017f64 <fiprintf>:
   17f64:	8e2a                	mv	t3,a0
   17f66:	7139                	addi	sp,sp,-64
   17f68:	f241a503          	lw	a0,-220(gp) # 1c99c <_impure_ptr>
   17f6c:	02810313          	addi	t1,sp,40
   17f70:	d432                	sw	a2,40(sp)
   17f72:	d636                	sw	a3,44(sp)
   17f74:	862e                	mv	a2,a1
   17f76:	869a                	mv	a3,t1
   17f78:	85f2                	mv	a1,t3
   17f7a:	ce06                	sw	ra,28(sp)
   17f7c:	d83a                	sw	a4,48(sp)
   17f7e:	da3e                	sw	a5,52(sp)
   17f80:	dc42                	sw	a6,56(sp)
   17f82:	de46                	sw	a7,60(sp)
   17f84:	c61a                	sw	t1,12(sp)
   17f86:	8affb0ef          	jal	13834 <_vfiprintf_r>
   17f8a:	40f2                	lw	ra,28(sp)
   17f8c:	6121                	addi	sp,sp,64
   17f8e:	8082                	ret

00017f90 <__errno>:
   17f90:	f241a503          	lw	a0,-220(gp) # 1c99c <_impure_ptr>
   17f94:	8082                	ret

00017f96 <abort>:
   17f96:	1141                	addi	sp,sp,-16
   17f98:	4519                	li	a0,6
   17f9a:	c606                	sw	ra,12(sp)
   17f9c:	2a59                	jal	18132 <raise>
   17f9e:	4505                	li	a0,1
   17fa0:	2e61                	jal	18338 <_exit>

00017fa2 <_init_signal_r>:
   17fa2:	11852783          	lw	a5,280(a0)
   17fa6:	c399                	beqz	a5,17fac <_init_signal_r+0xa>
   17fa8:	4501                	li	a0,0
   17faa:	8082                	ret
   17fac:	1141                	addi	sp,sp,-16
   17fae:	08000593          	li	a1,128
   17fb2:	c422                	sw	s0,8(sp)
   17fb4:	c606                	sw	ra,12(sp)
   17fb6:	842a                	mv	s0,a0
   17fb8:	a1bf80ef          	jal	109d2 <_malloc_r>
   17fbc:	10a42c23          	sw	a0,280(s0)
   17fc0:	cd09                	beqz	a0,17fda <_init_signal_r+0x38>
   17fc2:	08050793          	addi	a5,a0,128
   17fc6:	00052023          	sw	zero,0(a0)
   17fca:	0511                	addi	a0,a0,4
   17fcc:	fef51de3          	bne	a0,a5,17fc6 <_init_signal_r+0x24>
   17fd0:	4501                	li	a0,0
   17fd2:	40b2                	lw	ra,12(sp)
   17fd4:	4422                	lw	s0,8(sp)
   17fd6:	0141                	addi	sp,sp,16
   17fd8:	8082                	ret
   17fda:	557d                	li	a0,-1
   17fdc:	bfdd                	j	17fd2 <_init_signal_r+0x30>

00017fde <_signal_r>:
   17fde:	1101                	addi	sp,sp,-32
   17fe0:	ca26                	sw	s1,20(sp)
   17fe2:	ce06                	sw	ra,28(sp)
   17fe4:	47fd                	li	a5,31
   17fe6:	84aa                	mv	s1,a0
   17fe8:	02b7e063          	bltu	a5,a1,18008 <_signal_r+0x2a>
   17fec:	11852783          	lw	a5,280(a0)
   17ff0:	cc22                	sw	s0,24(sp)
   17ff2:	842e                	mv	s0,a1
   17ff4:	cf91                	beqz	a5,18010 <_signal_r+0x32>
   17ff6:	040a                	slli	s0,s0,0x2
   17ff8:	97a2                	add	a5,a5,s0
   17ffa:	4462                	lw	s0,24(sp)
   17ffc:	4388                	lw	a0,0(a5)
   17ffe:	c390                	sw	a2,0(a5)
   18000:	40f2                	lw	ra,28(sp)
   18002:	44d2                	lw	s1,20(sp)
   18004:	6105                	addi	sp,sp,32
   18006:	8082                	ret
   18008:	47d9                	li	a5,22
   1800a:	c11c                	sw	a5,0(a0)
   1800c:	557d                	li	a0,-1
   1800e:	bfcd                	j	18000 <_signal_r+0x22>
   18010:	08000593          	li	a1,128
   18014:	c632                	sw	a2,12(sp)
   18016:	9bdf80ef          	jal	109d2 <_malloc_r>
   1801a:	10a4ac23          	sw	a0,280(s1)
   1801e:	4632                	lw	a2,12(sp)
   18020:	87aa                	mv	a5,a0
   18022:	872a                	mv	a4,a0
   18024:	08050693          	addi	a3,a0,128
   18028:	c519                	beqz	a0,18036 <_signal_r+0x58>
   1802a:	00072023          	sw	zero,0(a4)
   1802e:	0711                	addi	a4,a4,4
   18030:	fed71de3          	bne	a4,a3,1802a <_signal_r+0x4c>
   18034:	b7c9                	j	17ff6 <_signal_r+0x18>
   18036:	4462                	lw	s0,24(sp)
   18038:	557d                	li	a0,-1
   1803a:	b7d9                	j	18000 <_signal_r+0x22>

0001803c <_raise_r>:
   1803c:	1141                	addi	sp,sp,-16
   1803e:	c226                	sw	s1,4(sp)
   18040:	c606                	sw	ra,12(sp)
   18042:	47fd                	li	a5,31
   18044:	84aa                	mv	s1,a0
   18046:	04b7ee63          	bltu	a5,a1,180a2 <_raise_r+0x66>
   1804a:	11852783          	lw	a5,280(a0)
   1804e:	c422                	sw	s0,8(sp)
   18050:	842e                	mv	s0,a1
   18052:	c795                	beqz	a5,1807e <_raise_r+0x42>
   18054:	00259713          	slli	a4,a1,0x2
   18058:	97ba                	add	a5,a5,a4
   1805a:	4398                	lw	a4,0(a5)
   1805c:	c30d                	beqz	a4,1807e <_raise_r+0x42>
   1805e:	4685                	li	a3,1
   18060:	00d70963          	beq	a4,a3,18072 <_raise_r+0x36>
   18064:	56fd                	li	a3,-1
   18066:	02d70663          	beq	a4,a3,18092 <_raise_r+0x56>
   1806a:	0007a023          	sw	zero,0(a5)
   1806e:	852e                	mv	a0,a1
   18070:	9702                	jalr	a4
   18072:	4422                	lw	s0,8(sp)
   18074:	4501                	li	a0,0
   18076:	40b2                	lw	ra,12(sp)
   18078:	4492                	lw	s1,4(sp)
   1807a:	0141                	addi	sp,sp,16
   1807c:	8082                	ret
   1807e:	8526                	mv	a0,s1
   18080:	2469                	jal	1830a <_getpid_r>
   18082:	8622                	mv	a2,s0
   18084:	4422                	lw	s0,8(sp)
   18086:	40b2                	lw	ra,12(sp)
   18088:	85aa                	mv	a1,a0
   1808a:	8526                	mv	a0,s1
   1808c:	4492                	lw	s1,4(sp)
   1808e:	0141                	addi	sp,sp,16
   18090:	a489                	j	182d2 <_kill_r>
   18092:	4422                	lw	s0,8(sp)
   18094:	40b2                	lw	ra,12(sp)
   18096:	47d9                	li	a5,22
   18098:	c11c                	sw	a5,0(a0)
   1809a:	4492                	lw	s1,4(sp)
   1809c:	4505                	li	a0,1
   1809e:	0141                	addi	sp,sp,16
   180a0:	8082                	ret
   180a2:	47d9                	li	a5,22
   180a4:	c11c                	sw	a5,0(a0)
   180a6:	557d                	li	a0,-1
   180a8:	b7f9                	j	18076 <_raise_r+0x3a>

000180aa <__sigtramp_r>:
   180aa:	47fd                	li	a5,31
   180ac:	08b7e163          	bltu	a5,a1,1812e <__sigtramp_r+0x84>
   180b0:	11852783          	lw	a5,280(a0)
   180b4:	1141                	addi	sp,sp,-16
   180b6:	c422                	sw	s0,8(sp)
   180b8:	c226                	sw	s1,4(sp)
   180ba:	c606                	sw	ra,12(sp)
   180bc:	842e                	mv	s0,a1
   180be:	84aa                	mv	s1,a0
   180c0:	c7a1                	beqz	a5,18108 <__sigtramp_r+0x5e>
   180c2:	00241713          	slli	a4,s0,0x2
   180c6:	97ba                	add	a5,a5,a4
   180c8:	4398                	lw	a4,0(a5)
   180ca:	c30d                	beqz	a4,180ec <__sigtramp_r+0x42>
   180cc:	56fd                	li	a3,-1
   180ce:	02d70b63          	beq	a4,a3,18104 <__sigtramp_r+0x5a>
   180d2:	4685                	li	a3,1
   180d4:	02d70263          	beq	a4,a3,180f8 <__sigtramp_r+0x4e>
   180d8:	8522                	mv	a0,s0
   180da:	0007a023          	sw	zero,0(a5)
   180de:	9702                	jalr	a4
   180e0:	4501                	li	a0,0
   180e2:	40b2                	lw	ra,12(sp)
   180e4:	4422                	lw	s0,8(sp)
   180e6:	4492                	lw	s1,4(sp)
   180e8:	0141                	addi	sp,sp,16
   180ea:	8082                	ret
   180ec:	40b2                	lw	ra,12(sp)
   180ee:	4422                	lw	s0,8(sp)
   180f0:	4492                	lw	s1,4(sp)
   180f2:	4505                	li	a0,1
   180f4:	0141                	addi	sp,sp,16
   180f6:	8082                	ret
   180f8:	40b2                	lw	ra,12(sp)
   180fa:	4422                	lw	s0,8(sp)
   180fc:	4492                	lw	s1,4(sp)
   180fe:	450d                	li	a0,3
   18100:	0141                	addi	sp,sp,16
   18102:	8082                	ret
   18104:	4509                	li	a0,2
   18106:	bff1                	j	180e2 <__sigtramp_r+0x38>
   18108:	08000593          	li	a1,128
   1810c:	8c7f80ef          	jal	109d2 <_malloc_r>
   18110:	10a4ac23          	sw	a0,280(s1)
   18114:	87aa                	mv	a5,a0
   18116:	c911                	beqz	a0,1812a <__sigtramp_r+0x80>
   18118:	872a                	mv	a4,a0
   1811a:	08050693          	addi	a3,a0,128
   1811e:	00072023          	sw	zero,0(a4)
   18122:	0711                	addi	a4,a4,4
   18124:	fed71de3          	bne	a4,a3,1811e <__sigtramp_r+0x74>
   18128:	bf69                	j	180c2 <__sigtramp_r+0x18>
   1812a:	557d                	li	a0,-1
   1812c:	bf5d                	j	180e2 <__sigtramp_r+0x38>
   1812e:	557d                	li	a0,-1
   18130:	8082                	ret

00018132 <raise>:
   18132:	1141                	addi	sp,sp,-16
   18134:	c226                	sw	s1,4(sp)
   18136:	c606                	sw	ra,12(sp)
   18138:	47fd                	li	a5,31
   1813a:	f241a483          	lw	s1,-220(gp) # 1c99c <_impure_ptr>
   1813e:	04a7ed63          	bltu	a5,a0,18198 <raise+0x66>
   18142:	1184a783          	lw	a5,280(s1)
   18146:	c422                	sw	s0,8(sp)
   18148:	842a                	mv	s0,a0
   1814a:	c78d                	beqz	a5,18174 <raise+0x42>
   1814c:	00251713          	slli	a4,a0,0x2
   18150:	97ba                	add	a5,a5,a4
   18152:	4398                	lw	a4,0(a5)
   18154:	c305                	beqz	a4,18174 <raise+0x42>
   18156:	4685                	li	a3,1
   18158:	00d70863          	beq	a4,a3,18168 <raise+0x36>
   1815c:	56fd                	li	a3,-1
   1815e:	02d70563          	beq	a4,a3,18188 <raise+0x56>
   18162:	0007a023          	sw	zero,0(a5)
   18166:	9702                	jalr	a4
   18168:	4422                	lw	s0,8(sp)
   1816a:	4501                	li	a0,0
   1816c:	40b2                	lw	ra,12(sp)
   1816e:	4492                	lw	s1,4(sp)
   18170:	0141                	addi	sp,sp,16
   18172:	8082                	ret
   18174:	8526                	mv	a0,s1
   18176:	2a51                	jal	1830a <_getpid_r>
   18178:	8622                	mv	a2,s0
   1817a:	4422                	lw	s0,8(sp)
   1817c:	40b2                	lw	ra,12(sp)
   1817e:	85aa                	mv	a1,a0
   18180:	8526                	mv	a0,s1
   18182:	4492                	lw	s1,4(sp)
   18184:	0141                	addi	sp,sp,16
   18186:	a2b1                	j	182d2 <_kill_r>
   18188:	4422                	lw	s0,8(sp)
   1818a:	40b2                	lw	ra,12(sp)
   1818c:	47d9                	li	a5,22
   1818e:	c09c                	sw	a5,0(s1)
   18190:	4505                	li	a0,1
   18192:	4492                	lw	s1,4(sp)
   18194:	0141                	addi	sp,sp,16
   18196:	8082                	ret
   18198:	47d9                	li	a5,22
   1819a:	c09c                	sw	a5,0(s1)
   1819c:	557d                	li	a0,-1
   1819e:	b7f9                	j	1816c <raise+0x3a>

000181a0 <signal>:
   181a0:	1141                	addi	sp,sp,-16
   181a2:	c04a                	sw	s2,0(sp)
   181a4:	c606                	sw	ra,12(sp)
   181a6:	47fd                	li	a5,31
   181a8:	f241a903          	lw	s2,-220(gp) # 1c99c <_impure_ptr>
   181ac:	02a7e463          	bltu	a5,a0,181d4 <signal+0x34>
   181b0:	c422                	sw	s0,8(sp)
   181b2:	842a                	mv	s0,a0
   181b4:	11892503          	lw	a0,280(s2)
   181b8:	c226                	sw	s1,4(sp)
   181ba:	84ae                	mv	s1,a1
   181bc:	c10d                	beqz	a0,181de <signal+0x3e>
   181be:	040a                	slli	s0,s0,0x2
   181c0:	008507b3          	add	a5,a0,s0
   181c4:	4388                	lw	a0,0(a5)
   181c6:	4422                	lw	s0,8(sp)
   181c8:	c384                	sw	s1,0(a5)
   181ca:	4492                	lw	s1,4(sp)
   181cc:	40b2                	lw	ra,12(sp)
   181ce:	4902                	lw	s2,0(sp)
   181d0:	0141                	addi	sp,sp,16
   181d2:	8082                	ret
   181d4:	47d9                	li	a5,22
   181d6:	00f92023          	sw	a5,0(s2)
   181da:	557d                	li	a0,-1
   181dc:	bfc5                	j	181cc <signal+0x2c>
   181de:	08000593          	li	a1,128
   181e2:	854a                	mv	a0,s2
   181e4:	feef80ef          	jal	109d2 <_malloc_r>
   181e8:	10a92c23          	sw	a0,280(s2)
   181ec:	87aa                	mv	a5,a0
   181ee:	08050713          	addi	a4,a0,128
   181f2:	c519                	beqz	a0,18200 <signal+0x60>
   181f4:	0007a023          	sw	zero,0(a5)
   181f8:	0791                	addi	a5,a5,4
   181fa:	fef71de3          	bne	a4,a5,181f4 <signal+0x54>
   181fe:	b7c1                	j	181be <signal+0x1e>
   18200:	4422                	lw	s0,8(sp)
   18202:	4492                	lw	s1,4(sp)
   18204:	557d                	li	a0,-1
   18206:	b7d9                	j	181cc <signal+0x2c>

00018208 <_init_signal>:
   18208:	1141                	addi	sp,sp,-16
   1820a:	c422                	sw	s0,8(sp)
   1820c:	f241a403          	lw	s0,-220(gp) # 1c99c <_impure_ptr>
   18210:	c606                	sw	ra,12(sp)
   18212:	11842783          	lw	a5,280(s0)
   18216:	c791                	beqz	a5,18222 <_init_signal+0x1a>
   18218:	4501                	li	a0,0
   1821a:	40b2                	lw	ra,12(sp)
   1821c:	4422                	lw	s0,8(sp)
   1821e:	0141                	addi	sp,sp,16
   18220:	8082                	ret
   18222:	08000593          	li	a1,128
   18226:	8522                	mv	a0,s0
   18228:	faaf80ef          	jal	109d2 <_malloc_r>
   1822c:	10a42c23          	sw	a0,280(s0)
   18230:	c909                	beqz	a0,18242 <_init_signal+0x3a>
   18232:	08050793          	addi	a5,a0,128
   18236:	00052023          	sw	zero,0(a0)
   1823a:	0511                	addi	a0,a0,4
   1823c:	fef51de3          	bne	a0,a5,18236 <_init_signal+0x2e>
   18240:	bfe1                	j	18218 <_init_signal+0x10>
   18242:	557d                	li	a0,-1
   18244:	bfd9                	j	1821a <_init_signal+0x12>

00018246 <__sigtramp>:
   18246:	1141                	addi	sp,sp,-16
   18248:	c226                	sw	s1,4(sp)
   1824a:	c606                	sw	ra,12(sp)
   1824c:	47fd                	li	a5,31
   1824e:	f241a483          	lw	s1,-220(gp) # 1c99c <_impure_ptr>
   18252:	06a7ee63          	bltu	a5,a0,182ce <__sigtramp+0x88>
   18256:	1184a783          	lw	a5,280(s1)
   1825a:	c422                	sw	s0,8(sp)
   1825c:	842a                	mv	s0,a0
   1825e:	c7a9                	beqz	a5,182a8 <__sigtramp+0x62>
   18260:	00241713          	slli	a4,s0,0x2
   18264:	97ba                	add	a5,a5,a4
   18266:	4398                	lw	a4,0(a5)
   18268:	c30d                	beqz	a4,1828a <__sigtramp+0x44>
   1826a:	56fd                	li	a3,-1
   1826c:	02d70b63          	beq	a4,a3,182a2 <__sigtramp+0x5c>
   18270:	4685                	li	a3,1
   18272:	02d70263          	beq	a4,a3,18296 <__sigtramp+0x50>
   18276:	8522                	mv	a0,s0
   18278:	0007a023          	sw	zero,0(a5)
   1827c:	9702                	jalr	a4
   1827e:	4422                	lw	s0,8(sp)
   18280:	4501                	li	a0,0
   18282:	40b2                	lw	ra,12(sp)
   18284:	4492                	lw	s1,4(sp)
   18286:	0141                	addi	sp,sp,16
   18288:	8082                	ret
   1828a:	4422                	lw	s0,8(sp)
   1828c:	40b2                	lw	ra,12(sp)
   1828e:	4492                	lw	s1,4(sp)
   18290:	4505                	li	a0,1
   18292:	0141                	addi	sp,sp,16
   18294:	8082                	ret
   18296:	4422                	lw	s0,8(sp)
   18298:	40b2                	lw	ra,12(sp)
   1829a:	4492                	lw	s1,4(sp)
   1829c:	450d                	li	a0,3
   1829e:	0141                	addi	sp,sp,16
   182a0:	8082                	ret
   182a2:	4422                	lw	s0,8(sp)
   182a4:	4509                	li	a0,2
   182a6:	bff1                	j	18282 <__sigtramp+0x3c>
   182a8:	08000593          	li	a1,128
   182ac:	8526                	mv	a0,s1
   182ae:	f24f80ef          	jal	109d2 <_malloc_r>
   182b2:	10a4ac23          	sw	a0,280(s1)
   182b6:	87aa                	mv	a5,a0
   182b8:	c911                	beqz	a0,182cc <__sigtramp+0x86>
   182ba:	872a                	mv	a4,a0
   182bc:	08050693          	addi	a3,a0,128
   182c0:	00072023          	sw	zero,0(a4)
   182c4:	0711                	addi	a4,a4,4
   182c6:	fee69de3          	bne	a3,a4,182c0 <__sigtramp+0x7a>
   182ca:	bf59                	j	18260 <__sigtramp+0x1a>
   182cc:	4422                	lw	s0,8(sp)
   182ce:	557d                	li	a0,-1
   182d0:	bf4d                	j	18282 <__sigtramp+0x3c>

000182d2 <_kill_r>:
   182d2:	1141                	addi	sp,sp,-16
   182d4:	872e                	mv	a4,a1
   182d6:	c422                	sw	s0,8(sp)
   182d8:	c226                	sw	s1,4(sp)
   182da:	842a                	mv	s0,a0
   182dc:	85b2                	mv	a1,a2
   182de:	853a                	mv	a0,a4
   182e0:	c606                	sw	ra,12(sp)
   182e2:	f201ac23          	sw	zero,-200(gp) # 1c9b0 <errno>
   182e6:	28d9                	jal	183bc <_kill>
   182e8:	57fd                	li	a5,-1
   182ea:	00f50763          	beq	a0,a5,182f8 <_kill_r+0x26>
   182ee:	40b2                	lw	ra,12(sp)
   182f0:	4422                	lw	s0,8(sp)
   182f2:	4492                	lw	s1,4(sp)
   182f4:	0141                	addi	sp,sp,16
   182f6:	8082                	ret
   182f8:	f381a783          	lw	a5,-200(gp) # 1c9b0 <errno>
   182fc:	dbed                	beqz	a5,182ee <_kill_r+0x1c>
   182fe:	40b2                	lw	ra,12(sp)
   18300:	c01c                	sw	a5,0(s0)
   18302:	4422                	lw	s0,8(sp)
   18304:	4492                	lw	s1,4(sp)
   18306:	0141                	addi	sp,sp,16
   18308:	8082                	ret

0001830a <_getpid_r>:
   1830a:	a069                	j	18394 <_getpid>

0001830c <_close>:
   1830c:	1141                	addi	sp,sp,-16
   1830e:	c606                	sw	ra,12(sp)
   18310:	c422                	sw	s0,8(sp)
   18312:	03900893          	li	a7,57
   18316:	00000073          	ecall
   1831a:	842a                	mv	s0,a0
   1831c:	00054763          	bltz	a0,1832a <_close+0x1e>
   18320:	40b2                	lw	ra,12(sp)
   18322:	8522                	mv	a0,s0
   18324:	4422                	lw	s0,8(sp)
   18326:	0141                	addi	sp,sp,16
   18328:	8082                	ret
   1832a:	40800433          	neg	s0,s0
   1832e:	c63ff0ef          	jal	17f90 <__errno>
   18332:	c100                	sw	s0,0(a0)
   18334:	547d                	li	s0,-1
   18336:	b7ed                	j	18320 <_close+0x14>

00018338 <_exit>:
   18338:	05d00893          	li	a7,93
   1833c:	00000073          	ecall
   18340:	00054363          	bltz	a0,18346 <_exit+0xe>
   18344:	a001                	j	18344 <_exit+0xc>
   18346:	1141                	addi	sp,sp,-16
   18348:	c422                	sw	s0,8(sp)
   1834a:	842a                	mv	s0,a0
   1834c:	c606                	sw	ra,12(sp)
   1834e:	40800433          	neg	s0,s0
   18352:	c3fff0ef          	jal	17f90 <__errno>
   18356:	c100                	sw	s0,0(a0)
   18358:	a001                	j	18358 <_exit+0x20>

0001835a <_fstat>:
   1835a:	7175                	addi	sp,sp,-144
   1835c:	c326                	sw	s1,132(sp)
   1835e:	c706                	sw	ra,140(sp)
   18360:	84ae                	mv	s1,a1
   18362:	c522                	sw	s0,136(sp)
   18364:	05000893          	li	a7,80
   18368:	858a                	mv	a1,sp
   1836a:	00000073          	ecall
   1836e:	842a                	mv	s0,a0
   18370:	00054b63          	bltz	a0,18386 <_fstat+0x2c>
   18374:	8526                	mv	a0,s1
   18376:	858a                	mv	a1,sp
   18378:	2a05                	jal	184a8 <_conv_stat>
   1837a:	40ba                	lw	ra,140(sp)
   1837c:	8522                	mv	a0,s0
   1837e:	442a                	lw	s0,136(sp)
   18380:	449a                	lw	s1,132(sp)
   18382:	6149                	addi	sp,sp,144
   18384:	8082                	ret
   18386:	40800433          	neg	s0,s0
   1838a:	c07ff0ef          	jal	17f90 <__errno>
   1838e:	c100                	sw	s0,0(a0)
   18390:	547d                	li	s0,-1
   18392:	b7cd                	j	18374 <_fstat+0x1a>

00018394 <_getpid>:
   18394:	4505                	li	a0,1
   18396:	8082                	ret

00018398 <_isatty>:
   18398:	7159                	addi	sp,sp,-112
   1839a:	002c                	addi	a1,sp,8
   1839c:	d686                	sw	ra,108(sp)
   1839e:	fbdff0ef          	jal	1835a <_fstat>
   183a2:	57fd                	li	a5,-1
   183a4:	00f50863          	beq	a0,a5,183b4 <_isatty+0x1c>
   183a8:	4532                	lw	a0,12(sp)
   183aa:	50b6                	lw	ra,108(sp)
   183ac:	8135                	srli	a0,a0,0xd
   183ae:	8905                	andi	a0,a0,1
   183b0:	6165                	addi	sp,sp,112
   183b2:	8082                	ret
   183b4:	50b6                	lw	ra,108(sp)
   183b6:	4501                	li	a0,0
   183b8:	6165                	addi	sp,sp,112
   183ba:	8082                	ret

000183bc <_kill>:
   183bc:	1141                	addi	sp,sp,-16
   183be:	c606                	sw	ra,12(sp)
   183c0:	bd1ff0ef          	jal	17f90 <__errno>
   183c4:	40b2                	lw	ra,12(sp)
   183c6:	47d9                	li	a5,22
   183c8:	c11c                	sw	a5,0(a0)
   183ca:	557d                	li	a0,-1
   183cc:	0141                	addi	sp,sp,16
   183ce:	8082                	ret

000183d0 <_lseek>:
   183d0:	1141                	addi	sp,sp,-16
   183d2:	c606                	sw	ra,12(sp)
   183d4:	c422                	sw	s0,8(sp)
   183d6:	03e00893          	li	a7,62
   183da:	00000073          	ecall
   183de:	842a                	mv	s0,a0
   183e0:	00054763          	bltz	a0,183ee <_lseek+0x1e>
   183e4:	40b2                	lw	ra,12(sp)
   183e6:	8522                	mv	a0,s0
   183e8:	4422                	lw	s0,8(sp)
   183ea:	0141                	addi	sp,sp,16
   183ec:	8082                	ret
   183ee:	40800433          	neg	s0,s0
   183f2:	b9fff0ef          	jal	17f90 <__errno>
   183f6:	c100                	sw	s0,0(a0)
   183f8:	547d                	li	s0,-1
   183fa:	b7ed                	j	183e4 <_lseek+0x14>

000183fc <_read>:
   183fc:	1141                	addi	sp,sp,-16
   183fe:	c606                	sw	ra,12(sp)
   18400:	c422                	sw	s0,8(sp)
   18402:	03f00893          	li	a7,63
   18406:	00000073          	ecall
   1840a:	842a                	mv	s0,a0
   1840c:	00054763          	bltz	a0,1841a <_read+0x1e>
   18410:	40b2                	lw	ra,12(sp)
   18412:	8522                	mv	a0,s0
   18414:	4422                	lw	s0,8(sp)
   18416:	0141                	addi	sp,sp,16
   18418:	8082                	ret
   1841a:	40800433          	neg	s0,s0
   1841e:	b73ff0ef          	jal	17f90 <__errno>
   18422:	c100                	sw	s0,0(a0)
   18424:	547d                	li	s0,-1
   18426:	b7ed                	j	18410 <_read+0x14>

00018428 <_sbrk>:
   18428:	f441a703          	lw	a4,-188(gp) # 1c9bc <heap_end.0>
   1842c:	1141                	addi	sp,sp,-16
   1842e:	c606                	sw	ra,12(sp)
   18430:	87aa                	mv	a5,a0
   18432:	ef01                	bnez	a4,1844a <_sbrk+0x22>
   18434:	0d600893          	li	a7,214
   18438:	4501                	li	a0,0
   1843a:	00000073          	ecall
   1843e:	567d                	li	a2,-1
   18440:	872a                	mv	a4,a0
   18442:	02c50563          	beq	a0,a2,1846c <_sbrk+0x44>
   18446:	f4a1a223          	sw	a0,-188(gp) # 1c9bc <heap_end.0>
   1844a:	0d600893          	li	a7,214
   1844e:	00e78533          	add	a0,a5,a4
   18452:	00000073          	ecall
   18456:	f441a703          	lw	a4,-188(gp) # 1c9bc <heap_end.0>
   1845a:	97ba                	add	a5,a5,a4
   1845c:	00f51863          	bne	a0,a5,1846c <_sbrk+0x44>
   18460:	40b2                	lw	ra,12(sp)
   18462:	f4a1a223          	sw	a0,-188(gp) # 1c9bc <heap_end.0>
   18466:	853a                	mv	a0,a4
   18468:	0141                	addi	sp,sp,16
   1846a:	8082                	ret
   1846c:	b25ff0ef          	jal	17f90 <__errno>
   18470:	40b2                	lw	ra,12(sp)
   18472:	47b1                	li	a5,12
   18474:	c11c                	sw	a5,0(a0)
   18476:	557d                	li	a0,-1
   18478:	0141                	addi	sp,sp,16
   1847a:	8082                	ret

0001847c <_write>:
   1847c:	1141                	addi	sp,sp,-16
   1847e:	c606                	sw	ra,12(sp)
   18480:	c422                	sw	s0,8(sp)
   18482:	04000893          	li	a7,64
   18486:	00000073          	ecall
   1848a:	842a                	mv	s0,a0
   1848c:	00054763          	bltz	a0,1849a <_write+0x1e>
   18490:	40b2                	lw	ra,12(sp)
   18492:	8522                	mv	a0,s0
   18494:	4422                	lw	s0,8(sp)
   18496:	0141                	addi	sp,sp,16
   18498:	8082                	ret
   1849a:	40800433          	neg	s0,s0
   1849e:	af3ff0ef          	jal	17f90 <__errno>
   184a2:	c100                	sw	s0,0(a0)
   184a4:	547d                	li	s0,-1
   184a6:	b7ed                	j	18490 <_write+0x14>

000184a8 <_conv_stat>:
   184a8:	0185d703          	lhu	a4,24(a1)
   184ac:	0145d783          	lhu	a5,20(a1)
   184b0:	1141                	addi	sp,sp,-16
   184b2:	01c5a283          	lw	t0,28(a1)
   184b6:	0205af83          	lw	t6,32(a1)
   184ba:	0305af03          	lw	t5,48(a1)
   184be:	0405ae83          	lw	t4,64(a1)
   184c2:	0385ae03          	lw	t3,56(a1)
   184c6:	0485a303          	lw	t1,72(a1)
   184ca:	04c5a383          	lw	t2,76(a1)
   184ce:	0585a803          	lw	a6,88(a1)
   184d2:	05c5a883          	lw	a7,92(a1)
   184d6:	c622                	sw	s0,12(sp)
   184d8:	c426                	sw	s1,8(sp)
   184da:	4980                	lw	s0,16(a1)
   184dc:	4584                	lw	s1,8(a1)
   184de:	c24a                	sw	s2,4(sp)
   184e0:	0005a903          	lw	s2,0(a1)
   184e4:	55b0                	lw	a2,104(a1)
   184e6:	0742                	slli	a4,a4,0x10
   184e8:	8fd9                	or	a5,a5,a4
   184ea:	55f4                	lw	a3,108(a1)
   184ec:	01251023          	sh	s2,0(a0)
   184f0:	00951123          	sh	s1,2(a0)
   184f4:	c140                	sw	s0,4(a0)
   184f6:	c51c                	sw	a5,8(a0)
   184f8:	00551623          	sh	t0,12(a0)
   184fc:	01f51723          	sh	t6,14(a0)
   18500:	01e52823          	sw	t5,16(a0)
   18504:	05d52623          	sw	t4,76(a0)
   18508:	05c52423          	sw	t3,72(a0)
   1850c:	00652c23          	sw	t1,24(a0)
   18510:	00752e23          	sw	t2,28(a0)
   18514:	03052423          	sw	a6,40(a0)
   18518:	03152623          	sw	a7,44(a0)
   1851c:	dd10                	sw	a2,56(a0)
   1851e:	4432                	lw	s0,12(sp)
   18520:	dd54                	sw	a3,60(a0)
   18522:	44a2                	lw	s1,8(sp)
   18524:	4912                	lw	s2,4(sp)
   18526:	0141                	addi	sp,sp,16
   18528:	8082                	ret

0001852a <__eqtf2>:
   1852a:	411c                	lw	a5,0(a0)
   1852c:	00452e03          	lw	t3,4(a0)
   18530:	00852e83          	lw	t4,8(a0)
   18534:	4554                	lw	a3,12(a0)
   18536:	4198                	lw	a4,0(a1)
   18538:	0045af83          	lw	t6,4(a1)
   1853c:	0085af03          	lw	t5,8(a1)
   18540:	00c5a883          	lw	a7,12(a1)
   18544:	1141                	addi	sp,sp,-16
   18546:	00202673          	frrm	a2
   1854a:	6521                	lui	a0,0x8
   1854c:	0106d613          	srli	a2,a3,0x10
   18550:	157d                	addi	a0,a0,-1 # 7fff <exit-0x8095>
   18552:	01069313          	slli	t1,a3,0x10
   18556:	01089593          	slli	a1,a7,0x10
   1855a:	01f6d813          	srli	a6,a3,0x1f
   1855e:	8e69                	and	a2,a2,a0
   18560:	0108d693          	srli	a3,a7,0x10
   18564:	01035313          	srli	t1,t1,0x10
   18568:	81c1                	srli	a1,a1,0x10
   1856a:	8ee9                	and	a3,a3,a0
   1856c:	01f8d893          	srli	a7,a7,0x1f
   18570:	00a61c63          	bne	a2,a0,18588 <__eqtf2+0x5e>
   18574:	01c7e533          	or	a0,a5,t3
   18578:	01d56533          	or	a0,a0,t4
   1857c:	00656533          	or	a0,a0,t1
   18580:	e51d                	bnez	a0,185ae <__eqtf2+0x84>
   18582:	04c69b63          	bne	a3,a2,185d8 <__eqtf2+0xae>
   18586:	a019                	j	1858c <__eqtf2+0x62>
   18588:	04a69a63          	bne	a3,a0,185dc <__eqtf2+0xb2>
   1858c:	01f76533          	or	a0,a4,t6
   18590:	01e56533          	or	a0,a0,t5
   18594:	8d4d                	or	a0,a0,a1
   18596:	c139                	beqz	a0,185dc <__eqtf2+0xb2>
   18598:	6521                	lui	a0,0x8
   1859a:	157d                	addi	a0,a0,-1 # 7fff <exit-0x8095>
   1859c:	02a61a63          	bne	a2,a0,185d0 <__eqtf2+0xa6>
   185a0:	01c7e7b3          	or	a5,a5,t3
   185a4:	01d7e7b3          	or	a5,a5,t4
   185a8:	0067e7b3          	or	a5,a5,t1
   185ac:	cb99                	beqz	a5,185c2 <__eqtf2+0x98>
   185ae:	0342                	slli	t1,t1,0x10
   185b0:	41035313          	srai	t1,t1,0x10
   185b4:	04035c63          	bgez	t1,1860c <__eqtf2+0xe2>
   185b8:	67a1                	lui	a5,0x8
   185ba:	17fd                	addi	a5,a5,-1 # 7fff <exit-0x8095>
   185bc:	4505                	li	a0,1
   185be:	04f69563          	bne	a3,a5,18608 <__eqtf2+0xde>
   185c2:	01f76733          	or	a4,a4,t6
   185c6:	01e76733          	or	a4,a4,t5
   185ca:	8f4d                	or	a4,a4,a1
   185cc:	4505                	li	a0,1
   185ce:	cf0d                	beqz	a4,18608 <__eqtf2+0xde>
   185d0:	05c2                	slli	a1,a1,0x10
   185d2:	85c1                	srai	a1,a1,0x10
   185d4:	0205dc63          	bgez	a1,1860c <__eqtf2+0xe2>
   185d8:	4505                	li	a0,1
   185da:	a03d                	j	18608 <__eqtf2+0xde>
   185dc:	4505                	li	a0,1
   185de:	02c69563          	bne	a3,a2,18608 <__eqtf2+0xde>
   185e2:	02e79363          	bne	a5,a4,18608 <__eqtf2+0xde>
   185e6:	03fe1163          	bne	t3,t6,18608 <__eqtf2+0xde>
   185ea:	01ee9f63          	bne	t4,t5,18608 <__eqtf2+0xde>
   185ee:	00b31d63          	bne	t1,a1,18608 <__eqtf2+0xde>
   185f2:	03180063          	beq	a6,a7,18612 <__eqtf2+0xe8>
   185f6:	ea89                	bnez	a3,18608 <__eqtf2+0xde>
   185f8:	01c7e533          	or	a0,a5,t3
   185fc:	01d56533          	or	a0,a0,t4
   18600:	00656533          	or	a0,a0,t1
   18604:	00a03533          	snez	a0,a0
   18608:	0141                	addi	sp,sp,16
   1860a:	8082                	ret
   1860c:	00186073          	csrsi	fflags,16
   18610:	b7e1                	j	185d8 <__eqtf2+0xae>
   18612:	4501                	li	a0,0
   18614:	bfd5                	j	18608 <__eqtf2+0xde>

00018616 <__getf2>:
   18616:	00052883          	lw	a7,0(a0)
   1861a:	00452303          	lw	t1,4(a0)
   1861e:	00852e03          	lw	t3,8(a0)
   18622:	455c                	lw	a5,12(a0)
   18624:	0005ae83          	lw	t4,0(a1)
   18628:	0045af03          	lw	t5,4(a1)
   1862c:	0085af83          	lw	t6,8(a1)
   18630:	45d4                	lw	a3,12(a1)
   18632:	1141                	addi	sp,sp,-16
   18634:	00202773          	frrm	a4
   18638:	6721                	lui	a4,0x8
   1863a:	0107d613          	srli	a2,a5,0x10
   1863e:	177d                	addi	a4,a4,-1 # 7fff <exit-0x8095>
   18640:	01079813          	slli	a6,a5,0x10
   18644:	01069293          	slli	t0,a3,0x10
   18648:	0106d513          	srli	a0,a3,0x10
   1864c:	8e79                	and	a2,a2,a4
   1864e:	01085813          	srli	a6,a6,0x10
   18652:	83fd                	srli	a5,a5,0x1f
   18654:	0102d293          	srli	t0,t0,0x10
   18658:	8d79                	and	a0,a0,a4
   1865a:	82fd                	srli	a3,a3,0x1f
   1865c:	00e61963          	bne	a2,a4,1866e <__getf2+0x58>
   18660:	01136733          	or	a4,t1,a7
   18664:	01c76733          	or	a4,a4,t3
   18668:	01076733          	or	a4,a4,a6
   1866c:	ef35                	bnez	a4,186e8 <__getf2+0xd2>
   1866e:	6721                	lui	a4,0x8
   18670:	177d                	addi	a4,a4,-1 # 7fff <exit-0x8095>
   18672:	00e51963          	bne	a0,a4,18684 <__getf2+0x6e>
   18676:	01eee733          	or	a4,t4,t5
   1867a:	01f76733          	or	a4,a4,t6
   1867e:	00576733          	or	a4,a4,t0
   18682:	e33d                	bnez	a4,186e8 <__getf2+0xd2>
   18684:	4701                	li	a4,0
   18686:	ea09                	bnez	a2,18698 <__getf2+0x82>
   18688:	01136733          	or	a4,t1,a7
   1868c:	01c76733          	or	a4,a4,t3
   18690:	01076733          	or	a4,a4,a6
   18694:	00173713          	seqz	a4,a4
   18698:	ed21                	bnez	a0,186f0 <__getf2+0xda>
   1869a:	01eee5b3          	or	a1,t4,t5
   1869e:	01f5e5b3          	or	a1,a1,t6
   186a2:	0055e5b3          	or	a1,a1,t0
   186a6:	c711                	beqz	a4,186b2 <__getf2+0x9c>
   186a8:	c981                	beqz	a1,186b8 <__getf2+0xa2>
   186aa:	4505                	li	a0,1
   186ac:	e691                	bnez	a3,186b8 <__getf2+0xa2>
   186ae:	557d                	li	a0,-1
   186b0:	a021                	j	186b8 <__getf2+0xa2>
   186b2:	e1a1                	bnez	a1,186f2 <__getf2+0xdc>
   186b4:	557d                	li	a0,-1
   186b6:	c7a1                	beqz	a5,186fe <__getf2+0xe8>
   186b8:	0141                	addi	sp,sp,16
   186ba:	8082                	ret
   186bc:	fea647e3          	blt	a2,a0,186aa <__getf2+0x94>
   186c0:	ff02eae3          	bltu	t0,a6,186b4 <__getf2+0x9e>
   186c4:	00581f63          	bne	a6,t0,186e2 <__getf2+0xcc>
   186c8:	ffcfe6e3          	bltu	t6,t3,186b4 <__getf2+0x9e>
   186cc:	01fe1b63          	bne	t3,t6,186e2 <__getf2+0xcc>
   186d0:	fe6f62e3          	bltu	t5,t1,186b4 <__getf2+0x9e>
   186d4:	01e31763          	bne	t1,t5,186e2 <__getf2+0xcc>
   186d8:	fd1eeee3          	bltu	t4,a7,186b4 <__getf2+0x9e>
   186dc:	4501                	li	a0,0
   186de:	fdd8fde3          	bgeu	a7,t4,186b8 <__getf2+0xa2>
   186e2:	4505                	li	a0,1
   186e4:	fbf1                	bnez	a5,186b8 <__getf2+0xa2>
   186e6:	b7e1                	j	186ae <__getf2+0x98>
   186e8:	00186073          	csrsi	fflags,16
   186ec:	5579                	li	a0,-2
   186ee:	b7e9                	j	186b8 <__getf2+0xa2>
   186f0:	ff4d                	bnez	a4,186aa <__getf2+0x94>
   186f2:	fcf691e3          	bne	a3,a5,186b4 <__getf2+0x9e>
   186f6:	fcc553e3          	bge	a0,a2,186bc <__getf2+0xa6>
   186fa:	557d                	li	a0,-1
   186fc:	fed5                	bnez	a3,186b8 <__getf2+0xa2>
   186fe:	4505                	li	a0,1
   18700:	bf65                	j	186b8 <__getf2+0xa2>

00018702 <__letf2>:
   18702:	00052883          	lw	a7,0(a0)
   18706:	00452303          	lw	t1,4(a0)
   1870a:	00852e03          	lw	t3,8(a0)
   1870e:	455c                	lw	a5,12(a0)
   18710:	0005ae83          	lw	t4,0(a1)
   18714:	0045af03          	lw	t5,4(a1)
   18718:	0085af83          	lw	t6,8(a1)
   1871c:	45d4                	lw	a3,12(a1)
   1871e:	1141                	addi	sp,sp,-16
   18720:	00202773          	frrm	a4
   18724:	6721                	lui	a4,0x8
   18726:	0107d613          	srli	a2,a5,0x10
   1872a:	177d                	addi	a4,a4,-1 # 7fff <exit-0x8095>
   1872c:	01079813          	slli	a6,a5,0x10
   18730:	01069293          	slli	t0,a3,0x10
   18734:	0106d513          	srli	a0,a3,0x10
   18738:	8e79                	and	a2,a2,a4
   1873a:	01085813          	srli	a6,a6,0x10
   1873e:	83fd                	srli	a5,a5,0x1f
   18740:	0102d293          	srli	t0,t0,0x10
   18744:	8d79                	and	a0,a0,a4
   18746:	82fd                	srli	a3,a3,0x1f
   18748:	00e61963          	bne	a2,a4,1875a <__letf2+0x58>
   1874c:	01136733          	or	a4,t1,a7
   18750:	01c76733          	or	a4,a4,t3
   18754:	01076733          	or	a4,a4,a6
   18758:	ef35                	bnez	a4,187d4 <__letf2+0xd2>
   1875a:	6721                	lui	a4,0x8
   1875c:	177d                	addi	a4,a4,-1 # 7fff <exit-0x8095>
   1875e:	00e51963          	bne	a0,a4,18770 <__letf2+0x6e>
   18762:	01eee733          	or	a4,t4,t5
   18766:	01f76733          	or	a4,a4,t6
   1876a:	00576733          	or	a4,a4,t0
   1876e:	e33d                	bnez	a4,187d4 <__letf2+0xd2>
   18770:	4701                	li	a4,0
   18772:	ea09                	bnez	a2,18784 <__letf2+0x82>
   18774:	01136733          	or	a4,t1,a7
   18778:	01c76733          	or	a4,a4,t3
   1877c:	01076733          	or	a4,a4,a6
   18780:	00173713          	seqz	a4,a4
   18784:	ed21                	bnez	a0,187dc <__letf2+0xda>
   18786:	01eee5b3          	or	a1,t4,t5
   1878a:	01f5e5b3          	or	a1,a1,t6
   1878e:	0055e5b3          	or	a1,a1,t0
   18792:	c711                	beqz	a4,1879e <__letf2+0x9c>
   18794:	c981                	beqz	a1,187a4 <__letf2+0xa2>
   18796:	4505                	li	a0,1
   18798:	e691                	bnez	a3,187a4 <__letf2+0xa2>
   1879a:	557d                	li	a0,-1
   1879c:	a021                	j	187a4 <__letf2+0xa2>
   1879e:	e1a1                	bnez	a1,187de <__letf2+0xdc>
   187a0:	557d                	li	a0,-1
   187a2:	c7a1                	beqz	a5,187ea <__letf2+0xe8>
   187a4:	0141                	addi	sp,sp,16
   187a6:	8082                	ret
   187a8:	fea647e3          	blt	a2,a0,18796 <__letf2+0x94>
   187ac:	ff02eae3          	bltu	t0,a6,187a0 <__letf2+0x9e>
   187b0:	00581f63          	bne	a6,t0,187ce <__letf2+0xcc>
   187b4:	ffcfe6e3          	bltu	t6,t3,187a0 <__letf2+0x9e>
   187b8:	01fe1b63          	bne	t3,t6,187ce <__letf2+0xcc>
   187bc:	fe6f62e3          	bltu	t5,t1,187a0 <__letf2+0x9e>
   187c0:	01e31763          	bne	t1,t5,187ce <__letf2+0xcc>
   187c4:	fd1eeee3          	bltu	t4,a7,187a0 <__letf2+0x9e>
   187c8:	4501                	li	a0,0
   187ca:	fdd8fde3          	bgeu	a7,t4,187a4 <__letf2+0xa2>
   187ce:	4505                	li	a0,1
   187d0:	fbf1                	bnez	a5,187a4 <__letf2+0xa2>
   187d2:	b7e1                	j	1879a <__letf2+0x98>
   187d4:	00186073          	csrsi	fflags,16
   187d8:	4509                	li	a0,2
   187da:	b7e9                	j	187a4 <__letf2+0xa2>
   187dc:	ff4d                	bnez	a4,18796 <__letf2+0x94>
   187de:	fcf691e3          	bne	a3,a5,187a0 <__letf2+0x9e>
   187e2:	fcc553e3          	bge	a0,a2,187a8 <__letf2+0xa6>
   187e6:	557d                	li	a0,-1
   187e8:	fed5                	bnez	a3,187a4 <__letf2+0xa2>
   187ea:	4505                	li	a0,1
   187ec:	bf65                	j	187a4 <__letf2+0xa2>

000187ee <__multf3>:
   187ee:	7131                	addi	sp,sp,-192
   187f0:	d552                	sw	s4,168(sp)
   187f2:	d356                	sw	s5,164(sp)
   187f4:	d15a                	sw	s6,160(sp)
   187f6:	cf5e                	sw	s7,156(sp)
   187f8:	c62a                	sw	a0,12(sp)
   187fa:	419c                	lw	a5,0(a1)
   187fc:	41c8                	lw	a0,4(a1)
   187fe:	4594                	lw	a3,8(a1)
   18800:	45d8                	lw	a4,12(a1)
   18802:	00062a83          	lw	s5,0(a2)
   18806:	00462b83          	lw	s7,4(a2)
   1880a:	00862b03          	lw	s6,8(a2)
   1880e:	00c62a03          	lw	s4,12(a2)
   18812:	df06                	sw	ra,188(sp)
   18814:	dd22                	sw	s0,184(sp)
   18816:	db26                	sw	s1,180(sp)
   18818:	d94a                	sw	s2,176(sp)
   1881a:	d74e                	sw	s3,172(sp)
   1881c:	cd62                	sw	s8,152(sp)
   1881e:	cb66                	sw	s9,148(sp)
   18820:	c96a                	sw	s10,144(sp)
   18822:	c76e                	sw	s11,140(sp)
   18824:	002024f3          	frrm	s1
   18828:	6621                	lui	a2,0x8
   1882a:	01071413          	slli	s0,a4,0x10
   1882e:	8041                	srli	s0,s0,0x10
   18830:	01075913          	srli	s2,a4,0x10
   18834:	167d                	addi	a2,a2,-1 # 7fff <exit-0x8095>
   18836:	d0be                	sw	a5,96(sp)
   18838:	d2aa                	sw	a0,100(sp)
   1883a:	d4b6                	sw	a3,104(sp)
   1883c:	d6ba                	sw	a4,108(sp)
   1883e:	d83e                	sw	a5,48(sp)
   18840:	da2a                	sw	a0,52(sp)
   18842:	dc36                	sw	a3,56(sp)
   18844:	de22                	sw	s0,60(sp)
   18846:	00c97933          	and	s2,s2,a2
   1884a:	01f75993          	srli	s3,a4,0x1f
   1884e:	02090a63          	beqz	s2,18882 <__multf3+0x94>
   18852:	10c90d63          	beq	s2,a2,1896c <__multf3+0x17e>
   18856:	6741                	lui	a4,0x10
   18858:	8c59                	or	s0,s0,a4
   1885a:	de22                	sw	s0,60(sp)
   1885c:	1818                	addi	a4,sp,48
   1885e:	104c                	addi	a1,sp,36
   18860:	4754                	lw	a3,12(a4)
   18862:	4710                	lw	a2,8(a4)
   18864:	1771                	addi	a4,a4,-4 # fffc <exit-0x98>
   18866:	068e                	slli	a3,a3,0x3
   18868:	8275                	srli	a2,a2,0x1d
   1886a:	8ed1                	or	a3,a3,a2
   1886c:	cb14                	sw	a3,16(a4)
   1886e:	fee599e3          	bne	a1,a4,18860 <__multf3+0x72>
   18872:	078e                	slli	a5,a5,0x3
   18874:	d83e                	sw	a5,48(sp)
   18876:	77f1                	lui	a5,0xffffc
   18878:	0785                	addi	a5,a5,1 # ffffc001 <__BSS_END__+0xfffdf335>
   1887a:	993e                	add	s2,s2,a5
   1887c:	4c01                	li	s8,0
   1887e:	4401                	li	s0,0
   18880:	a211                	j	18984 <__multf3+0x196>
   18882:	00a7e733          	or	a4,a5,a0
   18886:	8f55                	or	a4,a4,a3
   18888:	8f41                	or	a4,a4,s0
   1888a:	70070d63          	beqz	a4,18fa4 <__multf3+0x7b6>
   1888e:	cc2d                	beqz	s0,18908 <__multf3+0x11a>
   18890:	8522                	mv	a0,s0
   18892:	108020ef          	jal	1a99a <__clzsi2>
   18896:	ff450693          	addi	a3,a0,-12
   1889a:	4056d793          	srai	a5,a3,0x5
   1889e:	8afd                	andi	a3,a3,31
   188a0:	c6d9                	beqz	a3,1892e <__multf3+0x140>
   188a2:	5671                	li	a2,-4
   188a4:	02c78633          	mul	a2,a5,a2
   188a8:	02000813          	li	a6,32
   188ac:	03010313          	addi	t1,sp,48
   188b0:	40d80833          	sub	a6,a6,a3
   188b4:	00c60713          	addi	a4,a2,12
   188b8:	971a                	add	a4,a4,t1
   188ba:	40c00633          	neg	a2,a2
   188be:	08e31863          	bne	t1,a4,1894e <__multf3+0x160>
   188c2:	fff78713          	addi	a4,a5,-1
   188c6:	078a                	slli	a5,a5,0x2
   188c8:	1810                	addi	a2,sp,48
   188ca:	05078793          	addi	a5,a5,80
   188ce:	97b2                	add	a5,a5,a2
   188d0:	5642                	lw	a2,48(sp)
   188d2:	00d616b3          	sll	a3,a2,a3
   188d6:	fad7a823          	sw	a3,-80(a5)
   188da:	00170793          	addi	a5,a4,1
   188de:	078a                	slli	a5,a5,0x2
   188e0:	46a1                	li	a3,8
   188e2:	1818                	addi	a4,sp,48
   188e4:	00d7e863          	bltu	a5,a3,188f4 <__multf3+0x106>
   188e8:	00072023          	sw	zero,0(a4)
   188ec:	00072223          	sw	zero,4(a4)
   188f0:	17e1                	addi	a5,a5,-8
   188f2:	1838                	addi	a4,sp,56
   188f4:	4691                	li	a3,4
   188f6:	00d7e463          	bltu	a5,a3,188fe <__multf3+0x110>
   188fa:	00072023          	sw	zero,0(a4)
   188fe:	7971                	lui	s2,0xffffc
   18900:	0945                	addi	s2,s2,17 # ffffc011 <__BSS_END__+0xfffdf345>
   18902:	40a90933          	sub	s2,s2,a0
   18906:	bf9d                	j	1887c <__multf3+0x8e>
   18908:	c699                	beqz	a3,18916 <__multf3+0x128>
   1890a:	8536                	mv	a0,a3
   1890c:	08e020ef          	jal	1a99a <__clzsi2>
   18910:	02050513          	addi	a0,a0,32
   18914:	b749                	j	18896 <__multf3+0xa8>
   18916:	c511                	beqz	a0,18922 <__multf3+0x134>
   18918:	082020ef          	jal	1a99a <__clzsi2>
   1891c:	04050513          	addi	a0,a0,64
   18920:	bf9d                	j	18896 <__multf3+0xa8>
   18922:	853e                	mv	a0,a5
   18924:	076020ef          	jal	1a99a <__clzsi2>
   18928:	06050513          	addi	a0,a0,96
   1892c:	b7ad                	j	18896 <__multf3+0xa8>
   1892e:	5671                	li	a2,-4
   18930:	02c78633          	mul	a2,a5,a2
   18934:	1878                	addi	a4,sp,60
   18936:	468d                	li	a3,3
   18938:	00c705b3          	add	a1,a4,a2
   1893c:	418c                	lw	a1,0(a1)
   1893e:	16fd                	addi	a3,a3,-1
   18940:	1771                	addi	a4,a4,-4
   18942:	c34c                	sw	a1,4(a4)
   18944:	fef6dae3          	bge	a3,a5,18938 <__multf3+0x14a>
   18948:	fff78713          	addi	a4,a5,-1
   1894c:	b779                	j	188da <__multf3+0xec>
   1894e:	430c                	lw	a1,0(a4)
   18950:	ffc72883          	lw	a7,-4(a4)
   18954:	00c70e33          	add	t3,a4,a2
   18958:	00d595b3          	sll	a1,a1,a3
   1895c:	0108d8b3          	srl	a7,a7,a6
   18960:	0115e5b3          	or	a1,a1,a7
   18964:	00be2023          	sw	a1,0(t3)
   18968:	1771                	addi	a4,a4,-4
   1896a:	bf91                	j	188be <__multf3+0xd0>
   1896c:	8fc9                	or	a5,a5,a0
   1896e:	8fd5                	or	a5,a5,a3
   18970:	8fc1                	or	a5,a5,s0
   18972:	62078c63          	beqz	a5,18faa <__multf3+0x7bc>
   18976:	0442                	slli	s0,s0,0x10
   18978:	8441                	srai	s0,s0,0x10
   1897a:	fff44413          	not	s0,s0
   1897e:	807d                	srli	s0,s0,0x1f
   18980:	0412                	slli	s0,s0,0x4
   18982:	4c0d                	li	s8,3
   18984:	010a1513          	slli	a0,s4,0x10
   18988:	6721                	lui	a4,0x8
   1898a:	010a5793          	srli	a5,s4,0x10
   1898e:	8141                	srli	a0,a0,0x10
   18990:	177d                	addi	a4,a4,-1 # 7fff <exit-0x8095>
   18992:	d6d2                	sw	s4,108(sp)
   18994:	d0d6                	sw	s5,96(sp)
   18996:	d2de                	sw	s7,100(sp)
   18998:	d4da                	sw	s6,104(sp)
   1899a:	c0d6                	sw	s5,64(sp)
   1899c:	c2de                	sw	s7,68(sp)
   1899e:	c4da                	sw	s6,72(sp)
   189a0:	c6aa                	sw	a0,76(sp)
   189a2:	8ff9                	and	a5,a5,a4
   189a4:	01fa5a13          	srli	s4,s4,0x1f
   189a8:	60078363          	beqz	a5,18fae <__multf3+0x7c0>
   189ac:	6ee78863          	beq	a5,a4,1909c <__multf3+0x8ae>
   189b0:	6741                	lui	a4,0x10
   189b2:	8d59                	or	a0,a0,a4
   189b4:	c6aa                	sw	a0,76(sp)
   189b6:	0098                	addi	a4,sp,64
   189b8:	184c                	addi	a1,sp,52
   189ba:	4754                	lw	a3,12(a4)
   189bc:	4710                	lw	a2,8(a4)
   189be:	1771                	addi	a4,a4,-4 # fffc <exit-0x98>
   189c0:	068e                	slli	a3,a3,0x3
   189c2:	8275                	srli	a2,a2,0x1d
   189c4:	8ed1                	or	a3,a3,a2
   189c6:	cb14                	sw	a3,16(a4)
   189c8:	fee599e3          	bne	a1,a4,189ba <__multf3+0x1cc>
   189cc:	7771                	lui	a4,0xffffc
   189ce:	0a8e                	slli	s5,s5,0x3
   189d0:	0705                	addi	a4,a4,1 # ffffc001 <__BSS_END__+0xfffdf335>
   189d2:	c0d6                	sw	s5,64(sp)
   189d4:	97ba                	add	a5,a5,a4
   189d6:	4681                	li	a3,0
   189d8:	97ca                	add	a5,a5,s2
   189da:	ca3e                	sw	a5,20(sp)
   189dc:	0785                	addi	a5,a5,1
   189de:	c83e                	sw	a5,16(sp)
   189e0:	002c1793          	slli	a5,s8,0x2
   189e4:	8fd5                	or	a5,a5,a3
   189e6:	4729                	li	a4,10
   189e8:	70f74363          	blt	a4,a5,190ee <__multf3+0x900>
   189ec:	4609                	li	a2,2
   189ee:	0149c733          	xor	a4,s3,s4
   189f2:	6cf64863          	blt	a2,a5,190c2 <__multf3+0x8d4>
   189f6:	17fd                	addi	a5,a5,-1
   189f8:	4605                	li	a2,1
   189fa:	70f67263          	bgeu	a2,a5,190fe <__multf3+0x910>
   189fe:	5542                	lw	a0,48(sp)
   18a00:	4306                	lw	t1,64(sp)
   18a02:	6841                	lui	a6,0x10
   18a04:	fff80593          	addi	a1,a6,-1 # ffff <exit-0x95>
   18a08:	01055913          	srli	s2,a0,0x10
   18a0c:	01035393          	srli	t2,t1,0x10
   18a10:	8d6d                	and	a0,a0,a1
   18a12:	00b37333          	and	t1,t1,a1
   18a16:	02a30633          	mul	a2,t1,a0
   18a1a:	026908b3          	mul	a7,s2,t1
   18a1e:	01065793          	srli	a5,a2,0x10
   18a22:	02a386b3          	mul	a3,t2,a0
   18a26:	96c6                	add	a3,a3,a7
   18a28:	97b6                	add	a5,a5,a3
   18a2a:	02790bb3          	mul	s7,s2,t2
   18a2e:	0117f363          	bgeu	a5,a7,18a34 <__multf3+0x246>
   18a32:	9bc2                	add	s7,s7,a6
   18a34:	4896                	lw	a7,68(sp)
   18a36:	0107d693          	srli	a3,a5,0x10
   18a3a:	8fed                	and	a5,a5,a1
   18a3c:	8e6d                	and	a2,a2,a1
   18a3e:	07c2                	slli	a5,a5,0x10
   18a40:	97b2                	add	a5,a5,a2
   18a42:	0108df93          	srli	t6,a7,0x10
   18a46:	00b8f8b3          	and	a7,a7,a1
   18a4a:	031905b3          	mul	a1,s2,a7
   18a4e:	d03e                	sw	a5,32(sp)
   18a50:	d0be                	sw	a5,96(sp)
   18a52:	02af8633          	mul	a2,t6,a0
   18a56:	02a887b3          	mul	a5,a7,a0
   18a5a:	962e                	add	a2,a2,a1
   18a5c:	0107d813          	srli	a6,a5,0x10
   18a60:	9832                	add	a6,a6,a2
   18a62:	03f90b33          	mul	s6,s2,t6
   18a66:	00b87463          	bgeu	a6,a1,18a6e <__multf3+0x280>
   18a6a:	6641                	lui	a2,0x10
   18a6c:	9b32                	add	s6,s6,a2
   18a6e:	01085613          	srli	a2,a6,0x10
   18a72:	55d2                	lw	a1,52(sp)
   18a74:	cc32                	sw	a2,24(sp)
   18a76:	6641                	lui	a2,0x10
   18a78:	fff60e93          	addi	t4,a2,-1 # ffff <exit-0x95>
   18a7c:	01d87833          	and	a6,a6,t4
   18a80:	01d7f7b3          	and	a5,a5,t4
   18a84:	0105d293          	srli	t0,a1,0x10
   18a88:	0842                	slli	a6,a6,0x10
   18a8a:	01d5f5b3          	and	a1,a1,t4
   18a8e:	983e                	add	a6,a6,a5
   18a90:	02628a33          	mul	s4,t0,t1
   18a94:	96c2                	add	a3,a3,a6
   18a96:	026587b3          	mul	a5,a1,t1
   18a9a:	02b38eb3          	mul	t4,t2,a1
   18a9e:	0107d993          	srli	s3,a5,0x10
   18aa2:	9ed2                	add	t4,t4,s4
   18aa4:	99f6                	add	s3,s3,t4
   18aa6:	02538f33          	mul	t5,t2,t0
   18aaa:	0149f363          	bgeu	s3,s4,18ab0 <__multf3+0x2c2>
   18aae:	9f32                	add	t5,t5,a2
   18ab0:	6c41                	lui	s8,0x10
   18ab2:	fffc0613          	addi	a2,s8,-1 # ffff <exit-0x95>
   18ab6:	8ff1                	and	a5,a5,a2
   18ab8:	0109da13          	srli	s4,s3,0x10
   18abc:	00c9f9b3          	and	s3,s3,a2
   18ac0:	09c2                	slli	s3,s3,0x10
   18ac2:	99be                	add	s3,s3,a5
   18ac4:	02b88eb3          	mul	t4,a7,a1
   18ac8:	9a7a                	add	s4,s4,t5
   18aca:	03128633          	mul	a2,t0,a7
   18ace:	010ed793          	srli	a5,t4,0x10
   18ad2:	02bf8ab3          	mul	s5,t6,a1
   18ad6:	9ab2                	add	s5,s5,a2
   18ad8:	97d6                	add	a5,a5,s5
   18ada:	025f8f33          	mul	t5,t6,t0
   18ade:	00c7f363          	bgeu	a5,a2,18ae4 <__multf3+0x2f6>
   18ae2:	9f62                	add	t5,t5,s8
   18ae4:	0107d613          	srli	a2,a5,0x10
   18ae8:	967a                	add	a2,a2,t5
   18aea:	6ac1                	lui	s5,0x10
   18aec:	ce32                	sw	a2,28(sp)
   18aee:	fffa8613          	addi	a2,s5,-1 # ffff <exit-0x95>
   18af2:	8ff1                	and	a5,a5,a2
   18af4:	00cefeb3          	and	t4,t4,a2
   18af8:	07c2                	slli	a5,a5,0x10
   18afa:	97f6                	add	a5,a5,t4
   18afc:	d23e                	sw	a5,36(sp)
   18afe:	47a6                	lw	a5,72(sp)
   18b00:	0107dd93          	srli	s11,a5,0x10
   18b04:	00c7fd33          	and	s10,a5,a2
   18b08:	02ad0633          	mul	a2,s10,a0
   18b0c:	03a90c33          	mul	s8,s2,s10
   18b10:	01065793          	srli	a5,a2,0x10
   18b14:	02ad8f33          	mul	t5,s11,a0
   18b18:	9f62                	add	t5,t5,s8
   18b1a:	97fa                	add	a5,a5,t5
   18b1c:	03b90eb3          	mul	t4,s2,s11
   18b20:	0187f363          	bgeu	a5,s8,18b26 <__multf3+0x338>
   18b24:	9ed6                	add	t4,t4,s5
   18b26:	0107df13          	srli	t5,a5,0x10
   18b2a:	6cc1                	lui	s9,0x10
   18b2c:	01df0e33          	add	t3,t5,t4
   18b30:	fffc8e93          	addi	t4,s9,-1 # ffff <exit-0x95>
   18b34:	01d7f7b3          	and	a5,a5,t4
   18b38:	01d67633          	and	a2,a2,t4
   18b3c:	07c2                	slli	a5,a5,0x10
   18b3e:	97b2                	add	a5,a5,a2
   18b40:	5662                	lw	a2,56(sp)
   18b42:	d472                	sw	t3,40(sp)
   18b44:	d63e                	sw	a5,44(sp)
   18b46:	01065f13          	srli	t5,a2,0x10
   18b4a:	01d67633          	and	a2,a2,t4
   18b4e:	02660ab3          	mul	s5,a2,t1
   18b52:	026f0e33          	mul	t3,t5,t1
   18b56:	010ad793          	srli	a5,s5,0x10
   18b5a:	02c38eb3          	mul	t4,t2,a2
   18b5e:	9ef2                	add	t4,t4,t3
   18b60:	9ebe                	add	t4,t4,a5
   18b62:	03e38c33          	mul	s8,t2,t5
   18b66:	01cef363          	bgeu	t4,t3,18b6c <__multf3+0x37e>
   18b6a:	9c66                	add	s8,s8,s9
   18b6c:	47e2                	lw	a5,24(sp)
   18b6e:	96de                	add	a3,a3,s7
   18b70:	0106b833          	sltu	a6,a3,a6
   18b74:	010edc93          	srli	s9,t4,0x10
   18b78:	6e41                	lui	t3,0x10
   18b7a:	9c66                	add	s8,s8,s9
   18b7c:	fffe0c93          	addi	s9,t3,-1 # ffff <exit-0x95>
   18b80:	01078e33          	add	t3,a5,a6
   18b84:	013687b3          	add	a5,a3,s3
   18b88:	9e5a                	add	t3,t3,s6
   18b8a:	00d7b6b3          	sltu	a3,a5,a3
   18b8e:	cc3e                	sw	a5,24(sp)
   18b90:	d2be                	sw	a5,100(sp)
   18b92:	5792                	lw	a5,36(sp)
   18b94:	9a72                	add	s4,s4,t3
   18b96:	96d2                	add	a3,a3,s4
   18b98:	01ca39b3          	sltu	s3,s4,t3
   18b9c:	0146ba33          	sltu	s4,a3,s4
   18ba0:	010e3e33          	sltu	t3,t3,a6
   18ba4:	00f68833          	add	a6,a3,a5
   18ba8:	47f2                	lw	a5,28(sp)
   18baa:	0149e9b3          	or	s3,s3,s4
   18bae:	9e4e                	add	t3,t3,s3
   18bb0:	00fe09b3          	add	s3,t3,a5
   18bb4:	57b2                	lw	a5,44(sp)
   18bb6:	5a22                	lw	s4,40(sp)
   18bb8:	00d836b3          	sltu	a3,a6,a3
   18bbc:	019efeb3          	and	t4,t4,s9
   18bc0:	96ce                	add	a3,a3,s3
   18bc2:	97c2                	add	a5,a5,a6
   18bc4:	0ec2                	slli	t4,t4,0x10
   18bc6:	019afab3          	and	s5,s5,s9
   18bca:	9a36                	add	s4,s4,a3
   18bcc:	0107b833          	sltu	a6,a5,a6
   18bd0:	9ed6                	add	t4,t4,s5
   18bd2:	9ebe                	add	t4,t4,a5
   18bd4:	9852                	add	a6,a6,s4
   18bd6:	9c42                	add	s8,s8,a6
   18bd8:	00feb7b3          	sltu	a5,t4,a5
   18bdc:	ce76                	sw	t4,28(sp)
   18bde:	d4f6                	sw	t4,104(sp)
   18be0:	4eb6                	lw	t4,76(sp)
   18be2:	01c9be33          	sltu	t3,s3,t3
   18be6:	97e2                	add	a5,a5,s8
   18be8:	0136b9b3          	sltu	s3,a3,s3
   18bec:	00da36b3          	sltu	a3,s4,a3
   18bf0:	01483a33          	sltu	s4,a6,s4
   18bf4:	013e69b3          	or	s3,t3,s3
   18bf8:	0146e6b3          	or	a3,a3,s4
   18bfc:	010c3833          	sltu	a6,s8,a6
   18c00:	0187bc33          	sltu	s8,a5,s8
   18c04:	96ce                	add	a3,a3,s3
   18c06:	01886833          	or	a6,a6,s8
   18c0a:	010ed993          	srli	s3,t4,0x10
   18c0e:	019efeb3          	and	t4,t4,s9
   18c12:	03d90a33          	mul	s4,s2,t4
   18c16:	00d80e33          	add	t3,a6,a3
   18c1a:	02ae86b3          	mul	a3,t4,a0
   18c1e:	02a98533          	mul	a0,s3,a0
   18c22:	0106d813          	srli	a6,a3,0x10
   18c26:	9552                	add	a0,a0,s4
   18c28:	982a                	add	a6,a6,a0
   18c2a:	03390933          	mul	s2,s2,s3
   18c2e:	01487463          	bgeu	a6,s4,18c36 <__multf3+0x448>
   18c32:	6541                	lui	a0,0x10
   18c34:	992a                	add	s2,s2,a0
   18c36:	01085513          	srli	a0,a6,0x10
   18c3a:	954a                	add	a0,a0,s2
   18c3c:	5a72                	lw	s4,60(sp)
   18c3e:	6ac1                	lui	s5,0x10
   18c40:	d22a                	sw	a0,36(sp)
   18c42:	fffa8513          	addi	a0,s5,-1 # ffff <exit-0x95>
   18c46:	00a87833          	and	a6,a6,a0
   18c4a:	010a5913          	srli	s2,s4,0x10
   18c4e:	0842                	slli	a6,a6,0x10
   18c50:	8ee9                	and	a3,a3,a0
   18c52:	00aa7a33          	and	s4,s4,a0
   18c56:	96c2                	add	a3,a3,a6
   18c58:	026a0533          	mul	a0,s4,t1
   18c5c:	d436                	sw	a3,40(sp)
   18c5e:	02690333          	mul	t1,s2,t1
   18c62:	01055693          	srli	a3,a0,0x10
   18c66:	03238833          	mul	a6,t2,s2
   18c6a:	034383b3          	mul	t2,t2,s4
   18c6e:	939a                	add	t2,t2,t1
   18c70:	969e                	add	a3,a3,t2
   18c72:	0066f363          	bgeu	a3,t1,18c78 <__multf3+0x48a>
   18c76:	9856                	add	a6,a6,s5
   18c78:	0106da93          	srli	s5,a3,0x10
   18c7c:	6bc1                	lui	s7,0x10
   18c7e:	9ac2                	add	s5,s5,a6
   18c80:	fffb8813          	addi	a6,s7,-1 # ffff <exit-0x95>
   18c84:	01057533          	and	a0,a0,a6
   18c88:	0106f6b3          	and	a3,a3,a6
   18c8c:	03a28333          	mul	t1,t0,s10
   18c90:	06c2                	slli	a3,a3,0x10
   18c92:	96aa                	add	a3,a3,a0
   18c94:	03a58833          	mul	a6,a1,s10
   18c98:	02bd83b3          	mul	t2,s11,a1
   18c9c:	01085513          	srli	a0,a6,0x10
   18ca0:	939a                	add	t2,t2,t1
   18ca2:	951e                	add	a0,a0,t2
   18ca4:	03b28b33          	mul	s6,t0,s11
   18ca8:	00657363          	bgeu	a0,t1,18cae <__multf3+0x4c0>
   18cac:	9b5e                	add	s6,s6,s7
   18cae:	6c41                	lui	s8,0x10
   18cb0:	fffc0313          	addi	t1,s8,-1 # ffff <exit-0x95>
   18cb4:	01055393          	srli	t2,a0,0x10
   18cb8:	00657533          	and	a0,a0,t1
   18cbc:	00687833          	and	a6,a6,t1
   18cc0:	0542                	slli	a0,a0,0x10
   18cc2:	93da                	add	t2,t2,s6
   18cc4:	02cf8333          	mul	t1,t6,a2
   18cc8:	9542                	add	a0,a0,a6
   18cca:	031f0b33          	mul	s6,t5,a7
   18cce:	02c88833          	mul	a6,a7,a2
   18cd2:	935a                	add	t1,t1,s6
   18cd4:	01085c93          	srli	s9,a6,0x10
   18cd8:	9366                	add	t1,t1,s9
   18cda:	03ef8bb3          	mul	s7,t6,t5
   18cde:	01637363          	bgeu	t1,s6,18ce4 <__multf3+0x4f6>
   18ce2:	9be2                	add	s7,s7,s8
   18ce4:	01035b13          	srli	s6,t1,0x10
   18ce8:	9b5e                	add	s6,s6,s7
   18cea:	6bc1                	lui	s7,0x10
   18cec:	fffb8c13          	addi	s8,s7,-1 # ffff <exit-0x95>
   18cf0:	01837333          	and	t1,t1,s8
   18cf4:	0342                	slli	t1,t1,0x10
   18cf6:	01887833          	and	a6,a6,s8
   18cfa:	981a                	add	a6,a6,t1
   18cfc:	5322                	lw	t1,40(sp)
   18cfe:	5c12                	lw	s8,36(sp)
   18d00:	933e                	add	t1,t1,a5
   18d02:	9c72                	add	s8,s8,t3
   18d04:	00f337b3          	sltu	a5,t1,a5
   18d08:	97e2                	add	a5,a5,s8
   18d0a:	969a                	add	a3,a3,t1
   18d0c:	9abe                	add	s5,s5,a5
   18d0e:	0066b333          	sltu	t1,a3,t1
   18d12:	9356                	add	t1,t1,s5
   18d14:	9536                	add	a0,a0,a3
   18d16:	939a                	add	t2,t2,t1
   18d18:	00d536b3          	sltu	a3,a0,a3
   18d1c:	969e                	add	a3,a3,t2
   18d1e:	982a                	add	a6,a6,a0
   18d20:	01cc3e33          	sltu	t3,s8,t3
   18d24:	9b36                	add	s6,s6,a3
   18d26:	0187bc33          	sltu	s8,a5,s8
   18d2a:	00a83533          	sltu	a0,a6,a0
   18d2e:	00fab7b3          	sltu	a5,s5,a5
   18d32:	01533ab3          	sltu	s5,t1,s5
   18d36:	018e6c33          	or	s8,t3,s8
   18d3a:	0157e7b3          	or	a5,a5,s5
   18d3e:	0063b333          	sltu	t1,t2,t1
   18d42:	955a                	add	a0,a0,s6
   18d44:	0076b3b3          	sltu	t2,a3,t2
   18d48:	97e2                	add	a5,a5,s8
   18d4a:	00736333          	or	t1,t1,t2
   18d4e:	00db36b3          	sltu	a3,s6,a3
   18d52:	01653b33          	sltu	s6,a0,s6
   18d56:	00f303b3          	add	t2,t1,a5
   18d5a:	0166e6b3          	or	a3,a3,s6
   18d5e:	00768333          	add	t1,a3,t2
   18d62:	03af0e33          	mul	t3,t5,s10
   18d66:	d6c2                	sw	a6,108(sp)
   18d68:	03a606b3          	mul	a3,a2,s10
   18d6c:	02cd8ab3          	mul	s5,s11,a2
   18d70:	0106d793          	srli	a5,a3,0x10
   18d74:	9af2                	add	s5,s5,t3
   18d76:	97d6                	add	a5,a5,s5
   18d78:	03ed83b3          	mul	t2,s11,t5
   18d7c:	01c7f363          	bgeu	a5,t3,18d82 <__multf3+0x594>
   18d80:	93de                	add	t2,t2,s7
   18d82:	0107de13          	srli	t3,a5,0x10
   18d86:	6ac1                	lui	s5,0x10
   18d88:	9e1e                	add	t3,t3,t2
   18d8a:	fffa8393          	addi	t2,s5,-1 # ffff <exit-0x95>
   18d8e:	0077f7b3          	and	a5,a5,t2
   18d92:	0076f6b3          	and	a3,a3,t2
   18d96:	07c2                	slli	a5,a5,0x10
   18d98:	03d28b33          	mul	s6,t0,t4
   18d9c:	97b6                	add	a5,a5,a3
   18d9e:	02be86b3          	mul	a3,t4,a1
   18da2:	02b985b3          	mul	a1,s3,a1
   18da6:	0106d393          	srli	t2,a3,0x10
   18daa:	95da                	add	a1,a1,s6
   18dac:	93ae                	add	t2,t2,a1
   18dae:	033282b3          	mul	t0,t0,s3
   18db2:	0163f363          	bgeu	t2,s6,18db8 <__multf3+0x5ca>
   18db6:	92d6                	add	t0,t0,s5
   18db8:	0103d593          	srli	a1,t2,0x10
   18dbc:	6b41                	lui	s6,0x10
   18dbe:	92ae                	add	t0,t0,a1
   18dc0:	fffb0593          	addi	a1,s6,-1 # ffff <exit-0x95>
   18dc4:	8eed                	and	a3,a3,a1
   18dc6:	00b3f3b3          	and	t2,t2,a1
   18dca:	03c2                	slli	t2,t2,0x10
   18dcc:	031a05b3          	mul	a1,s4,a7
   18dd0:	93b6                	add	t2,t2,a3
   18dd2:	031908b3          	mul	a7,s2,a7
   18dd6:	0105d693          	srli	a3,a1,0x10
   18dda:	032f8ab3          	mul	s5,t6,s2
   18dde:	034f8fb3          	mul	t6,t6,s4
   18de2:	9fc6                	add	t6,t6,a7
   18de4:	96fe                	add	a3,a3,t6
   18de6:	0116f363          	bgeu	a3,a7,18dec <__multf3+0x5fe>
   18dea:	9ada                	add	s5,s5,s6
   18dec:	0106df93          	srli	t6,a3,0x10
   18df0:	68c1                	lui	a7,0x10
   18df2:	9fd6                	add	t6,t6,s5
   18df4:	fff88a93          	addi	s5,a7,-1 # ffff <exit-0x95>
   18df8:	0156f6b3          	and	a3,a3,s5
   18dfc:	0155f5b3          	and	a1,a1,s5
   18e00:	06c2                	slli	a3,a3,0x10
   18e02:	03df0ab3          	mul	s5,t5,t4
   18e06:	96ae                	add	a3,a3,a1
   18e08:	03d605b3          	mul	a1,a2,t4
   18e0c:	02c98633          	mul	a2,s3,a2
   18e10:	01560b33          	add	s6,a2,s5
   18e14:	0105d613          	srli	a2,a1,0x10
   18e18:	965a                	add	a2,a2,s6
   18e1a:	033f0f33          	mul	t5,t5,s3
   18e1e:	01567363          	bgeu	a2,s5,18e24 <__multf3+0x636>
   18e22:	9f46                	add	t5,t5,a7
   18e24:	6ac1                	lui	s5,0x10
   18e26:	01065893          	srli	a7,a2,0x10
   18e2a:	fffa8b13          	addi	s6,s5,-1 # ffff <exit-0x95>
   18e2e:	9f46                	add	t5,t5,a7
   18e30:	016678b3          	and	a7,a2,s6
   18e34:	0165f5b3          	and	a1,a1,s6
   18e38:	08c2                	slli	a7,a7,0x10
   18e3a:	03aa0633          	mul	a2,s4,s10
   18e3e:	98ae                	add	a7,a7,a1
   18e40:	03a90bb3          	mul	s7,s2,s10
   18e44:	01065c13          	srli	s8,a2,0x10
   18e48:	034d85b3          	mul	a1,s11,s4
   18e4c:	95de                	add	a1,a1,s7
   18e4e:	95e2                	add	a1,a1,s8
   18e50:	032d8b33          	mul	s6,s11,s2
   18e54:	0175f363          	bgeu	a1,s7,18e5a <__multf3+0x66c>
   18e58:	9b56                	add	s6,s6,s5
   18e5a:	97aa                	add	a5,a5,a0
   18e5c:	9e1a                	add	t3,t3,t1
   18e5e:	00a7b533          	sltu	a0,a5,a0
   18e62:	9572                	add	a0,a0,t3
   18e64:	93be                	add	t2,t2,a5
   18e66:	92aa                	add	t0,t0,a0
   18e68:	00f3b7b3          	sltu	a5,t2,a5
   18e6c:	9796                	add	a5,a5,t0
   18e6e:	006e3333          	sltu	t1,t3,t1
   18e72:	01c53e33          	sltu	t3,a0,t3
   18e76:	00a2b533          	sltu	a0,t0,a0
   18e7a:	0057b2b3          	sltu	t0,a5,t0
   18e7e:	00556533          	or	a0,a0,t0
   18e82:	01c36333          	or	t1,t1,t3
   18e86:	932a                	add	t1,t1,a0
   18e88:	03da0533          	mul	a0,s4,t4
   18e8c:	969e                	add	a3,a3,t2
   18e8e:	9fbe                	add	t6,t6,a5
   18e90:	0105da93          	srli	s5,a1,0x10
   18e94:	d8b6                	sw	a3,112(sp)
   18e96:	0076b6b3          	sltu	a3,a3,t2
   18e9a:	96fe                	add	a3,a3,t6
   18e9c:	9ada                	add	s5,s5,s6
   18e9e:	6b41                	lui	s6,0x10
   18ea0:	fffb0b93          	addi	s7,s6,-1 # ffff <exit-0x95>
   18ea4:	03d90eb3          	mul	t4,s2,t4
   18ea8:	00ffb7b3          	sltu	a5,t6,a5
   18eac:	01f6bfb3          	sltu	t6,a3,t6
   18eb0:	0175f5b3          	and	a1,a1,s7
   18eb4:	01f7e7b3          	or	a5,a5,t6
   18eb8:	98b6                	add	a7,a7,a3
   18eba:	05c2                	slli	a1,a1,0x10
   18ebc:	979a                	add	a5,a5,t1
   18ebe:	01767633          	and	a2,a2,s7
   18ec2:	9f3e                	add	t5,t5,a5
   18ec4:	03298933          	mul	s2,s3,s2
   18ec8:	962e                	add	a2,a2,a1
   18eca:	00d8b6b3          	sltu	a3,a7,a3
   18ece:	96fa                	add	a3,a3,t5
   18ed0:	9646                	add	a2,a2,a7
   18ed2:	00ff37b3          	sltu	a5,t5,a5
   18ed6:	9ab6                	add	s5,s5,a3
   18ed8:	01e6bf33          	sltu	t5,a3,t5
   18edc:	dab2                	sw	a2,116(sp)
   18ede:	01163633          	sltu	a2,a2,a7
   18ee2:	034989b3          	mul	s3,s3,s4
   18ee6:	01e7e5b3          	or	a1,a5,t5
   18eea:	9656                	add	a2,a2,s5
   18eec:	01055793          	srli	a5,a0,0x10
   18ef0:	00dab6b3          	sltu	a3,s5,a3
   18ef4:	01563ab3          	sltu	s5,a2,s5
   18ef8:	0156e6b3          	or	a3,a3,s5
   18efc:	99f6                	add	s3,s3,t4
   18efe:	97ce                	add	a5,a5,s3
   18f00:	01d7f363          	bgeu	a5,t4,18f06 <__multf3+0x718>
   18f04:	995a                	add	s2,s2,s6
   18f06:	0107d893          	srli	a7,a5,0x10
   18f0a:	95c6                	add	a1,a1,a7
   18f0c:	68c1                	lui	a7,0x10
   18f0e:	18fd                	addi	a7,a7,-1 # ffff <exit-0x95>
   18f10:	0117f7b3          	and	a5,a5,a7
   18f14:	07c2                	slli	a5,a5,0x10
   18f16:	01157533          	and	a0,a0,a7
   18f1a:	97aa                	add	a5,a5,a0
   18f1c:	97b2                	add	a5,a5,a2
   18f1e:	96ae                	add	a3,a3,a1
   18f20:	00c7b633          	sltu	a2,a5,a2
   18f24:	9636                	add	a2,a2,a3
   18f26:	dcbe                	sw	a5,120(sp)
   18f28:	46e2                	lw	a3,24(sp)
   18f2a:	5782                	lw	a5,32(sp)
   18f2c:	964a                	add	a2,a2,s2
   18f2e:	0836                	slli	a6,a6,0xd
   18f30:	8fd5                	or	a5,a5,a3
   18f32:	46f2                	lw	a3,28(sp)
   18f34:	deb2                	sw	a2,124(sp)
   18f36:	188c                	addi	a1,sp,112
   18f38:	8fd5                	or	a5,a5,a3
   18f3a:	00f86833          	or	a6,a6,a5
   18f3e:	109c                	addi	a5,sp,96
   18f40:	47d4                	lw	a3,12(a5)
   18f42:	4b90                	lw	a2,16(a5)
   18f44:	82cd                	srli	a3,a3,0x13
   18f46:	0636                	slli	a2,a2,0xd
   18f48:	8ed1                	or	a3,a3,a2
   18f4a:	c394                	sw	a3,0(a5)
   18f4c:	0791                	addi	a5,a5,4
   18f4e:	fef599e3          	bne	a1,a5,18f40 <__multf3+0x752>
   18f52:	5786                	lw	a5,96(sp)
   18f54:	01003833          	snez	a6,a6
   18f58:	56b6                	lw	a3,108(sp)
   18f5a:	00f86833          	or	a6,a6,a5
   18f5e:	57a6                	lw	a5,104(sp)
   18f60:	ceb6                	sw	a3,92(sp)
   18f62:	c8c2                	sw	a6,80(sp)
   18f64:	ccbe                	sw	a5,88(sp)
   18f66:	5796                	lw	a5,100(sp)
   18f68:	cabe                	sw	a5,84(sp)
   18f6a:	00b69793          	slli	a5,a3,0xb
   18f6e:	0207d863          	bgez	a5,18f9e <__multf3+0x7b0>
   18f72:	087e                	slli	a6,a6,0x1f
   18f74:	089c                	addi	a5,sp,80
   18f76:	08e8                	addi	a0,sp,92
   18f78:	4390                	lw	a2,0(a5)
   18f7a:	43cc                	lw	a1,4(a5)
   18f7c:	8205                	srli	a2,a2,0x1
   18f7e:	05fe                	slli	a1,a1,0x1f
   18f80:	8e4d                	or	a2,a2,a1
   18f82:	c390                	sw	a2,0(a5)
   18f84:	0791                	addi	a5,a5,4
   18f86:	fef519e3          	bne	a0,a5,18f78 <__multf3+0x78a>
   18f8a:	47c6                	lw	a5,80(sp)
   18f8c:	01003833          	snez	a6,a6
   18f90:	8285                	srli	a3,a3,0x1
   18f92:	0107e7b3          	or	a5,a5,a6
   18f96:	c8be                	sw	a5,80(sp)
   18f98:	47c2                	lw	a5,16(sp)
   18f9a:	ceb6                	sw	a3,92(sp)
   18f9c:	ca3e                	sw	a5,20(sp)
   18f9e:	47d2                	lw	a5,20(sp)
   18fa0:	c83e                	sw	a5,16(sp)
   18fa2:	aa41                	j	19132 <__multf3+0x944>
   18fa4:	4901                	li	s2,0
   18fa6:	4c05                	li	s8,1
   18fa8:	b8d9                	j	1887e <__multf3+0x90>
   18faa:	4c09                	li	s8,2
   18fac:	b8c9                	j	1887e <__multf3+0x90>
   18fae:	017ae7b3          	or	a5,s5,s7
   18fb2:	0167e7b3          	or	a5,a5,s6
   18fb6:	8fc9                	or	a5,a5,a0
   18fb8:	10078263          	beqz	a5,190bc <__multf3+0x8ce>
   18fbc:	c93d                	beqz	a0,19032 <__multf3+0x844>
   18fbe:	1dd010ef          	jal	1a99a <__clzsi2>
   18fc2:	ff450693          	addi	a3,a0,-12 # fff4 <exit-0xa0>
   18fc6:	4056d793          	srai	a5,a3,0x5
   18fca:	8afd                	andi	a3,a3,31
   18fcc:	cac9                	beqz	a3,1905e <__multf3+0x870>
   18fce:	5671                	li	a2,-4
   18fd0:	02c78633          	mul	a2,a5,a2
   18fd4:	02000813          	li	a6,32
   18fd8:	04010313          	addi	t1,sp,64
   18fdc:	40d80833          	sub	a6,a6,a3
   18fe0:	00c60713          	addi	a4,a2,12
   18fe4:	971a                	add	a4,a4,t1
   18fe6:	40c00633          	neg	a2,a2
   18fea:	08e31a63          	bne	t1,a4,1907e <__multf3+0x890>
   18fee:	fff78713          	addi	a4,a5,-1
   18ff2:	078a                	slli	a5,a5,0x2
   18ff4:	1810                	addi	a2,sp,48
   18ff6:	05078793          	addi	a5,a5,80
   18ffa:	97b2                	add	a5,a5,a2
   18ffc:	4606                	lw	a2,64(sp)
   18ffe:	00d616b3          	sll	a3,a2,a3
   19002:	fcd7a023          	sw	a3,-64(a5)
   19006:	00170793          	addi	a5,a4,1
   1900a:	078a                	slli	a5,a5,0x2
   1900c:	46a1                	li	a3,8
   1900e:	0098                	addi	a4,sp,64
   19010:	00d7e863          	bltu	a5,a3,19020 <__multf3+0x832>
   19014:	00072023          	sw	zero,0(a4)
   19018:	00072223          	sw	zero,4(a4)
   1901c:	17e1                	addi	a5,a5,-8
   1901e:	00b8                	addi	a4,sp,72
   19020:	4691                	li	a3,4
   19022:	00d7e463          	bltu	a5,a3,1902a <__multf3+0x83c>
   19026:	00072023          	sw	zero,0(a4)
   1902a:	77f1                	lui	a5,0xffffc
   1902c:	07c5                	addi	a5,a5,17 # ffffc011 <__BSS_END__+0xfffdf345>
   1902e:	8f89                	sub	a5,a5,a0
   19030:	b25d                	j	189d6 <__multf3+0x1e8>
   19032:	000b0863          	beqz	s6,19042 <__multf3+0x854>
   19036:	855a                	mv	a0,s6
   19038:	163010ef          	jal	1a99a <__clzsi2>
   1903c:	02050513          	addi	a0,a0,32
   19040:	b749                	j	18fc2 <__multf3+0x7d4>
   19042:	000b8863          	beqz	s7,19052 <__multf3+0x864>
   19046:	855e                	mv	a0,s7
   19048:	153010ef          	jal	1a99a <__clzsi2>
   1904c:	04050513          	addi	a0,a0,64
   19050:	bf8d                	j	18fc2 <__multf3+0x7d4>
   19052:	8556                	mv	a0,s5
   19054:	147010ef          	jal	1a99a <__clzsi2>
   19058:	06050513          	addi	a0,a0,96
   1905c:	b79d                	j	18fc2 <__multf3+0x7d4>
   1905e:	5671                	li	a2,-4
   19060:	02c78633          	mul	a2,a5,a2
   19064:	00f8                	addi	a4,sp,76
   19066:	468d                	li	a3,3
   19068:	00c705b3          	add	a1,a4,a2
   1906c:	418c                	lw	a1,0(a1)
   1906e:	16fd                	addi	a3,a3,-1
   19070:	1771                	addi	a4,a4,-4
   19072:	c34c                	sw	a1,4(a4)
   19074:	fef6dae3          	bge	a3,a5,19068 <__multf3+0x87a>
   19078:	fff78713          	addi	a4,a5,-1
   1907c:	b769                	j	19006 <__multf3+0x818>
   1907e:	430c                	lw	a1,0(a4)
   19080:	ffc72883          	lw	a7,-4(a4)
   19084:	00c70e33          	add	t3,a4,a2
   19088:	00d595b3          	sll	a1,a1,a3
   1908c:	0108d8b3          	srl	a7,a7,a6
   19090:	0115e5b3          	or	a1,a1,a7
   19094:	00be2023          	sw	a1,0(t3)
   19098:	1771                	addi	a4,a4,-4
   1909a:	bf81                	j	18fea <__multf3+0x7fc>
   1909c:	017aeab3          	or	s5,s5,s7
   190a0:	016aeab3          	or	s5,s5,s6
   190a4:	00aaeab3          	or	s5,s5,a0
   190a8:	4689                	li	a3,2
   190aa:	920a87e3          	beqz	s5,189d8 <__multf3+0x1ea>
   190ae:	0542                	slli	a0,a0,0x10
   190b0:	8541                	srai	a0,a0,0x10
   190b2:	468d                	li	a3,3
   190b4:	920542e3          	bltz	a0,189d8 <__multf3+0x1ea>
   190b8:	4441                	li	s0,16
   190ba:	ba39                	j	189d8 <__multf3+0x1ea>
   190bc:	4781                	li	a5,0
   190be:	4685                	li	a3,1
   190c0:	ba21                	j	189d8 <__multf3+0x1ea>
   190c2:	4605                	li	a2,1
   190c4:	00f617b3          	sll	a5,a2,a5
   190c8:	5307f613          	andi	a2,a5,1328
   190cc:	e231                	bnez	a2,19110 <__multf3+0x922>
   190ce:	0887f613          	andi	a2,a5,136
   190d2:	e60d                	bnez	a2,190fc <__multf3+0x90e>
   190d4:	2407f793          	andi	a5,a5,576
   190d8:	920783e3          	beqz	a5,189fe <__multf3+0x210>
   190dc:	4441                	li	s0,16
   190de:	67a1                	lui	a5,0x8
   190e0:	cebe                	sw	a5,92(sp)
   190e2:	cc82                	sw	zero,88(sp)
   190e4:	ca82                	sw	zero,84(sp)
   190e6:	c882                	sw	zero,80(sp)
   190e8:	17fd                	addi	a5,a5,-1 # 7fff <exit-0x8095>
   190ea:	4701                	li	a4,0
   190ec:	a8e1                	j	191c4 <__multf3+0x9d6>
   190ee:	473d                	li	a4,15
   190f0:	fee787e3          	beq	a5,a4,190de <__multf3+0x8f0>
   190f4:	462d                	li	a2,11
   190f6:	874e                	mv	a4,s3
   190f8:	00c79c63          	bne	a5,a2,19110 <__multf3+0x922>
   190fc:	8752                	mv	a4,s4
   190fe:	4786                	lw	a5,64(sp)
   19100:	8c36                	mv	s8,a3
   19102:	c8be                	sw	a5,80(sp)
   19104:	4796                	lw	a5,68(sp)
   19106:	cabe                	sw	a5,84(sp)
   19108:	47a6                	lw	a5,72(sp)
   1910a:	ccbe                	sw	a5,88(sp)
   1910c:	47b6                	lw	a5,76(sp)
   1910e:	a801                	j	1911e <__multf3+0x930>
   19110:	57c2                	lw	a5,48(sp)
   19112:	c8be                	sw	a5,80(sp)
   19114:	57d2                	lw	a5,52(sp)
   19116:	cabe                	sw	a5,84(sp)
   19118:	57e2                	lw	a5,56(sp)
   1911a:	ccbe                	sw	a5,88(sp)
   1911c:	57f2                	lw	a5,60(sp)
   1911e:	cebe                	sw	a5,92(sp)
   19120:	4789                	li	a5,2
   19122:	34fc0d63          	beq	s8,a5,1947c <__multf3+0xc8e>
   19126:	478d                	li	a5,3
   19128:	fafc0be3          	beq	s8,a5,190de <__multf3+0x8f0>
   1912c:	4785                	li	a5,1
   1912e:	34fc0263          	beq	s8,a5,19472 <__multf3+0xc84>
   19132:	46c2                	lw	a3,16(sp)
   19134:	6791                	lui	a5,0x4
   19136:	17fd                	addi	a5,a5,-1 # 3fff <exit-0xc095>
   19138:	97b6                	add	a5,a5,a3
   1913a:	10f05763          	blez	a5,19248 <__multf3+0xa5a>
   1913e:	4646                	lw	a2,80(sp)
   19140:	00767693          	andi	a3,a2,7
   19144:	c2a1                	beqz	a3,19184 <__multf3+0x996>
   19146:	4509                	li	a0,2
   19148:	46d6                	lw	a3,84(sp)
   1914a:	45f6                	lw	a1,92(sp)
   1914c:	0ca48563          	beq	s1,a0,19216 <__multf3+0xa28>
   19150:	450d                	li	a0,3
   19152:	0aa48c63          	beq	s1,a0,1920a <__multf3+0xa1c>
   19156:	e48d                	bnez	s1,19180 <__multf3+0x992>
   19158:	00f67513          	andi	a0,a2,15
   1915c:	4811                	li	a6,4
   1915e:	03050163          	beq	a0,a6,19180 <__multf3+0x992>
   19162:	0611                	addi	a2,a2,4
   19164:	c8b2                	sw	a2,80(sp)
   19166:	00463613          	sltiu	a2,a2,4
   1916a:	96b2                	add	a3,a3,a2
   1916c:	cab6                	sw	a3,84(sp)
   1916e:	00c6b6b3          	sltu	a3,a3,a2
   19172:	4666                	lw	a2,88(sp)
   19174:	96b2                	add	a3,a3,a2
   19176:	ccb6                	sw	a3,88(sp)
   19178:	00c6b6b3          	sltu	a3,a3,a2
   1917c:	96ae                	add	a3,a3,a1
   1917e:	ceb6                	sw	a3,92(sp)
   19180:	00146413          	ori	s0,s0,1
   19184:	46f6                	lw	a3,92(sp)
   19186:	00b69613          	slli	a2,a3,0xb
   1918a:	00065a63          	bgez	a2,1919e <__multf3+0x9b0>
   1918e:	fff007b7          	lui	a5,0xfff00
   19192:	17fd                	addi	a5,a5,-1 # ffefffff <__BSS_END__+0xffee3333>
   19194:	8efd                	and	a3,a3,a5
   19196:	ceb6                	sw	a3,92(sp)
   19198:	46c2                	lw	a3,16(sp)
   1919a:	6791                	lui	a5,0x4
   1919c:	97b6                	add	a5,a5,a3
   1919e:	0894                	addi	a3,sp,80
   191a0:	08e8                	addi	a0,sp,92
   191a2:	4290                	lw	a2,0(a3)
   191a4:	42cc                	lw	a1,4(a3)
   191a6:	820d                	srli	a2,a2,0x3
   191a8:	05f6                	slli	a1,a1,0x1d
   191aa:	8e4d                	or	a2,a2,a1
   191ac:	c290                	sw	a2,0(a3)
   191ae:	0691                	addi	a3,a3,4
   191b0:	fed519e3          	bne	a0,a3,191a2 <__multf3+0x9b4>
   191b4:	6621                	lui	a2,0x8
   191b6:	1679                	addi	a2,a2,-2 # 7ffe <exit-0x8096>
   191b8:	46f6                	lw	a3,92(sp)
   191ba:	65a1                	lui	a1,0x8
   191bc:	04f64f63          	blt	a2,a5,1921a <__multf3+0xa2c>
   191c0:	828d                	srli	a3,a3,0x3
   191c2:	ceb6                	sw	a3,92(sp)
   191c4:	4576                	lw	a0,92(sp)
   191c6:	073e                	slli	a4,a4,0xf
   191c8:	8f5d                	or	a4,a4,a5
   191ca:	06a11623          	sh	a0,108(sp)
   191ce:	06e11723          	sh	a4,110(sp)
   191d2:	45c6                	lw	a1,80(sp)
   191d4:	4656                	lw	a2,84(sp)
   191d6:	46e6                	lw	a3,88(sp)
   191d8:	57b6                	lw	a5,108(sp)
   191da:	c019                	beqz	s0,191e0 <__multf3+0x9f2>
   191dc:	00142073          	csrs	fflags,s0
   191e0:	4732                	lw	a4,12(sp)
   191e2:	50fa                	lw	ra,188(sp)
   191e4:	546a                	lw	s0,184(sp)
   191e6:	c30c                	sw	a1,0(a4)
   191e8:	c350                	sw	a2,4(a4)
   191ea:	c714                	sw	a3,8(a4)
   191ec:	c75c                	sw	a5,12(a4)
   191ee:	54da                	lw	s1,180(sp)
   191f0:	594a                	lw	s2,176(sp)
   191f2:	59ba                	lw	s3,172(sp)
   191f4:	5a2a                	lw	s4,168(sp)
   191f6:	5a9a                	lw	s5,164(sp)
   191f8:	5b0a                	lw	s6,160(sp)
   191fa:	4bfa                	lw	s7,156(sp)
   191fc:	4c6a                	lw	s8,152(sp)
   191fe:	4cda                	lw	s9,148(sp)
   19200:	4d4a                	lw	s10,144(sp)
   19202:	4dba                	lw	s11,140(sp)
   19204:	853a                	mv	a0,a4
   19206:	6129                	addi	sp,sp,192
   19208:	8082                	ret
   1920a:	fb3d                	bnez	a4,19180 <__multf3+0x992>
   1920c:	0621                	addi	a2,a2,8
   1920e:	c8b2                	sw	a2,80(sp)
   19210:	00863613          	sltiu	a2,a2,8
   19214:	bf99                	j	1916a <__multf3+0x97c>
   19216:	d72d                	beqz	a4,19180 <__multf3+0x992>
   19218:	bfd5                	j	1920c <__multf3+0xa1e>
   1921a:	4789                	li	a5,2
   1921c:	02f48463          	beq	s1,a5,19244 <__multf3+0xa56>
   19220:	478d                	li	a5,3
   19222:	00f48763          	beq	s1,a5,19230 <__multf3+0xa42>
   19226:	e491                	bnez	s1,19232 <__multf3+0xa44>
   19228:	4681                	li	a3,0
   1922a:	fff58793          	addi	a5,a1,-1 # 7fff <exit-0x8095>
   1922e:	a021                	j	19236 <__multf3+0xa48>
   19230:	df65                	beqz	a4,19228 <__multf3+0xa3a>
   19232:	56fd                	li	a3,-1
   19234:	87b2                	mv	a5,a2
   19236:	ceb6                	sw	a3,92(sp)
   19238:	ccb6                	sw	a3,88(sp)
   1923a:	cab6                	sw	a3,84(sp)
   1923c:	c8b6                	sw	a3,80(sp)
   1923e:	00546413          	ori	s0,s0,5
   19242:	b749                	j	191c4 <__multf3+0x9d6>
   19244:	f375                	bnez	a4,19228 <__multf3+0xa3a>
   19246:	b7f5                	j	19232 <__multf3+0xa44>
   19248:	4685                	li	a3,1
   1924a:	ebb9                	bnez	a5,192a0 <__multf3+0xab2>
   1924c:	4646                	lw	a2,80(sp)
   1924e:	46f6                	lw	a3,92(sp)
   19250:	00767593          	andi	a1,a2,7
   19254:	c1b1                	beqz	a1,19298 <__multf3+0xaaa>
   19256:	4809                	li	a6,2
   19258:	45d6                	lw	a1,84(sp)
   1925a:	4566                	lw	a0,88(sp)
   1925c:	00146413          	ori	s0,s0,1
   19260:	03048b63          	beq	s1,a6,19296 <__multf3+0xaa8>
   19264:	480d                	li	a6,3
   19266:	03048363          	beq	s1,a6,1928c <__multf3+0xa9e>
   1926a:	e49d                	bnez	s1,19298 <__multf3+0xaaa>
   1926c:	00f67813          	andi	a6,a2,15
   19270:	4891                	li	a7,4
   19272:	03180363          	beq	a6,a7,19298 <__multf3+0xaaa>
   19276:	0611                	addi	a2,a2,4
   19278:	00463613          	sltiu	a2,a2,4
   1927c:	95b2                	add	a1,a1,a2
   1927e:	00c5b5b3          	sltu	a1,a1,a2
   19282:	952e                	add	a0,a0,a1
   19284:	00b53533          	sltu	a0,a0,a1
   19288:	96aa                	add	a3,a3,a0
   1928a:	a039                	j	19298 <__multf3+0xaaa>
   1928c:	e711                	bnez	a4,19298 <__multf3+0xaaa>
   1928e:	0621                	addi	a2,a2,8
   19290:	00863613          	sltiu	a2,a2,8
   19294:	b7e5                	j	1927c <__multf3+0xa8e>
   19296:	ff65                	bnez	a4,1928e <__multf3+0xaa0>
   19298:	82d1                	srli	a3,a3,0x14
   1929a:	0016c693          	xori	a3,a3,1
   1929e:	8a85                	andi	a3,a3,1
   192a0:	4605                	li	a2,1
   192a2:	40f607b3          	sub	a5,a2,a5
   192a6:	07400593          	li	a1,116
   192aa:	18f5c163          	blt	a1,a5,1942c <__multf3+0xc3e>
   192ae:	0890                	addi	a2,sp,80
   192b0:	4057d593          	srai	a1,a5,0x5
   192b4:	01f7f513          	andi	a0,a5,31
   192b8:	88b2                	mv	a7,a2
   192ba:	4781                	li	a5,0
   192bc:	4801                	li	a6,0
   192be:	02b81763          	bne	a6,a1,192ec <__multf3+0xafe>
   192c2:	480d                	li	a6,3
   192c4:	40b80833          	sub	a6,a6,a1
   192c8:	00259893          	slli	a7,a1,0x2
   192cc:	e51d                	bnez	a0,192fa <__multf3+0xb0c>
   192ce:	8332                	mv	t1,a2
   192d0:	01130e33          	add	t3,t1,a7
   192d4:	000e2e03          	lw	t3,0(t3)
   192d8:	0505                	addi	a0,a0,1
   192da:	0311                	addi	t1,t1,4
   192dc:	ffc32e23          	sw	t3,-4(t1)
   192e0:	fea858e3          	bge	a6,a0,192d0 <__multf3+0xae2>
   192e4:	4511                	li	a0,4
   192e6:	40b505b3          	sub	a1,a0,a1
   192ea:	a8a1                	j	19342 <__multf3+0xb54>
   192ec:	0008a303          	lw	t1,0(a7)
   192f0:	0805                	addi	a6,a6,1
   192f2:	0891                	addi	a7,a7,4
   192f4:	0067e7b3          	or	a5,a5,t1
   192f8:	b7d9                	j	192be <__multf3+0xad0>
   192fa:	05088313          	addi	t1,a7,80
   192fe:	03010e13          	addi	t3,sp,48
   19302:	9372                	add	t1,t1,t3
   19304:	fd032303          	lw	t1,-48(t1)
   19308:	02000e93          	li	t4,32
   1930c:	40ae8eb3          	sub	t4,t4,a0
   19310:	01d31333          	sll	t1,t1,t4
   19314:	0067e7b3          	or	a5,a5,t1
   19318:	4f01                	li	t5,0
   1931a:	01160333          	add	t1,a2,a7
   1931e:	411008b3          	neg	a7,a7
   19322:	0b0f4d63          	blt	t5,a6,193dc <__multf3+0xbee>
   19326:	4891                	li	a7,4
   19328:	080a                	slli	a6,a6,0x2
   1932a:	40b885b3          	sub	a1,a7,a1
   1932e:	05080813          	addi	a6,a6,80
   19332:	03010893          	addi	a7,sp,48
   19336:	9846                	add	a6,a6,a7
   19338:	48f6                	lw	a7,92(sp)
   1933a:	00a8d533          	srl	a0,a7,a0
   1933e:	fca82823          	sw	a0,-48(a6)
   19342:	4511                	li	a0,4
   19344:	8d0d                	sub	a0,a0,a1
   19346:	050a                	slli	a0,a0,0x2
   19348:	058a                	slli	a1,a1,0x2
   1934a:	4821                	li	a6,8
   1934c:	95b2                	add	a1,a1,a2
   1934e:	01056863          	bltu	a0,a6,1935e <__multf3+0xb70>
   19352:	0005a023          	sw	zero,0(a1)
   19356:	0005a223          	sw	zero,4(a1)
   1935a:	1561                	addi	a0,a0,-8
   1935c:	05a1                	addi	a1,a1,8
   1935e:	4811                	li	a6,4
   19360:	01056463          	bltu	a0,a6,19368 <__multf3+0xb7a>
   19364:	0005a023          	sw	zero,0(a1)
   19368:	45c6                	lw	a1,80(sp)
   1936a:	00f037b3          	snez	a5,a5
   1936e:	8fcd                	or	a5,a5,a1
   19370:	c8be                	sw	a5,80(sp)
   19372:	0077f593          	andi	a1,a5,7
   19376:	c1a1                	beqz	a1,193b6 <__multf3+0xbc8>
   19378:	4509                	li	a0,2
   1937a:	45f6                	lw	a1,92(sp)
   1937c:	08a48763          	beq	s1,a0,1940a <__multf3+0xc1c>
   19380:	450d                	li	a0,3
   19382:	06a48e63          	beq	s1,a0,193fe <__multf3+0xc10>
   19386:	e495                	bnez	s1,193b2 <__multf3+0xbc4>
   19388:	00f7f513          	andi	a0,a5,15
   1938c:	4811                	li	a6,4
   1938e:	03050263          	beq	a0,a6,193b2 <__multf3+0xbc4>
   19392:	0791                	addi	a5,a5,4 # 4004 <exit-0xc090>
   19394:	c8be                	sw	a5,80(sp)
   19396:	0047b793          	sltiu	a5,a5,4
   1939a:	4556                	lw	a0,84(sp)
   1939c:	97aa                	add	a5,a5,a0
   1939e:	cabe                	sw	a5,84(sp)
   193a0:	00a7b7b3          	sltu	a5,a5,a0
   193a4:	4566                	lw	a0,88(sp)
   193a6:	97aa                	add	a5,a5,a0
   193a8:	ccbe                	sw	a5,88(sp)
   193aa:	00a7b7b3          	sltu	a5,a5,a0
   193ae:	97ae                	add	a5,a5,a1
   193b0:	cebe                	sw	a5,92(sp)
   193b2:	00146413          	ori	s0,s0,1
   193b6:	45f6                	lw	a1,92(sp)
   193b8:	00c59793          	slli	a5,a1,0xc
   193bc:	0407d963          	bgez	a5,1940e <__multf3+0xc20>
   193c0:	ce82                	sw	zero,92(sp)
   193c2:	cc82                	sw	zero,88(sp)
   193c4:	ca82                	sw	zero,84(sp)
   193c6:	c882                	sw	zero,80(sp)
   193c8:	00146413          	ori	s0,s0,1
   193cc:	4785                	li	a5,1
   193ce:	de068be3          	beqz	a3,191c4 <__multf3+0x9d6>
   193d2:	00147693          	andi	a3,s0,1
   193d6:	0686                	slli	a3,a3,0x1
   193d8:	8c55                	or	s0,s0,a3
   193da:	b3ed                	j	191c4 <__multf3+0x9d6>
   193dc:	00032e03          	lw	t3,0(t1)
   193e0:	00432f83          	lw	t6,4(t1)
   193e4:	011302b3          	add	t0,t1,a7
   193e8:	00ae5e33          	srl	t3,t3,a0
   193ec:	01df9fb3          	sll	t6,t6,t4
   193f0:	01fe6e33          	or	t3,t3,t6
   193f4:	01c2a023          	sw	t3,0(t0)
   193f8:	0f05                	addi	t5,t5,1
   193fa:	0311                	addi	t1,t1,4
   193fc:	b71d                	j	19322 <__multf3+0xb34>
   193fe:	fb55                	bnez	a4,193b2 <__multf3+0xbc4>
   19400:	07a1                	addi	a5,a5,8
   19402:	c8be                	sw	a5,80(sp)
   19404:	0087b793          	sltiu	a5,a5,8
   19408:	bf49                	j	1939a <__multf3+0xbac>
   1940a:	d745                	beqz	a4,193b2 <__multf3+0xbc4>
   1940c:	bfd5                	j	19400 <__multf3+0xc12>
   1940e:	00c60813          	addi	a6,a2,12
   19412:	421c                	lw	a5,0(a2)
   19414:	4248                	lw	a0,4(a2)
   19416:	838d                	srli	a5,a5,0x3
   19418:	0576                	slli	a0,a0,0x1d
   1941a:	8fc9                	or	a5,a5,a0
   1941c:	c21c                	sw	a5,0(a2)
   1941e:	0611                	addi	a2,a2,4
   19420:	fec819e3          	bne	a6,a2,19412 <__multf3+0xc24>
   19424:	818d                	srli	a1,a1,0x3
   19426:	ceae                	sw	a1,92(sp)
   19428:	4781                	li	a5,0
   1942a:	b755                	j	193ce <__multf3+0xbe0>
   1942c:	46d6                	lw	a3,84(sp)
   1942e:	47c6                	lw	a5,80(sp)
   19430:	8fd5                	or	a5,a5,a3
   19432:	46e6                	lw	a3,88(sp)
   19434:	8fd5                	or	a5,a5,a3
   19436:	46f6                	lw	a3,92(sp)
   19438:	8fd5                	or	a5,a5,a3
   1943a:	c395                	beqz	a5,1945e <__multf3+0xc70>
   1943c:	ce82                	sw	zero,92(sp)
   1943e:	cc82                	sw	zero,88(sp)
   19440:	ca82                	sw	zero,84(sp)
   19442:	c8b2                	sw	a2,80(sp)
   19444:	4789                	li	a5,2
   19446:	00146413          	ori	s0,s0,1
   1944a:	02f48263          	beq	s1,a5,1946e <__multf3+0xc80>
   1944e:	478d                	li	a5,3
   19450:	00f48b63          	beq	s1,a5,19466 <__multf3+0xc78>
   19454:	4795                	li	a5,5
   19456:	c891                	beqz	s1,1946a <__multf3+0xc7c>
   19458:	47c6                	lw	a5,80(sp)
   1945a:	838d                	srli	a5,a5,0x3
   1945c:	c8be                	sw	a5,80(sp)
   1945e:	00246413          	ori	s0,s0,2
   19462:	4781                	li	a5,0
   19464:	b385                	j	191c4 <__multf3+0x9d6>
   19466:	fb6d                	bnez	a4,19458 <__multf3+0xc6a>
   19468:	47a5                	li	a5,9
   1946a:	c8be                	sw	a5,80(sp)
   1946c:	b7f5                	j	19458 <__multf3+0xc6a>
   1946e:	ff6d                	bnez	a4,19468 <__multf3+0xc7a>
   19470:	b7e5                	j	19458 <__multf3+0xc6a>
   19472:	ce82                	sw	zero,92(sp)
   19474:	cc82                	sw	zero,88(sp)
   19476:	ca82                	sw	zero,84(sp)
   19478:	c882                	sw	zero,80(sp)
   1947a:	b7e5                	j	19462 <__multf3+0xc74>
   1947c:	67a1                	lui	a5,0x8
   1947e:	ce82                	sw	zero,92(sp)
   19480:	cc82                	sw	zero,88(sp)
   19482:	ca82                	sw	zero,84(sp)
   19484:	c882                	sw	zero,80(sp)
   19486:	17fd                	addi	a5,a5,-1 # 7fff <exit-0x8095>
   19488:	bb35                	j	191c4 <__multf3+0x9d6>

0001948a <__subtf3>:
   1948a:	7159                	addi	sp,sp,-112
   1948c:	d2a6                	sw	s1,100(sp)
   1948e:	d0ca                	sw	s2,96(sp)
   19490:	cece                	sw	s3,92(sp)
   19492:	c2e6                	sw	s9,68(sp)
   19494:	d686                	sw	ra,108(sp)
   19496:	d4a2                	sw	s0,104(sp)
   19498:	ccd2                	sw	s4,88(sp)
   1949a:	cad6                	sw	s5,84(sp)
   1949c:	c8da                	sw	s6,80(sp)
   1949e:	c6de                	sw	s7,76(sp)
   194a0:	c4e2                	sw	s8,72(sp)
   194a2:	892a                	mv	s2,a0
   194a4:	4198                	lw	a4,0(a1)
   194a6:	41d4                	lw	a3,4(a1)
   194a8:	459c                	lw	a5,8(a1)
   194aa:	00c5a983          	lw	s3,12(a1)
   194ae:	4204                	lw	s1,0(a2)
   194b0:	00462883          	lw	a7,4(a2)
   194b4:	00862803          	lw	a6,8(a2)
   194b8:	00c62c83          	lw	s9,12(a2)
   194bc:	00202a73          	frrm	s4
   194c0:	dc3e                	sw	a5,56(sp)
   194c2:	c43e                	sw	a5,8(sp)
   194c4:	01099793          	slli	a5,s3,0x10
   194c8:	83c1                	srli	a5,a5,0x10
   194ca:	00199413          	slli	s0,s3,0x1
   194ce:	858a                	mv	a1,sp
   194d0:	de4e                	sw	s3,60(sp)
   194d2:	c63e                	sw	a5,12(sp)
   194d4:	d83a                	sw	a4,48(sp)
   194d6:	da36                	sw	a3,52(sp)
   194d8:	c03a                	sw	a4,0(sp)
   194da:	c236                	sw	a3,4(sp)
   194dc:	8045                	srli	s0,s0,0x11
   194de:	01f9d993          	srli	s3,s3,0x1f
   194e2:	ff410313          	addi	t1,sp,-12
   194e6:	87ae                	mv	a5,a1
   194e8:	852e                	mv	a0,a1
   194ea:	47d4                	lw	a3,12(a5)
   194ec:	4790                	lw	a2,8(a5)
   194ee:	17f1                	addi	a5,a5,-4
   194f0:	068e                	slli	a3,a3,0x3
   194f2:	8275                	srli	a2,a2,0x1d
   194f4:	8ed1                	or	a3,a3,a2
   194f6:	cb94                	sw	a3,16(a5)
   194f8:	fef319e3          	bne	t1,a5,194ea <__subtf3+0x60>
   194fc:	010c9793          	slli	a5,s9,0x10
   19500:	83c1                	srli	a5,a5,0x10
   19502:	001c9a93          	slli	s5,s9,0x1
   19506:	070e                	slli	a4,a4,0x3
   19508:	dc42                	sw	a6,56(sp)
   1950a:	cc42                	sw	a6,24(sp)
   1950c:	01010813          	addi	a6,sp,16
   19510:	da46                	sw	a7,52(sp)
   19512:	de66                	sw	s9,60(sp)
   19514:	ca46                	sw	a7,20(sp)
   19516:	ce3e                	sw	a5,28(sp)
   19518:	c03a                	sw	a4,0(sp)
   1951a:	d826                	sw	s1,48(sp)
   1951c:	c826                	sw	s1,16(sp)
   1951e:	011ada93          	srli	s5,s5,0x11
   19522:	01fcdc93          	srli	s9,s9,0x1f
   19526:	00410893          	addi	a7,sp,4
   1952a:	87c2                	mv	a5,a6
   1952c:	8e42                	mv	t3,a6
   1952e:	47d4                	lw	a3,12(a5)
   19530:	4790                	lw	a2,8(a5)
   19532:	17f1                	addi	a5,a5,-4
   19534:	068e                	slli	a3,a3,0x3
   19536:	8275                	srli	a2,a2,0x1d
   19538:	8ed1                	or	a3,a3,a2
   1953a:	cb94                	sw	a3,16(a5)
   1953c:	fef899e3          	bne	a7,a5,1952e <__subtf3+0xa4>
   19540:	048e                	slli	s1,s1,0x3
   19542:	67a1                	lui	a5,0x8
   19544:	c826                	sw	s1,16(sp)
   19546:	17fd                	addi	a5,a5,-1 # 7fff <exit-0x8095>
   19548:	00fa9963          	bne	s5,a5,1955a <__subtf3+0xd0>
   1954c:	46e2                	lw	a3,24(sp)
   1954e:	47d2                	lw	a5,20(sp)
   19550:	8fd5                	or	a5,a5,a3
   19552:	46f2                	lw	a3,28(sp)
   19554:	8fd5                	or	a5,a5,a3
   19556:	8fc5                	or	a5,a5,s1
   19558:	e399                	bnez	a5,1955e <__subtf3+0xd4>
   1955a:	001ccc93          	xori	s9,s9,1
   1955e:	415407b3          	sub	a5,s0,s5
   19562:	5d3c9c63          	bne	s9,s3,19b3a <__subtf3+0x6b0>
   19566:	24f05963          	blez	a5,197b8 <__subtf3+0x32e>
   1956a:	4312                	lw	t1,4(sp)
   1956c:	48a2                	lw	a7,8(sp)
   1956e:	45b2                	lw	a1,12(sp)
   19570:	080a9963          	bnez	s5,19602 <__subtf3+0x178>
   19574:	4552                	lw	a0,20(sp)
   19576:	46e2                	lw	a3,24(sp)
   19578:	4ef2                	lw	t4,28(sp)
   1957a:	00d56633          	or	a2,a0,a3
   1957e:	01d66633          	or	a2,a2,t4
   19582:	8e45                	or	a2,a2,s1
   19584:	e61d                	bnez	a2,195b2 <__subtf3+0x128>
   19586:	66a1                	lui	a3,0x8
   19588:	16fd                	addi	a3,a3,-1 # 7fff <exit-0x8095>
   1958a:	00d79e63          	bne	a5,a3,195a6 <__subtf3+0x11c>
   1958e:	011366b3          	or	a3,t1,a7
   19592:	8ecd                	or	a3,a3,a1
   19594:	8ed9                	or	a3,a3,a4
   19596:	ca81                	beqz	a3,195a6 <__subtf3+0x11c>
   19598:	0125da93          	srli	s5,a1,0x12
   1959c:	001aca93          	xori	s5,s5,1
   195a0:	001afa93          	andi	s5,s5,1
   195a4:	0a92                	slli	s5,s5,0x4
   195a6:	d03a                	sw	a4,32(sp)
   195a8:	d21a                	sw	t1,36(sp)
   195aa:	d446                	sw	a7,40(sp)
   195ac:	d62e                	sw	a1,44(sp)
   195ae:	8456                	mv	s0,s5
   195b0:	ac99                	j	19806 <__subtf3+0x37c>
   195b2:	fff78613          	addi	a2,a5,-1
   195b6:	ea0d                	bnez	a2,195e8 <__subtf3+0x15e>
   195b8:	94ba                	add	s1,s1,a4
   195ba:	932a                	add	t1,t1,a0
   195bc:	d026                	sw	s1,32(sp)
   195be:	00e4b4b3          	sltu	s1,s1,a4
   195c2:	949a                	add	s1,s1,t1
   195c4:	d226                	sw	s1,36(sp)
   195c6:	00a33533          	sltu	a0,t1,a0
   195ca:	0064b4b3          	sltu	s1,s1,t1
   195ce:	98b6                	add	a7,a7,a3
   195d0:	8d45                	or	a0,a0,s1
   195d2:	9546                	add	a0,a0,a7
   195d4:	d42a                	sw	a0,40(sp)
   195d6:	00d8b733          	sltu	a4,a7,a3
   195da:	01153533          	sltu	a0,a0,a7
   195de:	8f49                	or	a4,a4,a0
   195e0:	9eae                	add	t4,t4,a1
   195e2:	9776                	add	a4,a4,t4
   195e4:	4785                	li	a5,1
   195e6:	a299                	j	1972c <__subtf3+0x2a2>
   195e8:	66a1                	lui	a3,0x8
   195ea:	16fd                	addi	a3,a3,-1 # 7fff <exit-0x8095>
   195ec:	fad781e3          	beq	a5,a3,1958e <__subtf3+0x104>
   195f0:	07400793          	li	a5,116
   195f4:	04c7d863          	bge	a5,a2,19644 <__subtf3+0x1ba>
   195f8:	ce02                	sw	zero,28(sp)
   195fa:	cc02                	sw	zero,24(sp)
   195fc:	ca02                	sw	zero,20(sp)
   195fe:	4785                	li	a5,1
   19600:	a8dd                	j	196f6 <__subtf3+0x26c>
   19602:	66a1                	lui	a3,0x8
   19604:	16fd                	addi	a3,a3,-1 # 7fff <exit-0x8095>
   19606:	02d41563          	bne	s0,a3,19630 <__subtf3+0x1a6>
   1960a:	011367b3          	or	a5,t1,a7
   1960e:	8fcd                	or	a5,a5,a1
   19610:	8fd9                	or	a5,a5,a4
   19612:	4681                	li	a3,0
   19614:	c799                	beqz	a5,19622 <__subtf3+0x198>
   19616:	0125d693          	srli	a3,a1,0x12
   1961a:	0016c693          	xori	a3,a3,1
   1961e:	8a85                	andi	a3,a3,1
   19620:	0692                	slli	a3,a3,0x4
   19622:	d03a                	sw	a4,32(sp)
   19624:	d21a                	sw	t1,36(sp)
   19626:	d446                	sw	a7,40(sp)
   19628:	d62e                	sw	a1,44(sp)
   1962a:	87a2                	mv	a5,s0
   1962c:	8436                	mv	s0,a3
   1962e:	aae1                	j	19806 <__subtf3+0x37c>
   19630:	46f2                	lw	a3,28(sp)
   19632:	00080637          	lui	a2,0x80
   19636:	8ed1                	or	a3,a3,a2
   19638:	ce36                	sw	a3,28(sp)
   1963a:	07400693          	li	a3,116
   1963e:	faf6cde3          	blt	a3,a5,195f8 <__subtf3+0x16e>
   19642:	863e                	mv	a2,a5
   19644:	40565693          	srai	a3,a2,0x5
   19648:	8ec2                	mv	t4,a6
   1964a:	8a7d                	andi	a2,a2,31
   1964c:	4781                	li	a5,0
   1964e:	4501                	li	a0,0
   19650:	02d51563          	bne	a0,a3,1967a <__subtf3+0x1f0>
   19654:	450d                	li	a0,3
   19656:	8d15                	sub	a0,a0,a3
   19658:	00269e93          	slli	t4,a3,0x2
   1965c:	e615                	bnez	a2,19688 <__subtf3+0x1fe>
   1965e:	01d80f33          	add	t5,a6,t4
   19662:	000f2f03          	lw	t5,0(t5)
   19666:	0605                	addi	a2,a2,1 # 80001 <__BSS_END__+0x63335>
   19668:	0811                	addi	a6,a6,4
   1966a:	ffe82e23          	sw	t5,-4(a6)
   1966e:	fec558e3          	bge	a0,a2,1965e <__subtf3+0x1d4>
   19672:	4611                	li	a2,4
   19674:	40d606b3          	sub	a3,a2,a3
   19678:	a881                	j	196c8 <__subtf3+0x23e>
   1967a:	000eaf03          	lw	t5,0(t4)
   1967e:	0505                	addi	a0,a0,1
   19680:	0e91                	addi	t4,t4,4
   19682:	01e7e7b3          	or	a5,a5,t5
   19686:	b7e9                	j	19650 <__subtf3+0x1c6>
   19688:	040e8493          	addi	s1,t4,64
   1968c:	00248f33          	add	t5,s1,sp
   19690:	fd0f2f03          	lw	t5,-48(t5)
   19694:	02000393          	li	t2,32
   19698:	40c383b3          	sub	t2,t2,a2
   1969c:	007f1f33          	sll	t5,t5,t2
   196a0:	9876                	add	a6,a6,t4
   196a2:	01e7e7b3          	or	a5,a5,t5
   196a6:	41d00eb3          	neg	t4,t4
   196aa:	4f81                	li	t6,0
   196ac:	0eafc563          	blt	t6,a0,19796 <__subtf3+0x30c>
   196b0:	4811                	li	a6,4
   196b2:	40d806b3          	sub	a3,a6,a3
   196b6:	4872                	lw	a6,28(sp)
   196b8:	050a                	slli	a0,a0,0x2
   196ba:	04050513          	addi	a0,a0,64
   196be:	950a                	add	a0,a0,sp
   196c0:	00c85633          	srl	a2,a6,a2
   196c4:	fcc52823          	sw	a2,-48(a0)
   196c8:	4611                	li	a2,4
   196ca:	8e15                	sub	a2,a2,a3
   196cc:	060a                	slli	a2,a2,0x2
   196ce:	068a                	slli	a3,a3,0x2
   196d0:	4521                	li	a0,8
   196d2:	96f2                	add	a3,a3,t3
   196d4:	00a66863          	bltu	a2,a0,196e4 <__subtf3+0x25a>
   196d8:	0006a023          	sw	zero,0(a3)
   196dc:	0006a223          	sw	zero,4(a3)
   196e0:	1661                	addi	a2,a2,-8
   196e2:	06a1                	addi	a3,a3,8
   196e4:	4511                	li	a0,4
   196e6:	00a66463          	bltu	a2,a0,196ee <__subtf3+0x264>
   196ea:	0006a023          	sw	zero,0(a3)
   196ee:	46c2                	lw	a3,16(sp)
   196f0:	00f037b3          	snez	a5,a5
   196f4:	8fd5                	or	a5,a5,a3
   196f6:	46d2                	lw	a3,20(sp)
   196f8:	c83e                	sw	a5,16(sp)
   196fa:	97ba                	add	a5,a5,a4
   196fc:	9336                	add	t1,t1,a3
   196fe:	d03e                	sw	a5,32(sp)
   19700:	00e7b7b3          	sltu	a5,a5,a4
   19704:	4762                	lw	a4,24(sp)
   19706:	979a                	add	a5,a5,t1
   19708:	d23e                	sw	a5,36(sp)
   1970a:	00d336b3          	sltu	a3,t1,a3
   1970e:	0067b7b3          	sltu	a5,a5,t1
   19712:	98ba                	add	a7,a7,a4
   19714:	8fd5                	or	a5,a5,a3
   19716:	97c6                	add	a5,a5,a7
   19718:	d43e                	sw	a5,40(sp)
   1971a:	00e8b733          	sltu	a4,a7,a4
   1971e:	0117b7b3          	sltu	a5,a5,a7
   19722:	8f5d                	or	a4,a4,a5
   19724:	47f2                	lw	a5,28(sp)
   19726:	97ae                	add	a5,a5,a1
   19728:	973e                	add	a4,a4,a5
   1972a:	87a2                	mv	a5,s0
   1972c:	d63a                	sw	a4,44(sp)
   1972e:	00c71693          	slli	a3,a4,0xc
   19732:	4401                	li	s0,0
   19734:	0c06d963          	bgez	a3,19806 <__subtf3+0x37c>
   19738:	5602                	lw	a2,32(sp)
   1973a:	fff806b7          	lui	a3,0xfff80
   1973e:	16fd                	addi	a3,a3,-1 # fff7ffff <__BSS_END__+0xfff63333>
   19740:	8f75                	and	a4,a4,a3
   19742:	d63a                	sw	a4,44(sp)
   19744:	0785                	addi	a5,a5,1
   19746:	067e                	slli	a2,a2,0x1f
   19748:	1014                	addi	a3,sp,32
   1974a:	02c10813          	addi	a6,sp,44
   1974e:	428c                	lw	a1,0(a3)
   19750:	42c8                	lw	a0,4(a3)
   19752:	8185                	srli	a1,a1,0x1
   19754:	057e                	slli	a0,a0,0x1f
   19756:	8dc9                	or	a1,a1,a0
   19758:	c28c                	sw	a1,0(a3)
   1975a:	0691                	addi	a3,a3,4
   1975c:	fed819e3          	bne	a6,a3,1974e <__subtf3+0x2c4>
   19760:	5682                	lw	a3,32(sp)
   19762:	8305                	srli	a4,a4,0x1
   19764:	d63a                	sw	a4,44(sp)
   19766:	00c03733          	snez	a4,a2
   1976a:	8f55                	or	a4,a4,a3
   1976c:	d03a                	sw	a4,32(sp)
   1976e:	6721                	lui	a4,0x8
   19770:	177d                	addi	a4,a4,-1 # 7fff <exit-0x8095>
   19772:	4401                	li	s0,0
   19774:	08e79963          	bne	a5,a4,19806 <__subtf3+0x37c>
   19778:	3a0a0963          	beqz	s4,19b2a <__subtf3+0x6a0>
   1977c:	478d                	li	a5,3
   1977e:	3afa1163          	bne	s4,a5,19b20 <__subtf3+0x696>
   19782:	3a098463          	beqz	s3,19b2a <__subtf3+0x6a0>
   19786:	57fd                	li	a5,-1
   19788:	d63e                	sw	a5,44(sp)
   1978a:	d43e                	sw	a5,40(sp)
   1978c:	d23e                	sw	a5,36(sp)
   1978e:	d03e                	sw	a5,32(sp)
   19790:	67a1                	lui	a5,0x8
   19792:	17f9                	addi	a5,a5,-2 # 7ffe <exit-0x8096>
   19794:	a64d                	j	19b36 <__subtf3+0x6ac>
   19796:	00082f03          	lw	t5,0(a6)
   1979a:	00482283          	lw	t0,4(a6)
   1979e:	01d804b3          	add	s1,a6,t4
   197a2:	00cf5f33          	srl	t5,t5,a2
   197a6:	007292b3          	sll	t0,t0,t2
   197aa:	005f6f33          	or	t5,t5,t0
   197ae:	01e4a023          	sw	t5,0(s1)
   197b2:	0f85                	addi	t6,t6,1
   197b4:	0811                	addi	a6,a6,4
   197b6:	bddd                	j	196ac <__subtf3+0x222>
   197b8:	4bd2                	lw	s7,20(sp)
   197ba:	4c62                	lw	s8,24(sp)
   197bc:	4b72                	lw	s6,28(sp)
   197be:	1e078363          	beqz	a5,199a4 <__subtf3+0x51a>
   197c2:	408a87b3          	sub	a5,s5,s0
   197c6:	e859                	bnez	s0,1985c <__subtf3+0x3d2>
   197c8:	4612                	lw	a2,4(sp)
   197ca:	46a2                	lw	a3,8(sp)
   197cc:	48b2                	lw	a7,12(sp)
   197ce:	00d66833          	or	a6,a2,a3
   197d2:	01186833          	or	a6,a6,a7
   197d6:	00e86833          	or	a6,a6,a4
   197da:	02081963          	bnez	a6,1980c <__subtf3+0x382>
   197de:	6721                	lui	a4,0x8
   197e0:	177d                	addi	a4,a4,-1 # 7fff <exit-0x8095>
   197e2:	00e79e63          	bne	a5,a4,197fe <__subtf3+0x374>
   197e6:	018be733          	or	a4,s7,s8
   197ea:	01676733          	or	a4,a4,s6
   197ee:	8f45                	or	a4,a4,s1
   197f0:	c719                	beqz	a4,197fe <__subtf3+0x374>
   197f2:	012b5413          	srli	s0,s6,0x12
   197f6:	00144413          	xori	s0,s0,1
   197fa:	8805                	andi	s0,s0,1
   197fc:	0412                	slli	s0,s0,0x4
   197fe:	d026                	sw	s1,32(sp)
   19800:	d25e                	sw	s7,36(sp)
   19802:	d462                	sw	s8,40(sp)
   19804:	d65a                	sw	s6,44(sp)
   19806:	4681                	li	a3,0
   19808:	3fb0006f          	j	1a402 <__subtf3+0xf78>
   1980c:	fff78813          	addi	a6,a5,-1
   19810:	02081963          	bnez	a6,19842 <__subtf3+0x3b8>
   19814:	94ba                	add	s1,s1,a4
   19816:	9bb2                	add	s7,s7,a2
   19818:	d026                	sw	s1,32(sp)
   1981a:	00e4b4b3          	sltu	s1,s1,a4
   1981e:	94de                	add	s1,s1,s7
   19820:	d226                	sw	s1,36(sp)
   19822:	00cbb633          	sltu	a2,s7,a2
   19826:	0174b4b3          	sltu	s1,s1,s7
   1982a:	9c36                	add	s8,s8,a3
   1982c:	8e45                	or	a2,a2,s1
   1982e:	9662                	add	a2,a2,s8
   19830:	d432                	sw	a2,40(sp)
   19832:	00dc3733          	sltu	a4,s8,a3
   19836:	01863633          	sltu	a2,a2,s8
   1983a:	8f51                	or	a4,a4,a2
   1983c:	98da                	add	a7,a7,s6
   1983e:	9746                	add	a4,a4,a7
   19840:	b355                	j	195e4 <__subtf3+0x15a>
   19842:	6721                	lui	a4,0x8
   19844:	177d                	addi	a4,a4,-1 # 7fff <exit-0x8095>
   19846:	fae780e3          	beq	a5,a4,197e6 <__subtf3+0x35c>
   1984a:	07400793          	li	a5,116
   1984e:	0507d863          	bge	a5,a6,1989e <__subtf3+0x414>
   19852:	c602                	sw	zero,12(sp)
   19854:	c402                	sw	zero,8(sp)
   19856:	c202                	sw	zero,4(sp)
   19858:	4785                	li	a5,1
   1985a:	a8cd                	j	1994c <__subtf3+0x4c2>
   1985c:	6721                	lui	a4,0x8
   1985e:	177d                	addi	a4,a4,-1 # 7fff <exit-0x8095>
   19860:	02ea9563          	bne	s5,a4,1988a <__subtf3+0x400>
   19864:	018be7b3          	or	a5,s7,s8
   19868:	0167e7b3          	or	a5,a5,s6
   1986c:	8fc5                	or	a5,a5,s1
   1986e:	4401                	li	s0,0
   19870:	c799                	beqz	a5,1987e <__subtf3+0x3f4>
   19872:	012b5413          	srli	s0,s6,0x12
   19876:	00144413          	xori	s0,s0,1
   1987a:	8805                	andi	s0,s0,1
   1987c:	0412                	slli	s0,s0,0x4
   1987e:	d026                	sw	s1,32(sp)
   19880:	d25e                	sw	s7,36(sp)
   19882:	d462                	sw	s8,40(sp)
   19884:	d65a                	sw	s6,44(sp)
   19886:	87d6                	mv	a5,s5
   19888:	bfbd                	j	19806 <__subtf3+0x37c>
   1988a:	4732                	lw	a4,12(sp)
   1988c:	000806b7          	lui	a3,0x80
   19890:	8f55                	or	a4,a4,a3
   19892:	c63a                	sw	a4,12(sp)
   19894:	07400713          	li	a4,116
   19898:	faf74de3          	blt	a4,a5,19852 <__subtf3+0x3c8>
   1989c:	883e                	mv	a6,a5
   1989e:	02000713          	li	a4,32
   198a2:	02e84733          	div	a4,a6,a4
   198a6:	86ae                	mv	a3,a1
   198a8:	4401                	li	s0,0
   198aa:	4781                	li	a5,0
   198ac:	02e7c663          	blt	a5,a4,198d8 <__subtf3+0x44e>
   198b0:	478d                	li	a5,3
   198b2:	01f87893          	andi	a7,a6,31
   198b6:	8f99                	sub	a5,a5,a4
   198b8:	00271613          	slli	a2,a4,0x2
   198bc:	02089363          	bnez	a7,198e2 <__subtf3+0x458>
   198c0:	00c586b3          	add	a3,a1,a2
   198c4:	4294                	lw	a3,0(a3)
   198c6:	0885                	addi	a7,a7,1
   198c8:	c194                	sw	a3,0(a1)
   198ca:	0591                	addi	a1,a1,4
   198cc:	ff17dae3          	bge	a5,a7,198c0 <__subtf3+0x436>
   198d0:	4791                	li	a5,4
   198d2:	40e78733          	sub	a4,a5,a4
   198d6:	a899                	j	1992c <__subtf3+0x4a2>
   198d8:	4290                	lw	a2,0(a3)
   198da:	0785                	addi	a5,a5,1
   198dc:	0691                	addi	a3,a3,4 # 80004 <__BSS_END__+0x63338>
   198de:	8c51                	or	s0,s0,a2
   198e0:	b7f1                	j	198ac <__subtf3+0x422>
   198e2:	02000693          	li	a3,32
   198e6:	02d86833          	rem	a6,a6,a3
   198ea:	41068833          	sub	a6,a3,a6
   198ee:	86ba                	mv	a3,a4
   198f0:	00075363          	bgez	a4,198f6 <__subtf3+0x46c>
   198f4:	4681                	li	a3,0
   198f6:	068a                	slli	a3,a3,0x2
   198f8:	04068693          	addi	a3,a3,64
   198fc:	968a                	add	a3,a3,sp
   198fe:	fc06a683          	lw	a3,-64(a3)
   19902:	95b2                	add	a1,a1,a2
   19904:	4301                	li	t1,0
   19906:	010696b3          	sll	a3,a3,a6
   1990a:	8c55                	or	s0,s0,a3
   1990c:	40c00633          	neg	a2,a2
   19910:	06f34a63          	blt	t1,a5,19984 <__subtf3+0x4fa>
   19914:	4691                	li	a3,4
   19916:	40e68733          	sub	a4,a3,a4
   1991a:	46b2                	lw	a3,12(sp)
   1991c:	078a                	slli	a5,a5,0x2
   1991e:	04078793          	addi	a5,a5,64
   19922:	978a                	add	a5,a5,sp
   19924:	0116d6b3          	srl	a3,a3,a7
   19928:	fcd7a023          	sw	a3,-64(a5)
   1992c:	00572793          	slti	a5,a4,5
   19930:	4601                	li	a2,0
   19932:	c781                	beqz	a5,1993a <__subtf3+0x4b0>
   19934:	4611                	li	a2,4
   19936:	8e19                	sub	a2,a2,a4
   19938:	060a                	slli	a2,a2,0x2
   1993a:	070a                	slli	a4,a4,0x2
   1993c:	953a                	add	a0,a0,a4
   1993e:	4581                	li	a1,0
   19940:	d1df70ef          	jal	1165c <memset>
   19944:	4702                	lw	a4,0(sp)
   19946:	008037b3          	snez	a5,s0
   1994a:	8fd9                	or	a5,a5,a4
   1994c:	4692                	lw	a3,4(sp)
   1994e:	c03e                	sw	a5,0(sp)
   19950:	97a6                	add	a5,a5,s1
   19952:	9bb6                	add	s7,s7,a3
   19954:	4722                	lw	a4,8(sp)
   19956:	d03e                	sw	a5,32(sp)
   19958:	0097b7b3          	sltu	a5,a5,s1
   1995c:	97de                	add	a5,a5,s7
   1995e:	d23e                	sw	a5,36(sp)
   19960:	00dbb6b3          	sltu	a3,s7,a3
   19964:	0177b7b3          	sltu	a5,a5,s7
   19968:	9c3a                	add	s8,s8,a4
   1996a:	8fd5                	or	a5,a5,a3
   1996c:	97e2                	add	a5,a5,s8
   1996e:	d43e                	sw	a5,40(sp)
   19970:	00ec3733          	sltu	a4,s8,a4
   19974:	0187b7b3          	sltu	a5,a5,s8
   19978:	8f5d                	or	a4,a4,a5
   1997a:	47b2                	lw	a5,12(sp)
   1997c:	97da                	add	a5,a5,s6
   1997e:	973e                	add	a4,a4,a5
   19980:	87d6                	mv	a5,s5
   19982:	b36d                	j	1972c <__subtf3+0x2a2>
   19984:	4194                	lw	a3,0(a1)
   19986:	0045ae03          	lw	t3,4(a1)
   1998a:	00c58eb3          	add	t4,a1,a2
   1998e:	0116d6b3          	srl	a3,a3,a7
   19992:	010e1e33          	sll	t3,t3,a6
   19996:	01c6e6b3          	or	a3,a3,t3
   1999a:	00dea023          	sw	a3,0(t4)
   1999e:	0305                	addi	t1,t1,1
   199a0:	0591                	addi	a1,a1,4
   199a2:	b7bd                	j	19910 <__subtf3+0x486>
   199a4:	00140793          	addi	a5,s0,1
   199a8:	01179513          	slli	a0,a5,0x11
   199ac:	8149                	srli	a0,a0,0x12
   199ae:	4612                	lw	a2,4(sp)
   199b0:	46a2                	lw	a3,8(sp)
   199b2:	45b2                	lw	a1,12(sp)
   199b4:	10051c63          	bnez	a0,19acc <__subtf3+0x642>
   199b8:	00d667b3          	or	a5,a2,a3
   199bc:	8fcd                	or	a5,a5,a1
   199be:	8fd9                	or	a5,a5,a4
   199c0:	e049                	bnez	s0,19a42 <__subtf3+0x5b8>
   199c2:	e785                	bnez	a5,199ea <__subtf3+0x560>
   199c4:	d026                	sw	s1,32(sp)
   199c6:	d25e                	sw	s7,36(sp)
   199c8:	d462                	sw	s8,40(sp)
   199ca:	d65a                	sw	s6,44(sp)
   199cc:	5782                	lw	a5,32(sp)
   199ce:	5592                	lw	a1,36(sp)
   199d0:	5622                	lw	a2,40(sp)
   199d2:	56b2                	lw	a3,44(sp)
   199d4:	00b7e733          	or	a4,a5,a1
   199d8:	8f51                	or	a4,a4,a2
   199da:	8f55                	or	a4,a4,a3
   199dc:	1a071de3          	bnez	a4,1a396 <__subtf3+0xf0c>
   199e0:	4781                	li	a5,0
   199e2:	4681                	li	a3,0
   199e4:	4401                	li	s0,0
   199e6:	21d0006f          	j	1a402 <__subtf3+0xf78>
   199ea:	018be7b3          	or	a5,s7,s8
   199ee:	0167e7b3          	or	a5,a5,s6
   199f2:	8fc5                	or	a5,a5,s1
   199f4:	e791                	bnez	a5,19a00 <__subtf3+0x576>
   199f6:	d03a                	sw	a4,32(sp)
   199f8:	d232                	sw	a2,36(sp)
   199fa:	d436                	sw	a3,40(sp)
   199fc:	d62e                	sw	a1,44(sp)
   199fe:	b7f9                	j	199cc <__subtf3+0x542>
   19a00:	94ba                	add	s1,s1,a4
   19a02:	9bb2                	add	s7,s7,a2
   19a04:	d026                	sw	s1,32(sp)
   19a06:	00e4b4b3          	sltu	s1,s1,a4
   19a0a:	94de                	add	s1,s1,s7
   19a0c:	d226                	sw	s1,36(sp)
   19a0e:	00cbb633          	sltu	a2,s7,a2
   19a12:	0174b4b3          	sltu	s1,s1,s7
   19a16:	9c36                	add	s8,s8,a3
   19a18:	8e45                	or	a2,a2,s1
   19a1a:	9662                	add	a2,a2,s8
   19a1c:	d432                	sw	a2,40(sp)
   19a1e:	00dc36b3          	sltu	a3,s8,a3
   19a22:	01863633          	sltu	a2,a2,s8
   19a26:	8ed1                	or	a3,a3,a2
   19a28:	95da                	add	a1,a1,s6
   19a2a:	96ae                	add	a3,a3,a1
   19a2c:	00c69793          	slli	a5,a3,0xc
   19a30:	3207d2e3          	bgez	a5,1a554 <__subtf3+0x10ca>
   19a34:	fff807b7          	lui	a5,0xfff80
   19a38:	17fd                	addi	a5,a5,-1 # fff7ffff <__BSS_END__+0xfff63333>
   19a3a:	8efd                	and	a3,a3,a5
   19a3c:	d636                	sw	a3,44(sp)
   19a3e:	4785                	li	a5,1
   19a40:	b3d9                	j	19806 <__subtf3+0x37c>
   19a42:	6521                	lui	a0,0x8
   19a44:	157d                	addi	a0,a0,-1 # 7fff <exit-0x8095>
   19a46:	04a41363          	bne	s0,a0,19a8c <__subtf3+0x602>
   19a4a:	300788e3          	beqz	a5,1a55a <__subtf3+0x10d0>
   19a4e:	0125d413          	srli	s0,a1,0x12
   19a52:	00144413          	xori	s0,s0,1
   19a56:	8805                	andi	s0,s0,1
   19a58:	0412                	slli	s0,s0,0x4
   19a5a:	02aa9d63          	bne	s5,a0,19a94 <__subtf3+0x60a>
   19a5e:	018be533          	or	a0,s7,s8
   19a62:	01656533          	or	a0,a0,s6
   19a66:	8d45                	or	a0,a0,s1
   19a68:	c50d                	beqz	a0,19a92 <__subtf3+0x608>
   19a6a:	00db1513          	slli	a0,s6,0xd
   19a6e:	02054263          	bltz	a0,19a92 <__subtf3+0x608>
   19a72:	4441                	li	s0,16
   19a74:	eb85                	bnez	a5,19aa4 <__subtf3+0x61a>
   19a76:	8726                	mv	a4,s1
   19a78:	865e                	mv	a2,s7
   19a7a:	86e2                	mv	a3,s8
   19a7c:	85da                	mv	a1,s6
   19a7e:	d03a                	sw	a4,32(sp)
   19a80:	d232                	sw	a2,36(sp)
   19a82:	d436                	sw	a3,40(sp)
   19a84:	d62e                	sw	a1,44(sp)
   19a86:	67a1                	lui	a5,0x8
   19a88:	17fd                	addi	a5,a5,-1 # 7fff <exit-0x8095>
   19a8a:	bbb5                	j	19806 <__subtf3+0x37c>
   19a8c:	4401                	li	s0,0
   19a8e:	fcaa88e3          	beq	s5,a0,19a5e <__subtf3+0x5d4>
   19a92:	d3f5                	beqz	a5,19a76 <__subtf3+0x5ec>
   19a94:	018bebb3          	or	s7,s7,s8
   19a98:	016bebb3          	or	s7,s7,s6
   19a9c:	009bebb3          	or	s7,s7,s1
   19aa0:	fc0b8fe3          	beqz	s7,19a7e <__subtf3+0x5f4>
   19aa4:	67a1                	lui	a5,0x8
   19aa6:	d63e                	sw	a5,44(sp)
   19aa8:	d402                	sw	zero,40(sp)
   19aaa:	d202                	sw	zero,36(sp)
   19aac:	d002                	sw	zero,32(sp)
   19aae:	101c                	addi	a5,sp,32
   19ab0:	0850                	addi	a2,sp,20
   19ab2:	47d8                	lw	a4,12(a5)
   19ab4:	4794                	lw	a3,8(a5)
   19ab6:	17f1                	addi	a5,a5,-4 # 7ffc <exit-0x8098>
   19ab8:	070e                	slli	a4,a4,0x3
   19aba:	82f5                	srli	a3,a3,0x1d
   19abc:	8f55                	or	a4,a4,a3
   19abe:	cb98                	sw	a4,16(a5)
   19ac0:	fef619e3          	bne	a2,a5,19ab2 <__subtf3+0x628>
   19ac4:	4981                	li	s3,0
   19ac6:	b7c1                	j	19a86 <__subtf3+0x5fc>
   19ac8:	4401                	li	s0,0
   19aca:	bf51                	j	19a5e <__subtf3+0x5d4>
   19acc:	94ba                	add	s1,s1,a4
   19ace:	9bb2                	add	s7,s7,a2
   19ad0:	d026                	sw	s1,32(sp)
   19ad2:	00e4b4b3          	sltu	s1,s1,a4
   19ad6:	94de                	add	s1,s1,s7
   19ad8:	d226                	sw	s1,36(sp)
   19ada:	00cbb633          	sltu	a2,s7,a2
   19ade:	0174b4b3          	sltu	s1,s1,s7
   19ae2:	9c36                	add	s8,s8,a3
   19ae4:	8e45                	or	a2,a2,s1
   19ae6:	9662                	add	a2,a2,s8
   19ae8:	d432                	sw	a2,40(sp)
   19aea:	00dc36b3          	sltu	a3,s8,a3
   19aee:	01863633          	sltu	a2,a2,s8
   19af2:	8ed1                	or	a3,a3,a2
   19af4:	95da                	add	a1,a1,s6
   19af6:	96ae                	add	a3,a3,a1
   19af8:	d636                	sw	a3,44(sp)
   19afa:	1018                	addi	a4,sp,32
   19afc:	1068                	addi	a0,sp,44
   19afe:	4310                	lw	a2,0(a4)
   19b00:	434c                	lw	a1,4(a4)
   19b02:	8205                	srli	a2,a2,0x1
   19b04:	05fe                	slli	a1,a1,0x1f
   19b06:	8e4d                	or	a2,a2,a1
   19b08:	c310                	sw	a2,0(a4)
   19b0a:	0711                	addi	a4,a4,4
   19b0c:	fee519e3          	bne	a0,a4,19afe <__subtf3+0x674>
   19b10:	6721                	lui	a4,0x8
   19b12:	177d                	addi	a4,a4,-1 # 7fff <exit-0x8095>
   19b14:	c6e782e3          	beq	a5,a4,19778 <__subtf3+0x2ee>
   19b18:	8285                	srli	a3,a3,0x1
   19b1a:	d636                	sw	a3,44(sp)
   19b1c:	4401                	li	s0,0
   19b1e:	b1e5                	j	19806 <__subtf3+0x37c>
   19b20:	4789                	li	a5,2
   19b22:	c6fa12e3          	bne	s4,a5,19786 <__subtf3+0x2fc>
   19b26:	c60980e3          	beqz	s3,19786 <__subtf3+0x2fc>
   19b2a:	67a1                	lui	a5,0x8
   19b2c:	d602                	sw	zero,44(sp)
   19b2e:	d402                	sw	zero,40(sp)
   19b30:	d202                	sw	zero,36(sp)
   19b32:	d002                	sw	zero,32(sp)
   19b34:	17fd                	addi	a5,a5,-1 # 7fff <exit-0x8095>
   19b36:	4415                	li	s0,5
   19b38:	b1f9                	j	19806 <__subtf3+0x37c>
   19b3a:	22f05b63          	blez	a5,19d70 <__subtf3+0x8e6>
   19b3e:	4592                	lw	a1,4(sp)
   19b40:	4522                	lw	a0,8(sp)
   19b42:	48b2                	lw	a7,12(sp)
   19b44:	0a0a9563          	bnez	s5,19bee <__subtf3+0x764>
   19b48:	4ed2                	lw	t4,20(sp)
   19b4a:	4fe2                	lw	t6,24(sp)
   19b4c:	4672                	lw	a2,28(sp)
   19b4e:	01fee6b3          	or	a3,t4,t6
   19b52:	8ed1                	or	a3,a3,a2
   19b54:	8ec5                	or	a3,a3,s1
   19b56:	e69d                	bnez	a3,19b84 <__subtf3+0x6fa>
   19b58:	66a1                	lui	a3,0x8
   19b5a:	16fd                	addi	a3,a3,-1 # 7fff <exit-0x8095>
   19b5c:	00d79f63          	bne	a5,a3,19b7a <__subtf3+0x6f0>
   19b60:	00a5e6b3          	or	a3,a1,a0
   19b64:	0116e6b3          	or	a3,a3,a7
   19b68:	8ed9                	or	a3,a3,a4
   19b6a:	ca81                	beqz	a3,19b7a <__subtf3+0x6f0>
   19b6c:	0128da93          	srli	s5,a7,0x12
   19b70:	001aca93          	xori	s5,s5,1
   19b74:	001afa93          	andi	s5,s5,1
   19b78:	0a92                	slli	s5,s5,0x4
   19b7a:	d03a                	sw	a4,32(sp)
   19b7c:	d22e                	sw	a1,36(sp)
   19b7e:	d42a                	sw	a0,40(sp)
   19b80:	d646                	sw	a7,44(sp)
   19b82:	b435                	j	195ae <__subtf3+0x124>
   19b84:	fff78f13          	addi	t5,a5,-1
   19b88:	040f1663          	bnez	t5,19bd4 <__subtf3+0x74a>
   19b8c:	409706b3          	sub	a3,a4,s1
   19b90:	41d58833          	sub	a6,a1,t4
   19b94:	00d73333          	sltu	t1,a4,a3
   19b98:	0105b7b3          	sltu	a5,a1,a6
   19b9c:	40680833          	sub	a6,a6,t1
   19ba0:	4301                	li	t1,0
   19ba2:	00d77663          	bgeu	a4,a3,19bae <__subtf3+0x724>
   19ba6:	40be8eb3          	sub	t4,t4,a1
   19baa:	001eb313          	seqz	t1,t4
   19bae:	00f36733          	or	a4,t1,a5
   19bb2:	41f505b3          	sub	a1,a0,t6
   19bb6:	00b53333          	sltu	t1,a0,a1
   19bba:	8d99                	sub	a1,a1,a4
   19bbc:	c709                	beqz	a4,19bc6 <__subtf3+0x73c>
   19bbe:	40af87b3          	sub	a5,t6,a0
   19bc2:	0017bf13          	seqz	t5,a5
   19bc6:	40c88733          	sub	a4,a7,a2
   19bca:	006f67b3          	or	a5,t5,t1
   19bce:	8f1d                	sub	a4,a4,a5
   19bd0:	4785                	li	a5,1
   19bd2:	aab9                	j	19d30 <__subtf3+0x8a6>
   19bd4:	66a1                	lui	a3,0x8
   19bd6:	16fd                	addi	a3,a3,-1 # 7fff <exit-0x8095>
   19bd8:	f8d784e3          	beq	a5,a3,19b60 <__subtf3+0x6d6>
   19bdc:	07400793          	li	a5,116
   19be0:	05e7d763          	bge	a5,t5,19c2e <__subtf3+0x7a4>
   19be4:	ce02                	sw	zero,28(sp)
   19be6:	cc02                	sw	zero,24(sp)
   19be8:	ca02                	sw	zero,20(sp)
   19bea:	4685                	li	a3,1
   19bec:	a8e5                	j	19ce4 <__subtf3+0x85a>
   19bee:	66a1                	lui	a3,0x8
   19bf0:	16fd                	addi	a3,a3,-1 # 7fff <exit-0x8095>
   19bf2:	02d41463          	bne	s0,a3,19c1a <__subtf3+0x790>
   19bf6:	00a5e7b3          	or	a5,a1,a0
   19bfa:	0117e7b3          	or	a5,a5,a7
   19bfe:	8fd9                	or	a5,a5,a4
   19c00:	4681                	li	a3,0
   19c02:	c799                	beqz	a5,19c10 <__subtf3+0x786>
   19c04:	0128d693          	srli	a3,a7,0x12
   19c08:	0016c693          	xori	a3,a3,1
   19c0c:	8a85                	andi	a3,a3,1
   19c0e:	0692                	slli	a3,a3,0x4
   19c10:	d03a                	sw	a4,32(sp)
   19c12:	d22e                	sw	a1,36(sp)
   19c14:	d42a                	sw	a0,40(sp)
   19c16:	d646                	sw	a7,44(sp)
   19c18:	bc09                	j	1962a <__subtf3+0x1a0>
   19c1a:	46f2                	lw	a3,28(sp)
   19c1c:	00080637          	lui	a2,0x80
   19c20:	8ed1                	or	a3,a3,a2
   19c22:	ce36                	sw	a3,28(sp)
   19c24:	07400693          	li	a3,116
   19c28:	faf6cee3          	blt	a3,a5,19be4 <__subtf3+0x75a>
   19c2c:	8f3e                	mv	t5,a5
   19c2e:	405f5793          	srai	a5,t5,0x5
   19c32:	8342                	mv	t1,a6
   19c34:	01ff7f13          	andi	t5,t5,31
   19c38:	4681                	li	a3,0
   19c3a:	4601                	li	a2,0
   19c3c:	02f61663          	bne	a2,a5,19c68 <__subtf3+0x7de>
   19c40:	460d                	li	a2,3
   19c42:	8e1d                	sub	a2,a2,a5
   19c44:	00279313          	slli	t1,a5,0x2
   19c48:	020f1763          	bnez	t5,19c76 <__subtf3+0x7ec>
   19c4c:	00680eb3          	add	t4,a6,t1
   19c50:	000eae83          	lw	t4,0(t4)
   19c54:	0f05                	addi	t5,t5,1
   19c56:	0811                	addi	a6,a6,4
   19c58:	ffd82e23          	sw	t4,-4(a6)
   19c5c:	ffe658e3          	bge	a2,t5,19c4c <__subtf3+0x7c2>
   19c60:	4611                	li	a2,4
   19c62:	40f607b3          	sub	a5,a2,a5
   19c66:	a881                	j	19cb6 <__subtf3+0x82c>
   19c68:	00032e83          	lw	t4,0(t1)
   19c6c:	0605                	addi	a2,a2,1 # 80001 <__BSS_END__+0x63335>
   19c6e:	0311                	addi	t1,t1,4
   19c70:	01d6e6b3          	or	a3,a3,t4
   19c74:	b7e1                	j	19c3c <__subtf3+0x7b2>
   19c76:	04030493          	addi	s1,t1,64
   19c7a:	00248eb3          	add	t4,s1,sp
   19c7e:	fd0eae83          	lw	t4,-48(t4)
   19c82:	02000393          	li	t2,32
   19c86:	41e383b3          	sub	t2,t2,t5
   19c8a:	007e9eb3          	sll	t4,t4,t2
   19c8e:	981a                	add	a6,a6,t1
   19c90:	01d6e6b3          	or	a3,a3,t4
   19c94:	40600333          	neg	t1,t1
   19c98:	4f81                	li	t6,0
   19c9a:	0acfca63          	blt	t6,a2,19d4e <__subtf3+0x8c4>
   19c9e:	4811                	li	a6,4
   19ca0:	40f807b3          	sub	a5,a6,a5
   19ca4:	4872                	lw	a6,28(sp)
   19ca6:	060a                	slli	a2,a2,0x2
   19ca8:	04060613          	addi	a2,a2,64
   19cac:	960a                	add	a2,a2,sp
   19cae:	01e85833          	srl	a6,a6,t5
   19cb2:	fd062823          	sw	a6,-48(a2)
   19cb6:	4611                	li	a2,4
   19cb8:	8e1d                	sub	a2,a2,a5
   19cba:	060a                	slli	a2,a2,0x2
   19cbc:	078a                	slli	a5,a5,0x2
   19cbe:	4821                	li	a6,8
   19cc0:	97f2                	add	a5,a5,t3
   19cc2:	01066863          	bltu	a2,a6,19cd2 <__subtf3+0x848>
   19cc6:	0007a023          	sw	zero,0(a5)
   19cca:	0007a223          	sw	zero,4(a5)
   19cce:	1661                	addi	a2,a2,-8
   19cd0:	07a1                	addi	a5,a5,8
   19cd2:	4811                	li	a6,4
   19cd4:	01066463          	bltu	a2,a6,19cdc <__subtf3+0x852>
   19cd8:	0007a023          	sw	zero,0(a5)
   19cdc:	47c2                	lw	a5,16(sp)
   19cde:	00d036b3          	snez	a3,a3
   19ce2:	8edd                	or	a3,a3,a5
   19ce4:	4652                	lw	a2,20(sp)
   19ce6:	c836                	sw	a3,16(sp)
   19ce8:	40d706b3          	sub	a3,a4,a3
   19cec:	40c58833          	sub	a6,a1,a2
   19cf0:	00d737b3          	sltu	a5,a4,a3
   19cf4:	0105b333          	sltu	t1,a1,a6
   19cf8:	40f80833          	sub	a6,a6,a5
   19cfc:	4781                	li	a5,0
   19cfe:	00d77563          	bgeu	a4,a3,19d08 <__subtf3+0x87e>
   19d02:	8e0d                	sub	a2,a2,a1
   19d04:	00163793          	seqz	a5,a2
   19d08:	4762                	lw	a4,24(sp)
   19d0a:	0067e7b3          	or	a5,a5,t1
   19d0e:	4601                	li	a2,0
   19d10:	40e505b3          	sub	a1,a0,a4
   19d14:	00b53333          	sltu	t1,a0,a1
   19d18:	8d9d                	sub	a1,a1,a5
   19d1a:	c781                	beqz	a5,19d22 <__subtf3+0x898>
   19d1c:	8f09                	sub	a4,a4,a0
   19d1e:	00173613          	seqz	a2,a4
   19d22:	4772                	lw	a4,28(sp)
   19d24:	00666633          	or	a2,a2,t1
   19d28:	87a2                	mv	a5,s0
   19d2a:	40e88733          	sub	a4,a7,a4
   19d2e:	8f11                	sub	a4,a4,a2
   19d30:	d036                	sw	a3,32(sp)
   19d32:	d63a                	sw	a4,44(sp)
   19d34:	d42e                	sw	a1,40(sp)
   19d36:	d242                	sw	a6,36(sp)
   19d38:	00c71693          	slli	a3,a4,0xc
   19d3c:	de06d0e3          	bgez	a3,19b1c <__subtf3+0x692>
   19d40:	000806b7          	lui	a3,0x80
   19d44:	16fd                	addi	a3,a3,-1 # 7ffff <__BSS_END__+0x63333>
   19d46:	8f75                	and	a4,a4,a3
   19d48:	d63a                	sw	a4,44(sp)
   19d4a:	843e                	mv	s0,a5
   19d4c:	a1bd                	j	1a1ba <__subtf3+0xd30>
   19d4e:	00082e83          	lw	t4,0(a6)
   19d52:	00482283          	lw	t0,4(a6)
   19d56:	006804b3          	add	s1,a6,t1
   19d5a:	01eedeb3          	srl	t4,t4,t5
   19d5e:	007292b3          	sll	t0,t0,t2
   19d62:	005eeeb3          	or	t4,t4,t0
   19d66:	01d4a023          	sw	t4,0(s1)
   19d6a:	0f85                	addi	t6,t6,1
   19d6c:	0811                	addi	a6,a6,4
   19d6e:	b735                	j	19c9a <__subtf3+0x810>
   19d70:	4bd2                	lw	s7,20(sp)
   19d72:	4b62                	lw	s6,24(sp)
   19d74:	4c72                	lw	s8,28(sp)
   19d76:	20078763          	beqz	a5,19f84 <__subtf3+0xafa>
   19d7a:	408a87b3          	sub	a5,s5,s0
   19d7e:	e05d                	bnez	s0,19e24 <__subtf3+0x99a>
   19d80:	4892                	lw	a7,4(sp)
   19d82:	4e22                	lw	t3,8(sp)
   19d84:	4632                	lw	a2,12(sp)
   19d86:	01c8e6b3          	or	a3,a7,t3
   19d8a:	8ed1                	or	a3,a3,a2
   19d8c:	8ed9                	or	a3,a3,a4
   19d8e:	e69d                	bnez	a3,19dbc <__subtf3+0x932>
   19d90:	6721                	lui	a4,0x8
   19d92:	177d                	addi	a4,a4,-1 # 7fff <exit-0x8095>
   19d94:	00e79e63          	bne	a5,a4,19db0 <__subtf3+0x926>
   19d98:	016be733          	or	a4,s7,s6
   19d9c:	01876733          	or	a4,a4,s8
   19da0:	8f45                	or	a4,a4,s1
   19da2:	c719                	beqz	a4,19db0 <__subtf3+0x926>
   19da4:	012c5413          	srli	s0,s8,0x12
   19da8:	00144413          	xori	s0,s0,1
   19dac:	8805                	andi	s0,s0,1
   19dae:	0412                	slli	s0,s0,0x4
   19db0:	d026                	sw	s1,32(sp)
   19db2:	d25e                	sw	s7,36(sp)
   19db4:	d45a                	sw	s6,40(sp)
   19db6:	d662                	sw	s8,44(sp)
   19db8:	89e6                	mv	s3,s9
   19dba:	b4b1                	j	19806 <__subtf3+0x37c>
   19dbc:	fff78313          	addi	t1,a5,-1
   19dc0:	04031563          	bnez	t1,19e0a <__subtf3+0x980>
   19dc4:	40e486b3          	sub	a3,s1,a4
   19dc8:	411b8833          	sub	a6,s7,a7
   19dcc:	00d4b733          	sltu	a4,s1,a3
   19dd0:	010bb7b3          	sltu	a5,s7,a6
   19dd4:	40e80833          	sub	a6,a6,a4
   19dd8:	4701                	li	a4,0
   19dda:	00d4f663          	bgeu	s1,a3,19de6 <__subtf3+0x95c>
   19dde:	417888b3          	sub	a7,a7,s7
   19de2:	0018b713          	seqz	a4,a7
   19de6:	41cb05b3          	sub	a1,s6,t3
   19dea:	8f5d                	or	a4,a4,a5
   19dec:	00bb3533          	sltu	a0,s6,a1
   19df0:	8d99                	sub	a1,a1,a4
   19df2:	c709                	beqz	a4,19dfc <__subtf3+0x972>
   19df4:	416e07b3          	sub	a5,t3,s6
   19df8:	0017b313          	seqz	t1,a5
   19dfc:	40cc0733          	sub	a4,s8,a2
   19e00:	00a367b3          	or	a5,t1,a0
   19e04:	8f1d                	sub	a4,a4,a5
   19e06:	89e6                	mv	s3,s9
   19e08:	b3e1                	j	19bd0 <__subtf3+0x746>
   19e0a:	6721                	lui	a4,0x8
   19e0c:	177d                	addi	a4,a4,-1 # 7fff <exit-0x8095>
   19e0e:	f8e785e3          	beq	a5,a4,19d98 <__subtf3+0x90e>
   19e12:	07400793          	li	a5,116
   19e16:	0467d863          	bge	a5,t1,19e66 <__subtf3+0x9dc>
   19e1a:	c602                	sw	zero,12(sp)
   19e1c:	c402                	sw	zero,8(sp)
   19e1e:	c202                	sw	zero,4(sp)
   19e20:	4685                	li	a3,1
   19e22:	a8cd                	j	19f14 <__subtf3+0xa8a>
   19e24:	6721                	lui	a4,0x8
   19e26:	177d                	addi	a4,a4,-1 # 7fff <exit-0x8095>
   19e28:	02ea9563          	bne	s5,a4,19e52 <__subtf3+0x9c8>
   19e2c:	016be7b3          	or	a5,s7,s6
   19e30:	0187e7b3          	or	a5,a5,s8
   19e34:	8fc5                	or	a5,a5,s1
   19e36:	4401                	li	s0,0
   19e38:	c799                	beqz	a5,19e46 <__subtf3+0x9bc>
   19e3a:	012c5413          	srli	s0,s8,0x12
   19e3e:	00144413          	xori	s0,s0,1
   19e42:	8805                	andi	s0,s0,1
   19e44:	0412                	slli	s0,s0,0x4
   19e46:	d026                	sw	s1,32(sp)
   19e48:	d25e                	sw	s7,36(sp)
   19e4a:	d45a                	sw	s6,40(sp)
   19e4c:	d662                	sw	s8,44(sp)
   19e4e:	87d6                	mv	a5,s5
   19e50:	b7a5                	j	19db8 <__subtf3+0x92e>
   19e52:	4732                	lw	a4,12(sp)
   19e54:	000806b7          	lui	a3,0x80
   19e58:	8f55                	or	a4,a4,a3
   19e5a:	c63a                	sw	a4,12(sp)
   19e5c:	07400713          	li	a4,116
   19e60:	faf74de3          	blt	a4,a5,19e1a <__subtf3+0x990>
   19e64:	833e                	mv	t1,a5
   19e66:	02000793          	li	a5,32
   19e6a:	02f347b3          	div	a5,t1,a5
   19e6e:	86ae                	mv	a3,a1
   19e70:	4401                	li	s0,0
   19e72:	4701                	li	a4,0
   19e74:	02f74663          	blt	a4,a5,19ea0 <__subtf3+0xa16>
   19e78:	470d                	li	a4,3
   19e7a:	01f37813          	andi	a6,t1,31
   19e7e:	8f1d                	sub	a4,a4,a5
   19e80:	00279613          	slli	a2,a5,0x2
   19e84:	02081363          	bnez	a6,19eaa <__subtf3+0xa20>
   19e88:	00c586b3          	add	a3,a1,a2
   19e8c:	4294                	lw	a3,0(a3)
   19e8e:	0805                	addi	a6,a6,1
   19e90:	c194                	sw	a3,0(a1)
   19e92:	0591                	addi	a1,a1,4
   19e94:	ff075ae3          	bge	a4,a6,19e88 <__subtf3+0x9fe>
   19e98:	4711                	li	a4,4
   19e9a:	40f707b3          	sub	a5,a4,a5
   19e9e:	a899                	j	19ef4 <__subtf3+0xa6a>
   19ea0:	4290                	lw	a2,0(a3)
   19ea2:	0705                	addi	a4,a4,1
   19ea4:	0691                	addi	a3,a3,4 # 80004 <__BSS_END__+0x63338>
   19ea6:	8c51                	or	s0,s0,a2
   19ea8:	b7f1                	j	19e74 <__subtf3+0x9ea>
   19eaa:	02000693          	li	a3,32
   19eae:	02d36333          	rem	t1,t1,a3
   19eb2:	40668333          	sub	t1,a3,t1
   19eb6:	86be                	mv	a3,a5
   19eb8:	0007d363          	bgez	a5,19ebe <__subtf3+0xa34>
   19ebc:	4681                	li	a3,0
   19ebe:	068a                	slli	a3,a3,0x2
   19ec0:	04068693          	addi	a3,a3,64
   19ec4:	968a                	add	a3,a3,sp
   19ec6:	fc06a683          	lw	a3,-64(a3)
   19eca:	95b2                	add	a1,a1,a2
   19ecc:	4881                	li	a7,0
   19ece:	006696b3          	sll	a3,a3,t1
   19ed2:	8c55                	or	s0,s0,a3
   19ed4:	40c00633          	neg	a2,a2
   19ed8:	08e8c663          	blt	a7,a4,19f64 <__subtf3+0xada>
   19edc:	4691                	li	a3,4
   19ede:	40f687b3          	sub	a5,a3,a5
   19ee2:	46b2                	lw	a3,12(sp)
   19ee4:	070a                	slli	a4,a4,0x2
   19ee6:	04070713          	addi	a4,a4,64
   19eea:	970a                	add	a4,a4,sp
   19eec:	0106d6b3          	srl	a3,a3,a6
   19ef0:	fcd72023          	sw	a3,-64(a4)
   19ef4:	0057a713          	slti	a4,a5,5
   19ef8:	4601                	li	a2,0
   19efa:	c701                	beqz	a4,19f02 <__subtf3+0xa78>
   19efc:	4611                	li	a2,4
   19efe:	8e1d                	sub	a2,a2,a5
   19f00:	060a                	slli	a2,a2,0x2
   19f02:	078a                	slli	a5,a5,0x2
   19f04:	953e                	add	a0,a0,a5
   19f06:	4581                	li	a1,0
   19f08:	f54f70ef          	jal	1165c <memset>
   19f0c:	4782                	lw	a5,0(sp)
   19f0e:	008036b3          	snez	a3,s0
   19f12:	8edd                	or	a3,a3,a5
   19f14:	4712                	lw	a4,4(sp)
   19f16:	c036                	sw	a3,0(sp)
   19f18:	40d486b3          	sub	a3,s1,a3
   19f1c:	40eb8833          	sub	a6,s7,a4
   19f20:	00d4b7b3          	sltu	a5,s1,a3
   19f24:	010bb633          	sltu	a2,s7,a6
   19f28:	40f80833          	sub	a6,a6,a5
   19f2c:	4781                	li	a5,0
   19f2e:	00d4f663          	bgeu	s1,a3,19f3a <__subtf3+0xab0>
   19f32:	41770733          	sub	a4,a4,s7
   19f36:	00173793          	seqz	a5,a4
   19f3a:	4722                	lw	a4,8(sp)
   19f3c:	8fd1                	or	a5,a5,a2
   19f3e:	4601                	li	a2,0
   19f40:	40eb05b3          	sub	a1,s6,a4
   19f44:	00bb3533          	sltu	a0,s6,a1
   19f48:	8d9d                	sub	a1,a1,a5
   19f4a:	c789                	beqz	a5,19f54 <__subtf3+0xaca>
   19f4c:	41670733          	sub	a4,a4,s6
   19f50:	00173613          	seqz	a2,a4
   19f54:	4732                	lw	a4,12(sp)
   19f56:	8e49                	or	a2,a2,a0
   19f58:	87d6                	mv	a5,s5
   19f5a:	40ec0733          	sub	a4,s8,a4
   19f5e:	8f11                	sub	a4,a4,a2
   19f60:	89e6                	mv	s3,s9
   19f62:	b3f9                	j	19d30 <__subtf3+0x8a6>
   19f64:	4194                	lw	a3,0(a1)
   19f66:	0045ae03          	lw	t3,4(a1)
   19f6a:	00c58eb3          	add	t4,a1,a2
   19f6e:	0106d6b3          	srl	a3,a3,a6
   19f72:	006e1e33          	sll	t3,t3,t1
   19f76:	01c6e6b3          	or	a3,a3,t3
   19f7a:	00dea023          	sw	a3,0(t4)
   19f7e:	0885                	addi	a7,a7,1
   19f80:	0591                	addi	a1,a1,4
   19f82:	bf99                	j	19ed8 <__subtf3+0xa4e>
   19f84:	00140693          	addi	a3,s0,1
   19f88:	01169813          	slli	a6,a3,0x11
   19f8c:	01285813          	srli	a6,a6,0x12
   19f90:	4612                	lw	a2,4(sp)
   19f92:	45a2                	lw	a1,8(sp)
   19f94:	4532                	lw	a0,12(sp)
   19f96:	18081363          	bnez	a6,1a11c <__subtf3+0xc92>
   19f9a:	016be7b3          	or	a5,s7,s6
   19f9e:	00b666b3          	or	a3,a2,a1
   19fa2:	0187e7b3          	or	a5,a5,s8
   19fa6:	8ec9                	or	a3,a3,a0
   19fa8:	8fc5                	or	a5,a5,s1
   19faa:	8ed9                	or	a3,a3,a4
   19fac:	e869                	bnez	s0,1a07e <__subtf3+0xbf4>
   19fae:	ea99                	bnez	a3,19fc4 <__subtf3+0xb3a>
   19fb0:	d026                	sw	s1,32(sp)
   19fb2:	d25e                	sw	s7,36(sp)
   19fb4:	d45a                	sw	s6,40(sp)
   19fb6:	d662                	sw	s8,44(sp)
   19fb8:	ebcd                	bnez	a5,1a06a <__subtf3+0xbe0>
   19fba:	ffea0993          	addi	s3,s4,-2
   19fbe:	0019b993          	seqz	s3,s3
   19fc2:	b429                	j	199cc <__subtf3+0x542>
   19fc4:	e791                	bnez	a5,19fd0 <__subtf3+0xb46>
   19fc6:	d03a                	sw	a4,32(sp)
   19fc8:	d232                	sw	a2,36(sp)
   19fca:	d42e                	sw	a1,40(sp)
   19fcc:	d62a                	sw	a0,44(sp)
   19fce:	bafd                	j	199cc <__subtf3+0x542>
   19fd0:	409707b3          	sub	a5,a4,s1
   19fd4:	41760e33          	sub	t3,a2,s7
   19fd8:	00f73833          	sltu	a6,a4,a5
   19fdc:	01c638b3          	sltu	a7,a2,t3
   19fe0:	410e0833          	sub	a6,t3,a6
   19fe4:	4681                	li	a3,0
   19fe6:	00f77463          	bgeu	a4,a5,19fee <__subtf3+0xb64>
   19fea:	001e3693          	seqz	a3,t3
   19fee:	0116e6b3          	or	a3,a3,a7
   19ff2:	416588b3          	sub	a7,a1,s6
   19ff6:	0115bf33          	sltu	t5,a1,a7
   19ffa:	40d88eb3          	sub	t4,a7,a3
   19ffe:	4301                	li	t1,0
   1a000:	c299                	beqz	a3,1a006 <__subtf3+0xb7c>
   1a002:	0018b313          	seqz	t1,a7
   1a006:	01e36333          	or	t1,t1,t5
   1a00a:	418506b3          	sub	a3,a0,s8
   1a00e:	406686b3          	sub	a3,a3,t1
   1a012:	d636                	sw	a3,44(sp)
   1a014:	d476                	sw	t4,40(sp)
   1a016:	d242                	sw	a6,36(sp)
   1a018:	d03e                	sw	a5,32(sp)
   1a01a:	00c69313          	slli	t1,a3,0xc
   1a01e:	04035863          	bgez	t1,1a06e <__subtf3+0xbe4>
   1a022:	40e48733          	sub	a4,s1,a4
   1a026:	40cb8633          	sub	a2,s7,a2
   1a02a:	00e4b7b3          	sltu	a5,s1,a4
   1a02e:	00cbbbb3          	sltu	s7,s7,a2
   1a032:	8e1d                	sub	a2,a2,a5
   1a034:	4781                	li	a5,0
   1a036:	00e4f463          	bgeu	s1,a4,1a03e <__subtf3+0xbb4>
   1a03a:	001e3793          	seqz	a5,t3
   1a03e:	40bb05b3          	sub	a1,s6,a1
   1a042:	0177ebb3          	or	s7,a5,s7
   1a046:	00bb3b33          	sltu	s6,s6,a1
   1a04a:	417585b3          	sub	a1,a1,s7
   1a04e:	000b8463          	beqz	s7,1a056 <__subtf3+0xbcc>
   1a052:	0018b413          	seqz	s0,a7
   1a056:	40ac0533          	sub	a0,s8,a0
   1a05a:	01646b33          	or	s6,s0,s6
   1a05e:	41650533          	sub	a0,a0,s6
   1a062:	d62a                	sw	a0,44(sp)
   1a064:	d42e                	sw	a1,40(sp)
   1a066:	d232                	sw	a2,36(sp)
   1a068:	d03a                	sw	a4,32(sp)
   1a06a:	89e6                	mv	s3,s9
   1a06c:	b285                	j	199cc <__subtf3+0x542>
   1a06e:	0107e7b3          	or	a5,a5,a6
   1a072:	01d7e7b3          	or	a5,a5,t4
   1a076:	8fd5                	or	a5,a5,a3
   1a078:	94079ae3          	bnez	a5,199cc <__subtf3+0x542>
   1a07c:	bf3d                	j	19fba <__subtf3+0xb30>
   1a07e:	6821                	lui	a6,0x8
   1a080:	187d                	addi	a6,a6,-1 # 7fff <exit-0x8095>
   1a082:	03041263          	bne	s0,a6,1a0a6 <__subtf3+0xc1c>
   1a086:	4c068f63          	beqz	a3,1a564 <__subtf3+0x10da>
   1a08a:	01255413          	srli	s0,a0,0x12
   1a08e:	00144413          	xori	s0,s0,1
   1a092:	8805                	andi	s0,s0,1
   1a094:	0412                	slli	s0,s0,0x4
   1a096:	010a8b63          	beq	s5,a6,1a0ac <__subtf3+0xc22>
   1a09a:	ebb1                	bnez	a5,1a0ee <__subtf3+0xc64>
   1a09c:	d03a                	sw	a4,32(sp)
   1a09e:	d232                	sw	a2,36(sp)
   1a0a0:	d42e                	sw	a1,40(sp)
   1a0a2:	d62a                	sw	a0,44(sp)
   1a0a4:	b2cd                	j	19a86 <__subtf3+0x5fc>
   1a0a6:	4401                	li	s0,0
   1a0a8:	010a9363          	bne	s5,a6,1a0ae <__subtf3+0xc24>
   1a0ac:	eb9d                	bnez	a5,1a0e2 <__subtf3+0xc58>
   1a0ae:	f6f5                	bnez	a3,1a09a <__subtf3+0xc10>
   1a0b0:	e3a5                	bnez	a5,1a110 <__subtf3+0xc86>
   1a0b2:	67a1                	lui	a5,0x8
   1a0b4:	d63e                	sw	a5,44(sp)
   1a0b6:	d402                	sw	zero,40(sp)
   1a0b8:	d202                	sw	zero,36(sp)
   1a0ba:	d002                	sw	zero,32(sp)
   1a0bc:	101c                	addi	a5,sp,32
   1a0be:	0850                	addi	a2,sp,20
   1a0c0:	47d8                	lw	a4,12(a5)
   1a0c2:	4794                	lw	a3,8(a5)
   1a0c4:	17f1                	addi	a5,a5,-4 # 7ffc <exit-0x8098>
   1a0c6:	070e                	slli	a4,a4,0x3
   1a0c8:	82f5                	srli	a3,a3,0x1d
   1a0ca:	8f55                	or	a4,a4,a3
   1a0cc:	cb98                	sw	a4,16(a5)
   1a0ce:	fef619e3          	bne	a2,a5,1a0c0 <__subtf3+0xc36>
   1a0d2:	67a1                	lui	a5,0x8
   1a0d4:	4981                	li	s3,0
   1a0d6:	17fd                	addi	a5,a5,-1 # 7fff <exit-0x8095>
   1a0d8:	4441                	li	s0,16
   1a0da:	f2cff06f          	j	19806 <__subtf3+0x37c>
   1a0de:	4401                	li	s0,0
   1a0e0:	b7f1                	j	1a0ac <__subtf3+0xc22>
   1a0e2:	00dc1813          	slli	a6,s8,0xd
   1a0e6:	fc0844e3          	bltz	a6,1a0ae <__subtf3+0xc24>
   1a0ea:	4441                	li	s0,16
   1a0ec:	c295                	beqz	a3,1a110 <__subtf3+0xc86>
   1a0ee:	67a1                	lui	a5,0x8
   1a0f0:	d63e                	sw	a5,44(sp)
   1a0f2:	d402                	sw	zero,40(sp)
   1a0f4:	d202                	sw	zero,36(sp)
   1a0f6:	d002                	sw	zero,32(sp)
   1a0f8:	101c                	addi	a5,sp,32
   1a0fa:	0850                	addi	a2,sp,20
   1a0fc:	47d8                	lw	a4,12(a5)
   1a0fe:	4794                	lw	a3,8(a5)
   1a100:	17f1                	addi	a5,a5,-4 # 7ffc <exit-0x8098>
   1a102:	070e                	slli	a4,a4,0x3
   1a104:	82f5                	srli	a3,a3,0x1d
   1a106:	8f55                	or	a4,a4,a3
   1a108:	cb98                	sw	a4,16(a5)
   1a10a:	fef619e3          	bne	a2,a5,1a0fc <__subtf3+0xc72>
   1a10e:	ba5d                	j	19ac4 <__subtf3+0x63a>
   1a110:	d026                	sw	s1,32(sp)
   1a112:	d25e                	sw	s7,36(sp)
   1a114:	d45a                	sw	s6,40(sp)
   1a116:	d662                	sw	s8,44(sp)
   1a118:	89e6                	mv	s3,s9
   1a11a:	b2b5                	j	19a86 <__subtf3+0x5fc>
   1a11c:	409706b3          	sub	a3,a4,s1
   1a120:	41760e33          	sub	t3,a2,s7
   1a124:	00d73eb3          	sltu	t4,a4,a3
   1a128:	01c638b3          	sltu	a7,a2,t3
   1a12c:	41de0eb3          	sub	t4,t3,t4
   1a130:	4801                	li	a6,0
   1a132:	00d77463          	bgeu	a4,a3,1a13a <__subtf3+0xcb0>
   1a136:	001e3813          	seqz	a6,t3
   1a13a:	01186833          	or	a6,a6,a7
   1a13e:	416588b3          	sub	a7,a1,s6
   1a142:	0115bf33          	sltu	t5,a1,a7
   1a146:	41088fb3          	sub	t6,a7,a6
   1a14a:	4301                	li	t1,0
   1a14c:	00080463          	beqz	a6,1a154 <__subtf3+0xcca>
   1a150:	0018b313          	seqz	t1,a7
   1a154:	01e36333          	or	t1,t1,t5
   1a158:	41850833          	sub	a6,a0,s8
   1a15c:	40680833          	sub	a6,a6,t1
   1a160:	d642                	sw	a6,44(sp)
   1a162:	d47e                	sw	t6,40(sp)
   1a164:	d276                	sw	t4,36(sp)
   1a166:	d036                	sw	a3,32(sp)
   1a168:	00c81313          	slli	t1,a6,0xc
   1a16c:	10035163          	bgez	t1,1a26e <__subtf3+0xde4>
   1a170:	40e48733          	sub	a4,s1,a4
   1a174:	40cb8633          	sub	a2,s7,a2
   1a178:	00e4b6b3          	sltu	a3,s1,a4
   1a17c:	00cbbbb3          	sltu	s7,s7,a2
   1a180:	8e15                	sub	a2,a2,a3
   1a182:	4681                	li	a3,0
   1a184:	00e4f463          	bgeu	s1,a4,1a18c <__subtf3+0xd02>
   1a188:	001e3693          	seqz	a3,t3
   1a18c:	40bb05b3          	sub	a1,s6,a1
   1a190:	0176ebb3          	or	s7,a3,s7
   1a194:	00bb3b33          	sltu	s6,s6,a1
   1a198:	417585b3          	sub	a1,a1,s7
   1a19c:	000b8463          	beqz	s7,1a1a4 <__subtf3+0xd1a>
   1a1a0:	0018b793          	seqz	a5,a7
   1a1a4:	40ac0533          	sub	a0,s8,a0
   1a1a8:	0167eb33          	or	s6,a5,s6
   1a1ac:	41650533          	sub	a0,a0,s6
   1a1b0:	d62a                	sw	a0,44(sp)
   1a1b2:	d42e                	sw	a1,40(sp)
   1a1b4:	d232                	sw	a2,36(sp)
   1a1b6:	d03a                	sw	a4,32(sp)
   1a1b8:	89e6                	mv	s3,s9
   1a1ba:	5532                	lw	a0,44(sp)
   1a1bc:	c169                	beqz	a0,1a27e <__subtf3+0xdf4>
   1a1be:	7dc000ef          	jal	1a99a <__clzsi2>
   1a1c2:	ff450793          	addi	a5,a0,-12
   1a1c6:	02000693          	li	a3,32
   1a1ca:	01f7f813          	andi	a6,a5,31
   1a1ce:	02d7c733          	div	a4,a5,a3
   1a1d2:	0c080763          	beqz	a6,1a2a0 <__subtf3+0xe16>
   1a1d6:	02010313          	addi	t1,sp,32
   1a1da:	02d7e633          	rem	a2,a5,a3
   1a1de:	40c685b3          	sub	a1,a3,a2
   1a1e2:	5671                	li	a2,-4
   1a1e4:	02c70633          	mul	a2,a4,a2
   1a1e8:	00c60693          	addi	a3,a2,12
   1a1ec:	969a                	add	a3,a3,t1
   1a1ee:	40c00633          	neg	a2,a2
   1a1f2:	0cd31763          	bne	t1,a3,1a2c0 <__subtf3+0xe36>
   1a1f6:	5602                	lw	a2,32(sp)
   1a1f8:	fff70693          	addi	a3,a4,-1
   1a1fc:	070a                	slli	a4,a4,0x2
   1a1fe:	04070713          	addi	a4,a4,64
   1a202:	970a                	add	a4,a4,sp
   1a204:	01061633          	sll	a2,a2,a6
   1a208:	fec72023          	sw	a2,-32(a4)
   1a20c:	00168713          	addi	a4,a3,1
   1a210:	070a                	slli	a4,a4,0x2
   1a212:	1014                	addi	a3,sp,32
   1a214:	4621                	li	a2,8
   1a216:	88b6                	mv	a7,a3
   1a218:	00c76863          	bltu	a4,a2,1a228 <__subtf3+0xd9e>
   1a21c:	0006a023          	sw	zero,0(a3)
   1a220:	0006a223          	sw	zero,4(a3)
   1a224:	1761                	addi	a4,a4,-8
   1a226:	1034                	addi	a3,sp,40
   1a228:	4611                	li	a2,4
   1a22a:	00c76463          	bltu	a4,a2,1a232 <__subtf3+0xda8>
   1a22e:	0006a023          	sw	zero,0(a3)
   1a232:	1487c863          	blt	a5,s0,1a382 <__subtf3+0xef8>
   1a236:	8f81                	sub	a5,a5,s0
   1a238:	0785                	addi	a5,a5,1
   1a23a:	4057d713          	srai	a4,a5,0x5
   1a23e:	85c6                	mv	a1,a7
   1a240:	8bfd                	andi	a5,a5,31
   1a242:	8646                	mv	a2,a7
   1a244:	4301                	li	t1,0
   1a246:	4681                	li	a3,0
   1a248:	08e69b63          	bne	a3,a4,1a2de <__subtf3+0xe54>
   1a24c:	468d                	li	a3,3
   1a24e:	8e99                	sub	a3,a3,a4
   1a250:	00271613          	slli	a2,a4,0x2
   1a254:	ebd9                	bnez	a5,1a2ea <__subtf3+0xe60>
   1a256:	00c58533          	add	a0,a1,a2
   1a25a:	4108                	lw	a0,0(a0)
   1a25c:	0785                	addi	a5,a5,1
   1a25e:	c188                	sw	a0,0(a1)
   1a260:	0591                	addi	a1,a1,4
   1a262:	fef6dae3          	bge	a3,a5,1a256 <__subtf3+0xdcc>
   1a266:	4791                	li	a5,4
   1a268:	40e78733          	sub	a4,a5,a4
   1a26c:	a87d                	j	1a32a <__subtf3+0xea0>
   1a26e:	01d6e6b3          	or	a3,a3,t4
   1a272:	01f6e6b3          	or	a3,a3,t6
   1a276:	0106e6b3          	or	a3,a3,a6
   1a27a:	f2a1                	bnez	a3,1a1ba <__subtf3+0xd30>
   1a27c:	bb3d                	j	19fba <__subtf3+0xb30>
   1a27e:	5522                	lw	a0,40(sp)
   1a280:	c509                	beqz	a0,1a28a <__subtf3+0xe00>
   1a282:	2f21                	jal	1a99a <__clzsi2>
   1a284:	02050513          	addi	a0,a0,32
   1a288:	bf2d                	j	1a1c2 <__subtf3+0xd38>
   1a28a:	5512                	lw	a0,36(sp)
   1a28c:	c509                	beqz	a0,1a296 <__subtf3+0xe0c>
   1a28e:	2731                	jal	1a99a <__clzsi2>
   1a290:	04050513          	addi	a0,a0,64
   1a294:	b73d                	j	1a1c2 <__subtf3+0xd38>
   1a296:	5502                	lw	a0,32(sp)
   1a298:	2709                	jal	1a99a <__clzsi2>
   1a29a:	06050513          	addi	a0,a0,96
   1a29e:	b715                	j	1a1c2 <__subtf3+0xd38>
   1a2a0:	55f1                	li	a1,-4
   1a2a2:	02b705b3          	mul	a1,a4,a1
   1a2a6:	1074                	addi	a3,sp,44
   1a2a8:	460d                	li	a2,3
   1a2aa:	00b68533          	add	a0,a3,a1
   1a2ae:	4108                	lw	a0,0(a0)
   1a2b0:	167d                	addi	a2,a2,-1
   1a2b2:	16f1                	addi	a3,a3,-4
   1a2b4:	c2c8                	sw	a0,4(a3)
   1a2b6:	fee65ae3          	bge	a2,a4,1a2aa <__subtf3+0xe20>
   1a2ba:	fff70693          	addi	a3,a4,-1
   1a2be:	b7b9                	j	1a20c <__subtf3+0xd82>
   1a2c0:	4288                	lw	a0,0(a3)
   1a2c2:	ffc6a883          	lw	a7,-4(a3)
   1a2c6:	00c68e33          	add	t3,a3,a2
   1a2ca:	01051533          	sll	a0,a0,a6
   1a2ce:	00b8d8b3          	srl	a7,a7,a1
   1a2d2:	01156533          	or	a0,a0,a7
   1a2d6:	00ae2023          	sw	a0,0(t3)
   1a2da:	16f1                	addi	a3,a3,-4
   1a2dc:	bf19                	j	1a1f2 <__subtf3+0xd68>
   1a2de:	4208                	lw	a0,0(a2)
   1a2e0:	0685                	addi	a3,a3,1
   1a2e2:	0611                	addi	a2,a2,4
   1a2e4:	00a36333          	or	t1,t1,a0
   1a2e8:	b785                	j	1a248 <__subtf3+0xdbe>
   1a2ea:	04060593          	addi	a1,a2,64
   1a2ee:	958a                	add	a1,a1,sp
   1a2f0:	fe05a583          	lw	a1,-32(a1)
   1a2f4:	02000813          	li	a6,32
   1a2f8:	40f80833          	sub	a6,a6,a5
   1a2fc:	010595b3          	sll	a1,a1,a6
   1a300:	00b36333          	or	t1,t1,a1
   1a304:	4e01                	li	t3,0
   1a306:	00c885b3          	add	a1,a7,a2
   1a30a:	40c00633          	neg	a2,a2
   1a30e:	04de4a63          	blt	t3,a3,1a362 <__subtf3+0xed8>
   1a312:	4611                	li	a2,4
   1a314:	40e60733          	sub	a4,a2,a4
   1a318:	5632                	lw	a2,44(sp)
   1a31a:	068a                	slli	a3,a3,0x2
   1a31c:	04068693          	addi	a3,a3,64
   1a320:	968a                	add	a3,a3,sp
   1a322:	00f657b3          	srl	a5,a2,a5
   1a326:	fef6a023          	sw	a5,-32(a3)
   1a32a:	4691                	li	a3,4
   1a32c:	8e99                	sub	a3,a3,a4
   1a32e:	070a                	slli	a4,a4,0x2
   1a330:	00e887b3          	add	a5,a7,a4
   1a334:	00269713          	slli	a4,a3,0x2
   1a338:	46a1                	li	a3,8
   1a33a:	00d76863          	bltu	a4,a3,1a34a <__subtf3+0xec0>
   1a33e:	0007a023          	sw	zero,0(a5)
   1a342:	0007a223          	sw	zero,4(a5)
   1a346:	1761                	addi	a4,a4,-8
   1a348:	07a1                	addi	a5,a5,8
   1a34a:	4691                	li	a3,4
   1a34c:	00d76463          	bltu	a4,a3,1a354 <__subtf3+0xeca>
   1a350:	0007a023          	sw	zero,0(a5)
   1a354:	5702                	lw	a4,32(sp)
   1a356:	006037b3          	snez	a5,t1
   1a35a:	8fd9                	or	a5,a5,a4
   1a35c:	d03e                	sw	a5,32(sp)
   1a35e:	e6eff06f          	j	199cc <__subtf3+0x542>
   1a362:	4188                	lw	a0,0(a1)
   1a364:	0045ae83          	lw	t4,4(a1)
   1a368:	00c58f33          	add	t5,a1,a2
   1a36c:	00f55533          	srl	a0,a0,a5
   1a370:	010e9eb3          	sll	t4,t4,a6
   1a374:	01d56533          	or	a0,a0,t4
   1a378:	00af2023          	sw	a0,0(t5)
   1a37c:	0e05                	addi	t3,t3,1
   1a37e:	0591                	addi	a1,a1,4
   1a380:	b779                	j	1a30e <__subtf3+0xe84>
   1a382:	5732                	lw	a4,44(sp)
   1a384:	fff806b7          	lui	a3,0xfff80
   1a388:	16fd                	addi	a3,a3,-1 # fff7ffff <__BSS_END__+0xfff63333>
   1a38a:	8f75                	and	a4,a4,a3
   1a38c:	40f407b3          	sub	a5,s0,a5
   1a390:	d63a                	sw	a4,44(sp)
   1a392:	f8aff06f          	j	19b1c <__subtf3+0x692>
   1a396:	da2e                	sw	a1,52(sp)
   1a398:	d83e                	sw	a5,48(sp)
   1a39a:	dc32                	sw	a2,56(sp)
   1a39c:	de36                	sw	a3,60(sp)
   1a39e:	1818                	addi	a4,sp,48
   1a3a0:	104c                	addi	a1,sp,36
   1a3a2:	4754                	lw	a3,12(a4)
   1a3a4:	4710                	lw	a2,8(a4)
   1a3a6:	1771                	addi	a4,a4,-4
   1a3a8:	0686                	slli	a3,a3,0x1
   1a3aa:	827d                	srli	a2,a2,0x1f
   1a3ac:	8ed1                	or	a3,a3,a2
   1a3ae:	cb14                	sw	a3,16(a4)
   1a3b0:	fee599e3          	bne	a1,a4,1a3a2 <__subtf3+0xf18>
   1a3b4:	0786                	slli	a5,a5,0x1
   1a3b6:	0077f713          	andi	a4,a5,7
   1a3ba:	4401                	li	s0,0
   1a3bc:	cf0d                	beqz	a4,1a3f6 <__subtf3+0xf6c>
   1a3be:	4709                	li	a4,2
   1a3c0:	56f2                	lw	a3,60(sp)
   1a3c2:	14ea0463          	beq	s4,a4,1a50a <__subtf3+0x1080>
   1a3c6:	470d                	li	a4,3
   1a3c8:	12ea0b63          	beq	s4,a4,1a4fe <__subtf3+0x1074>
   1a3cc:	020a1463          	bnez	s4,1a3f4 <__subtf3+0xf6a>
   1a3d0:	00f7f713          	andi	a4,a5,15
   1a3d4:	4611                	li	a2,4
   1a3d6:	00c70f63          	beq	a4,a2,1a3f4 <__subtf3+0xf6a>
   1a3da:	0791                	addi	a5,a5,4
   1a3dc:	0047b793          	sltiu	a5,a5,4
   1a3e0:	5752                	lw	a4,52(sp)
   1a3e2:	973e                	add	a4,a4,a5
   1a3e4:	00f73733          	sltu	a4,a4,a5
   1a3e8:	57e2                	lw	a5,56(sp)
   1a3ea:	97ba                	add	a5,a5,a4
   1a3ec:	00e7b7b3          	sltu	a5,a5,a4
   1a3f0:	97b6                	add	a5,a5,a3
   1a3f2:	de3e                	sw	a5,60(sp)
   1a3f4:	4405                	li	s0,1
   1a3f6:	56f2                	lw	a3,60(sp)
   1a3f8:	4781                	li	a5,0
   1a3fa:	82d1                	srli	a3,a3,0x14
   1a3fc:	0016c693          	xori	a3,a3,1
   1a400:	8a85                	andi	a3,a3,1
   1a402:	5702                	lw	a4,32(sp)
   1a404:	00777613          	andi	a2,a4,7
   1a408:	c229                	beqz	a2,1a44a <__subtf3+0xfc0>
   1a40a:	4589                	li	a1,2
   1a40c:	5632                	lw	a2,44(sp)
   1a40e:	10ba0863          	beq	s4,a1,1a51e <__subtf3+0x1094>
   1a412:	458d                	li	a1,3
   1a414:	0eba0e63          	beq	s4,a1,1a510 <__subtf3+0x1086>
   1a418:	020a1763          	bnez	s4,1a446 <__subtf3+0xfbc>
   1a41c:	00f77593          	andi	a1,a4,15
   1a420:	4511                	li	a0,4
   1a422:	02a58263          	beq	a1,a0,1a446 <__subtf3+0xfbc>
   1a426:	0711                	addi	a4,a4,4
   1a428:	d03a                	sw	a4,32(sp)
   1a42a:	00473713          	sltiu	a4,a4,4
   1a42e:	5592                	lw	a1,36(sp)
   1a430:	972e                	add	a4,a4,a1
   1a432:	d23a                	sw	a4,36(sp)
   1a434:	00b73733          	sltu	a4,a4,a1
   1a438:	55a2                	lw	a1,40(sp)
   1a43a:	972e                	add	a4,a4,a1
   1a43c:	d43a                	sw	a4,40(sp)
   1a43e:	00b73733          	sltu	a4,a4,a1
   1a442:	9732                	add	a4,a4,a2
   1a444:	d63a                	sw	a4,44(sp)
   1a446:	00146413          	ori	s0,s0,1
   1a44a:	c689                	beqz	a3,1a454 <__subtf3+0xfca>
   1a44c:	00147713          	andi	a4,s0,1
   1a450:	0706                	slli	a4,a4,0x1
   1a452:	8c59                	or	s0,s0,a4
   1a454:	5732                	lw	a4,44(sp)
   1a456:	00c71693          	slli	a3,a4,0xc
   1a45a:	0006dc63          	bgez	a3,1a472 <__subtf3+0xfe8>
   1a45e:	66a1                	lui	a3,0x8
   1a460:	0785                	addi	a5,a5,1
   1a462:	16fd                	addi	a3,a3,-1 # 7fff <exit-0x8095>
   1a464:	0cd78063          	beq	a5,a3,1a524 <__subtf3+0x109a>
   1a468:	fff806b7          	lui	a3,0xfff80
   1a46c:	16fd                	addi	a3,a3,-1 # fff7ffff <__BSS_END__+0xfff63333>
   1a46e:	8f75                	and	a4,a4,a3
   1a470:	d63a                	sw	a4,44(sp)
   1a472:	1018                	addi	a4,sp,32
   1a474:	106c                	addi	a1,sp,44
   1a476:	4314                	lw	a3,0(a4)
   1a478:	4350                	lw	a2,4(a4)
   1a47a:	828d                	srli	a3,a3,0x3
   1a47c:	0676                	slli	a2,a2,0x1d
   1a47e:	8ed1                	or	a3,a3,a2
   1a480:	c314                	sw	a3,0(a4)
   1a482:	0711                	addi	a4,a4,4
   1a484:	feb719e3          	bne	a4,a1,1a476 <__subtf3+0xfec>
   1a488:	56b2                	lw	a3,44(sp)
   1a48a:	6621                	lui	a2,0x8
   1a48c:	fff60713          	addi	a4,a2,-1 # 7fff <exit-0x8095>
   1a490:	828d                	srli	a3,a3,0x3
   1a492:	d636                	sw	a3,44(sp)
   1a494:	00e79e63          	bne	a5,a4,1a4b0 <__subtf3+0x1026>
   1a498:	5592                	lw	a1,36(sp)
   1a49a:	5702                	lw	a4,32(sp)
   1a49c:	8f4d                	or	a4,a4,a1
   1a49e:	55a2                	lw	a1,40(sp)
   1a4a0:	8f4d                	or	a4,a4,a1
   1a4a2:	8f55                	or	a4,a4,a3
   1a4a4:	c711                	beqz	a4,1a4b0 <__subtf3+0x1026>
   1a4a6:	d632                	sw	a2,44(sp)
   1a4a8:	d402                	sw	zero,40(sp)
   1a4aa:	d202                	sw	zero,36(sp)
   1a4ac:	d002                	sw	zero,32(sp)
   1a4ae:	4981                	li	s3,0
   1a4b0:	55b2                	lw	a1,44(sp)
   1a4b2:	07c6                	slli	a5,a5,0x11
   1a4b4:	83c5                	srli	a5,a5,0x11
   1a4b6:	09be                	slli	s3,s3,0xf
   1a4b8:	00f9e9b3          	or	s3,s3,a5
   1a4bc:	02b11e23          	sh	a1,60(sp)
   1a4c0:	03311f23          	sh	s3,62(sp)
   1a4c4:	5602                	lw	a2,32(sp)
   1a4c6:	5692                	lw	a3,36(sp)
   1a4c8:	5722                	lw	a4,40(sp)
   1a4ca:	57f2                	lw	a5,60(sp)
   1a4cc:	c019                	beqz	s0,1a4d2 <__subtf3+0x1048>
   1a4ce:	00142073          	csrs	fflags,s0
   1a4d2:	50b6                	lw	ra,108(sp)
   1a4d4:	5426                	lw	s0,104(sp)
   1a4d6:	00c92023          	sw	a2,0(s2)
   1a4da:	00d92223          	sw	a3,4(s2)
   1a4de:	00e92423          	sw	a4,8(s2)
   1a4e2:	00f92623          	sw	a5,12(s2)
   1a4e6:	5496                	lw	s1,100(sp)
   1a4e8:	49f6                	lw	s3,92(sp)
   1a4ea:	4a66                	lw	s4,88(sp)
   1a4ec:	4ad6                	lw	s5,84(sp)
   1a4ee:	4b46                	lw	s6,80(sp)
   1a4f0:	4bb6                	lw	s7,76(sp)
   1a4f2:	4c26                	lw	s8,72(sp)
   1a4f4:	4c96                	lw	s9,68(sp)
   1a4f6:	854a                	mv	a0,s2
   1a4f8:	5906                	lw	s2,96(sp)
   1a4fa:	6165                	addi	sp,sp,112
   1a4fc:	8082                	ret
   1a4fe:	ee099be3          	bnez	s3,1a3f4 <__subtf3+0xf6a>
   1a502:	07a1                	addi	a5,a5,8
   1a504:	0087b793          	sltiu	a5,a5,8
   1a508:	bde1                	j	1a3e0 <__subtf3+0xf56>
   1a50a:	ee0985e3          	beqz	s3,1a3f4 <__subtf3+0xf6a>
   1a50e:	bfd5                	j	1a502 <__subtf3+0x1078>
   1a510:	f2099be3          	bnez	s3,1a446 <__subtf3+0xfbc>
   1a514:	0721                	addi	a4,a4,8
   1a516:	d03a                	sw	a4,32(sp)
   1a518:	00873713          	sltiu	a4,a4,8
   1a51c:	bf09                	j	1a42e <__subtf3+0xfa4>
   1a51e:	f20984e3          	beqz	s3,1a446 <__subtf3+0xfbc>
   1a522:	bfcd                	j	1a514 <__subtf3+0x108a>
   1a524:	4701                	li	a4,0
   1a526:	020a0063          	beqz	s4,1a546 <__subtf3+0x10bc>
   1a52a:	468d                	li	a3,3
   1a52c:	00da1863          	bne	s4,a3,1a53c <__subtf3+0x10b2>
   1a530:	00098b63          	beqz	s3,1a546 <__subtf3+0x10bc>
   1a534:	67a1                	lui	a5,0x8
   1a536:	577d                	li	a4,-1
   1a538:	17f9                	addi	a5,a5,-2 # 7ffe <exit-0x8096>
   1a53a:	a031                	j	1a546 <__subtf3+0x10bc>
   1a53c:	4689                	li	a3,2
   1a53e:	feda1be3          	bne	s4,a3,1a534 <__subtf3+0x10aa>
   1a542:	fe0989e3          	beqz	s3,1a534 <__subtf3+0x10aa>
   1a546:	d63a                	sw	a4,44(sp)
   1a548:	d43a                	sw	a4,40(sp)
   1a54a:	d23a                	sw	a4,36(sp)
   1a54c:	d03a                	sw	a4,32(sp)
   1a54e:	00546413          	ori	s0,s0,5
   1a552:	b705                	j	1a472 <__subtf3+0xfe8>
   1a554:	d636                	sw	a3,44(sp)
   1a556:	c76ff06f          	j	199cc <__subtf3+0x542>
   1a55a:	d68a8763          	beq	s5,s0,19ac8 <__subtf3+0x63e>
   1a55e:	4401                	li	s0,0
   1a560:	d16ff06f          	j	19a76 <__subtf3+0x5ec>
   1a564:	b68a8de3          	beq	s5,s0,1a0de <__subtf3+0xc54>
   1a568:	4401                	li	s0,0
   1a56a:	b699                	j	1a0b0 <__subtf3+0xc26>

0001a56c <__unordtf2>:
   1a56c:	4114                	lw	a3,0(a0)
   1a56e:	00452f03          	lw	t5,4(a0)
   1a572:	00852e83          	lw	t4,8(a0)
   1a576:	4550                	lw	a2,12(a0)
   1a578:	419c                	lw	a5,0(a1)
   1a57a:	0045ae03          	lw	t3,4(a1)
   1a57e:	0085a303          	lw	t1,8(a1)
   1a582:	45d8                	lw	a4,12(a1)
   1a584:	1141                	addi	sp,sp,-16
   1a586:	002025f3          	frrm	a1
   1a58a:	6521                	lui	a0,0x8
   1a58c:	01061813          	slli	a6,a2,0x10
   1a590:	157d                	addi	a0,a0,-1 # 7fff <exit-0x8095>
   1a592:	8241                	srli	a2,a2,0x10
   1a594:	01071593          	slli	a1,a4,0x10
   1a598:	8e69                	and	a2,a2,a0
   1a59a:	8341                	srli	a4,a4,0x10
   1a59c:	01085813          	srli	a6,a6,0x10
   1a5a0:	81c1                	srli	a1,a1,0x10
   1a5a2:	8f69                	and	a4,a4,a0
   1a5a4:	00a61963          	bne	a2,a0,1a5b6 <__unordtf2+0x4a>
   1a5a8:	01e6e533          	or	a0,a3,t5
   1a5ac:	01d56533          	or	a0,a0,t4
   1a5b0:	01056533          	or	a0,a0,a6
   1a5b4:	e51d                	bnez	a0,1a5e2 <__unordtf2+0x76>
   1a5b6:	68a1                	lui	a7,0x8
   1a5b8:	18fd                	addi	a7,a7,-1 # 7fff <exit-0x8095>
   1a5ba:	4501                	li	a0,0
   1a5bc:	05171c63          	bne	a4,a7,1a614 <__unordtf2+0xa8>
   1a5c0:	01c7e8b3          	or	a7,a5,t3
   1a5c4:	0068e8b3          	or	a7,a7,t1
   1a5c8:	00b8e8b3          	or	a7,a7,a1
   1a5cc:	04088463          	beqz	a7,1a614 <__unordtf2+0xa8>
   1a5d0:	02e61a63          	bne	a2,a4,1a604 <__unordtf2+0x98>
   1a5d4:	01e6e6b3          	or	a3,a3,t5
   1a5d8:	01d6e6b3          	or	a3,a3,t4
   1a5dc:	0106e6b3          	or	a3,a3,a6
   1a5e0:	ca99                	beqz	a3,1a5f6 <__unordtf2+0x8a>
   1a5e2:	0842                	slli	a6,a6,0x10
   1a5e4:	41085813          	srai	a6,a6,0x10
   1a5e8:	02085363          	bgez	a6,1a60e <__unordtf2+0xa2>
   1a5ec:	66a1                	lui	a3,0x8
   1a5ee:	16fd                	addi	a3,a3,-1 # 7fff <exit-0x8095>
   1a5f0:	4505                	li	a0,1
   1a5f2:	02d71163          	bne	a4,a3,1a614 <__unordtf2+0xa8>
   1a5f6:	01c7e7b3          	or	a5,a5,t3
   1a5fa:	0067e7b3          	or	a5,a5,t1
   1a5fe:	8fcd                	or	a5,a5,a1
   1a600:	4505                	li	a0,1
   1a602:	cb89                	beqz	a5,1a614 <__unordtf2+0xa8>
   1a604:	05c2                	slli	a1,a1,0x10
   1a606:	85c1                	srai	a1,a1,0x10
   1a608:	4505                	li	a0,1
   1a60a:	0005c563          	bltz	a1,1a614 <__unordtf2+0xa8>
   1a60e:	00186073          	csrsi	fflags,16
   1a612:	4505                	li	a0,1
   1a614:	0141                	addi	sp,sp,16
   1a616:	8082                	ret

0001a618 <__fixtfsi>:
   1a618:	411c                	lw	a5,0(a0)
   1a61a:	00452803          	lw	a6,4(a0)
   1a61e:	4518                	lw	a4,8(a0)
   1a620:	4550                	lw	a2,12(a0)
   1a622:	1101                	addi	sp,sp,-32
   1a624:	002026f3          	frrm	a3
   1a628:	01061693          	slli	a3,a2,0x10
   1a62c:	00161593          	slli	a1,a2,0x1
   1a630:	c632                	sw	a2,12(sp)
   1a632:	01f65893          	srli	a7,a2,0x1f
   1a636:	6611                	lui	a2,0x4
   1a638:	c03e                	sw	a5,0(sp)
   1a63a:	c242                	sw	a6,4(sp)
   1a63c:	c43a                	sw	a4,8(sp)
   1a63e:	c83e                	sw	a5,16(sp)
   1a640:	ca42                	sw	a6,20(sp)
   1a642:	cc3a                	sw	a4,24(sp)
   1a644:	81c5                	srli	a1,a1,0x11
   1a646:	1679                	addi	a2,a2,-2 # 3ffe <exit-0xc096>
   1a648:	82c1                	srli	a3,a3,0x10
   1a64a:	00b64a63          	blt	a2,a1,1a65e <__fixtfsi+0x46>
   1a64e:	e9f9                	bnez	a1,1a724 <__fixtfsi+0x10c>
   1a650:	0107e533          	or	a0,a5,a6
   1a654:	8d59                	or	a0,a0,a4
   1a656:	8d55                	or	a0,a0,a3
   1a658:	e571                	bnez	a0,1a724 <__fixtfsi+0x10c>
   1a65a:	6105                	addi	sp,sp,32
   1a65c:	8082                	ret
   1a65e:	6511                	lui	a0,0x4
   1a660:	0575                	addi	a0,a0,29 # 401d <exit-0xc077>
   1a662:	8646                	mv	a2,a7
   1a664:	02b55763          	bge	a0,a1,1a692 <__fixtfsi+0x7a>
   1a668:	0c088163          	beqz	a7,1a72a <__fixtfsi+0x112>
   1a66c:	6511                	lui	a0,0x4
   1a66e:	0579                	addi	a0,a0,30 # 401e <exit-0xc076>
   1a670:	0ca59263          	bne	a1,a0,1a734 <__fixtfsi+0x11c>
   1a674:	01175593          	srli	a1,a4,0x11
   1a678:	06be                	slli	a3,a3,0xf
   1a67a:	8ecd                	or	a3,a3,a1
   1a67c:	eec5                	bnez	a3,1a734 <__fixtfsi+0x11c>
   1a67e:	0107e7b3          	or	a5,a5,a6
   1a682:	073e                	slli	a4,a4,0xf
   1a684:	8f5d                	or	a4,a4,a5
   1a686:	80000537          	lui	a0,0x80000
   1a68a:	db61                	beqz	a4,1a65a <__fixtfsi+0x42>
   1a68c:	00162073          	csrs	fflags,a2
   1a690:	b7e9                	j	1a65a <__fixtfsi+0x42>
   1a692:	67c1                	lui	a5,0x10
   1a694:	8fd5                	or	a5,a5,a3
   1a696:	6691                	lui	a3,0x4
   1a698:	06f68693          	addi	a3,a3,111 # 406f <exit-0xc025>
   1a69c:	8e8d                	sub	a3,a3,a1
   1a69e:	4056d513          	srai	a0,a3,0x5
   1a6a2:	ce3e                	sw	a5,28(sp)
   1a6a4:	8afd                	andi	a3,a3,31
   1a6a6:	080c                	addi	a1,sp,16
   1a6a8:	4801                	li	a6,0
   1a6aa:	4601                	li	a2,0
   1a6ac:	0005a303          	lw	t1,0(a1)
   1a6b0:	0605                	addi	a2,a2,1
   1a6b2:	0591                	addi	a1,a1,4
   1a6b4:	00686833          	or	a6,a6,t1
   1a6b8:	fec51ae3          	bne	a0,a2,1a6ac <__fixtfsi+0x94>
   1a6bc:	00251613          	slli	a2,a0,0x2
   1a6c0:	e28d                	bnez	a3,1a6e2 <__fixtfsi+0xca>
   1a6c2:	02060793          	addi	a5,a2,32
   1a6c6:	00278633          	add	a2,a5,sp
   1a6ca:	ff062783          	lw	a5,-16(a2)
   1a6ce:	c83e                	sw	a5,16(sp)
   1a6d0:	4542                	lw	a0,16(sp)
   1a6d2:	00088463          	beqz	a7,1a6da <__fixtfsi+0xc2>
   1a6d6:	40a00533          	neg	a0,a0
   1a6da:	4605                	li	a2,1
   1a6dc:	fa0818e3          	bnez	a6,1a68c <__fixtfsi+0x74>
   1a6e0:	bfad                	j	1a65a <__fixtfsi+0x42>
   1a6e2:	02060613          	addi	a2,a2,32
   1a6e6:	960a                	add	a2,a2,sp
   1a6e8:	ff062603          	lw	a2,-16(a2)
   1a6ec:	02000593          	li	a1,32
   1a6f0:	8d95                	sub	a1,a1,a3
   1a6f2:	00b61633          	sll	a2,a2,a1
   1a6f6:	4309                	li	t1,2
   1a6f8:	00c86833          	or	a6,a6,a2
   1a6fc:	4601                	li	a2,0
   1a6fe:	00651963          	bne	a0,t1,1a710 <__fixtfsi+0xf8>
   1a702:	00d75733          	srl	a4,a4,a3
   1a706:	00b795b3          	sll	a1,a5,a1
   1a70a:	8f4d                	or	a4,a4,a1
   1a70c:	c83a                	sw	a4,16(sp)
   1a70e:	4605                	li	a2,1
   1a710:	060a                	slli	a2,a2,0x2
   1a712:	02060713          	addi	a4,a2,32
   1a716:	00270633          	add	a2,a4,sp
   1a71a:	00d7d7b3          	srl	a5,a5,a3
   1a71e:	fef62823          	sw	a5,-16(a2)
   1a722:	b77d                	j	1a6d0 <__fixtfsi+0xb8>
   1a724:	4605                	li	a2,1
   1a726:	4501                	li	a0,0
   1a728:	b795                	j	1a68c <__fixtfsi+0x74>
   1a72a:	80000537          	lui	a0,0x80000
   1a72e:	4641                	li	a2,16
   1a730:	157d                	addi	a0,a0,-1 # 7fffffff <__BSS_END__+0x7ffe3333>
   1a732:	bfa9                	j	1a68c <__fixtfsi+0x74>
   1a734:	4641                	li	a2,16
   1a736:	80000537          	lui	a0,0x80000
   1a73a:	bf89                	j	1a68c <__fixtfsi+0x74>

0001a73c <__floatsitf>:
   1a73c:	7179                	addi	sp,sp,-48
   1a73e:	d226                	sw	s1,36(sp)
   1a740:	d606                	sw	ra,44(sp)
   1a742:	d422                	sw	s0,40(sp)
   1a744:	d04a                	sw	s2,32(sp)
   1a746:	84aa                	mv	s1,a0
   1a748:	cdcd                	beqz	a1,1a802 <__floatsitf+0xc6>
   1a74a:	41f5d793          	srai	a5,a1,0x1f
   1a74e:	00b7c433          	xor	s0,a5,a1
   1a752:	8c1d                	sub	s0,s0,a5
   1a754:	8522                	mv	a0,s0
   1a756:	01f5d913          	srli	s2,a1,0x1f
   1a75a:	2481                	jal	1a99a <__clzsi2>
   1a75c:	6711                	lui	a4,0x4
   1a75e:	0779                	addi	a4,a4,30 # 401e <exit-0xc076>
   1a760:	05150793          	addi	a5,a0,81 # 80000051 <__BSS_END__+0x7ffe3385>
   1a764:	40a70633          	sub	a2,a4,a0
   1a768:	c822                	sw	s0,16(sp)
   1a76a:	4057d713          	srai	a4,a5,0x5
   1a76e:	ca02                	sw	zero,20(sp)
   1a770:	cc02                	sw	zero,24(sp)
   1a772:	ce02                	sw	zero,28(sp)
   1a774:	8bfd                	andi	a5,a5,31
   1a776:	c78d                	beqz	a5,1a7a0 <__floatsitf+0x64>
   1a778:	4689                	li	a3,2
   1a77a:	08d71263          	bne	a4,a3,1a7fe <__floatsitf+0xc2>
   1a77e:	02000693          	li	a3,32
   1a782:	8e9d                	sub	a3,a3,a5
   1a784:	00d456b3          	srl	a3,s0,a3
   1a788:	ce36                	sw	a3,28(sp)
   1a78a:	fff70693          	addi	a3,a4,-1
   1a78e:	070a                	slli	a4,a4,0x2
   1a790:	02070713          	addi	a4,a4,32
   1a794:	970a                	add	a4,a4,sp
   1a796:	00f41433          	sll	s0,s0,a5
   1a79a:	fe872823          	sw	s0,-16(a4)
   1a79e:	a005                	j	1a7be <__floatsitf+0x82>
   1a7a0:	478d                	li	a5,3
   1a7a2:	8f99                	sub	a5,a5,a4
   1a7a4:	078a                	slli	a5,a5,0x2
   1a7a6:	02078793          	addi	a5,a5,32 # 10020 <exit-0x74>
   1a7aa:	978a                	add	a5,a5,sp
   1a7ac:	ff07a783          	lw	a5,-16(a5)
   1a7b0:	4689                	li	a3,2
   1a7b2:	ce3e                	sw	a5,28(sp)
   1a7b4:	4789                	li	a5,2
   1a7b6:	00f71463          	bne	a4,a5,1a7be <__floatsitf+0x82>
   1a7ba:	cc22                	sw	s0,24(sp)
   1a7bc:	4685                	li	a3,1
   1a7be:	068a                	slli	a3,a3,0x2
   1a7c0:	c802                	sw	zero,16(sp)
   1a7c2:	ca02                	sw	zero,20(sp)
   1a7c4:	16f1                	addi	a3,a3,-4
   1a7c6:	4791                	li	a5,4
   1a7c8:	00f6e363          	bltu	a3,a5,1a7ce <__floatsitf+0x92>
   1a7cc:	cc02                	sw	zero,24(sp)
   1a7ce:	85ca                	mv	a1,s2
   1a7d0:	47f2                	lw	a5,28(sp)
   1a7d2:	00f59413          	slli	s0,a1,0xf
   1a7d6:	8c51                	or	s0,s0,a2
   1a7d8:	00811723          	sh	s0,14(sp)
   1a7dc:	00f11623          	sh	a5,12(sp)
   1a7e0:	4542                	lw	a0,16(sp)
   1a7e2:	46d2                	lw	a3,20(sp)
   1a7e4:	4762                	lw	a4,24(sp)
   1a7e6:	47b2                	lw	a5,12(sp)
   1a7e8:	50b2                	lw	ra,44(sp)
   1a7ea:	5422                	lw	s0,40(sp)
   1a7ec:	c088                	sw	a0,0(s1)
   1a7ee:	c0d4                	sw	a3,4(s1)
   1a7f0:	c498                	sw	a4,8(s1)
   1a7f2:	c4dc                	sw	a5,12(s1)
   1a7f4:	5902                	lw	s2,32(sp)
   1a7f6:	8526                	mv	a0,s1
   1a7f8:	5492                	lw	s1,36(sp)
   1a7fa:	6145                	addi	sp,sp,48
   1a7fc:	8082                	ret
   1a7fe:	470d                	li	a4,3
   1a800:	b769                	j	1a78a <__floatsitf+0x4e>
   1a802:	ce02                	sw	zero,28(sp)
   1a804:	cc02                	sw	zero,24(sp)
   1a806:	ca02                	sw	zero,20(sp)
   1a808:	c802                	sw	zero,16(sp)
   1a80a:	4601                	li	a2,0
   1a80c:	b7d1                	j	1a7d0 <__floatsitf+0x94>

0001a80e <__extenddftf2>:
   1a80e:	7139                	addi	sp,sp,-64
   1a810:	d84a                	sw	s2,48(sp)
   1a812:	d64e                	sw	s3,44(sp)
   1a814:	de06                	sw	ra,60(sp)
   1a816:	dc22                	sw	s0,56(sp)
   1a818:	da26                	sw	s1,52(sp)
   1a81a:	89aa                	mv	s3,a0
   1a81c:	892e                	mv	s2,a1
   1a81e:	002027f3          	frrm	a5
   1a822:	01465413          	srli	s0,a2,0x14
   1a826:	00c61793          	slli	a5,a2,0xc
   1a82a:	7ff47413          	andi	s0,s0,2047
   1a82e:	83b1                	srli	a5,a5,0xc
   1a830:	00140713          	addi	a4,s0,1
   1a834:	c82e                	sw	a1,16(sp)
   1a836:	ca3e                	sw	a5,20(sp)
   1a838:	ce02                	sw	zero,28(sp)
   1a83a:	cc02                	sw	zero,24(sp)
   1a83c:	7fe77713          	andi	a4,a4,2046
   1a840:	01f65493          	srli	s1,a2,0x1f
   1a844:	c325                	beqz	a4,1a8a4 <__extenddftf2+0x96>
   1a846:	0047d693          	srli	a3,a5,0x4
   1a84a:	6711                	lui	a4,0x4
   1a84c:	ce36                	sw	a3,28(sp)
   1a84e:	07f2                	slli	a5,a5,0x1c
   1a850:	0045d693          	srli	a3,a1,0x4
   1a854:	c0070713          	addi	a4,a4,-1024 # 3c00 <exit-0xc494>
   1a858:	8fd5                	or	a5,a5,a3
   1a85a:	01c59913          	slli	s2,a1,0x1c
   1a85e:	9722                	add	a4,a4,s0
   1a860:	cc3e                	sw	a5,24(sp)
   1a862:	ca4a                	sw	s2,20(sp)
   1a864:	c802                	sw	zero,16(sp)
   1a866:	4401                	li	s0,0
   1a868:	47f2                	lw	a5,28(sp)
   1a86a:	04be                	slli	s1,s1,0xf
   1a86c:	8cd9                	or	s1,s1,a4
   1a86e:	00f11623          	sh	a5,12(sp)
   1a872:	00911723          	sh	s1,14(sp)
   1a876:	45c2                	lw	a1,16(sp)
   1a878:	4652                	lw	a2,20(sp)
   1a87a:	46e2                	lw	a3,24(sp)
   1a87c:	47b2                	lw	a5,12(sp)
   1a87e:	c019                	beqz	s0,1a884 <__extenddftf2+0x76>
   1a880:	00186073          	csrsi	fflags,16
   1a884:	50f2                	lw	ra,60(sp)
   1a886:	5462                	lw	s0,56(sp)
   1a888:	00b9a023          	sw	a1,0(s3)
   1a88c:	00c9a223          	sw	a2,4(s3)
   1a890:	00d9a423          	sw	a3,8(s3)
   1a894:	00f9a623          	sw	a5,12(s3)
   1a898:	54d2                	lw	s1,52(sp)
   1a89a:	5942                	lw	s2,48(sp)
   1a89c:	854e                	mv	a0,s3
   1a89e:	59b2                	lw	s3,44(sp)
   1a8a0:	6121                	addi	sp,sp,64
   1a8a2:	8082                	ret
   1a8a4:	00b7e533          	or	a0,a5,a1
   1a8a8:	e061                	bnez	s0,1a968 <__extenddftf2+0x15a>
   1a8aa:	4701                	li	a4,0
   1a8ac:	dd55                	beqz	a0,1a868 <__extenddftf2+0x5a>
   1a8ae:	c7a1                	beqz	a5,1a8f6 <__extenddftf2+0xe8>
   1a8b0:	853e                	mv	a0,a5
   1a8b2:	20e5                	jal	1a99a <__clzsi2>
   1a8b4:	03150693          	addi	a3,a0,49
   1a8b8:	4056d793          	srai	a5,a3,0x5
   1a8bc:	8afd                	andi	a3,a3,31
   1a8be:	c2a1                	beqz	a3,1a8fe <__extenddftf2+0xf0>
   1a8c0:	5671                	li	a2,-4
   1a8c2:	02c78633          	mul	a2,a5,a2
   1a8c6:	02000813          	li	a6,32
   1a8ca:	01010313          	addi	t1,sp,16
   1a8ce:	40d80833          	sub	a6,a6,a3
   1a8d2:	00c60713          	addi	a4,a2,12
   1a8d6:	971a                	add	a4,a4,t1
   1a8d8:	40c00633          	neg	a2,a2
   1a8dc:	06e31763          	bne	t1,a4,1a94a <__extenddftf2+0x13c>
   1a8e0:	fff78713          	addi	a4,a5,-1
   1a8e4:	078a                	slli	a5,a5,0x2
   1a8e6:	02078793          	addi	a5,a5,32
   1a8ea:	978a                	add	a5,a5,sp
   1a8ec:	00d916b3          	sll	a3,s2,a3
   1a8f0:	fed7a823          	sw	a3,-16(a5)
   1a8f4:	a025                	j	1a91c <__extenddftf2+0x10e>
   1a8f6:	2055                	jal	1a99a <__clzsi2>
   1a8f8:	02050513          	addi	a0,a0,32
   1a8fc:	bf65                	j	1a8b4 <__extenddftf2+0xa6>
   1a8fe:	5671                	li	a2,-4
   1a900:	02c78633          	mul	a2,a5,a2
   1a904:	0878                	addi	a4,sp,28
   1a906:	468d                	li	a3,3
   1a908:	00c705b3          	add	a1,a4,a2
   1a90c:	418c                	lw	a1,0(a1)
   1a90e:	16fd                	addi	a3,a3,-1
   1a910:	1771                	addi	a4,a4,-4
   1a912:	c34c                	sw	a1,4(a4)
   1a914:	fef6dae3          	bge	a3,a5,1a908 <__extenddftf2+0xfa>
   1a918:	fff78713          	addi	a4,a5,-1
   1a91c:	00170793          	addi	a5,a4,1
   1a920:	078a                	slli	a5,a5,0x2
   1a922:	46a1                	li	a3,8
   1a924:	0818                	addi	a4,sp,16
   1a926:	00d7e863          	bltu	a5,a3,1a936 <__extenddftf2+0x128>
   1a92a:	00072023          	sw	zero,0(a4)
   1a92e:	00072223          	sw	zero,4(a4)
   1a932:	17e1                	addi	a5,a5,-8
   1a934:	0838                	addi	a4,sp,24
   1a936:	4691                	li	a3,4
   1a938:	00d7e463          	bltu	a5,a3,1a940 <__extenddftf2+0x132>
   1a93c:	00072023          	sw	zero,0(a4)
   1a940:	6711                	lui	a4,0x4
   1a942:	c0c70713          	addi	a4,a4,-1012 # 3c0c <exit-0xc488>
   1a946:	8f09                	sub	a4,a4,a0
   1a948:	b705                	j	1a868 <__extenddftf2+0x5a>
   1a94a:	430c                	lw	a1,0(a4)
   1a94c:	ffc72883          	lw	a7,-4(a4)
   1a950:	00c70e33          	add	t3,a4,a2
   1a954:	00d595b3          	sll	a1,a1,a3
   1a958:	0108d8b3          	srl	a7,a7,a6
   1a95c:	0115e5b3          	or	a1,a1,a7
   1a960:	00be2023          	sw	a1,0(t3)
   1a964:	1771                	addi	a4,a4,-4
   1a966:	bf9d                	j	1a8dc <__extenddftf2+0xce>
   1a968:	c515                	beqz	a0,1a994 <__extenddftf2+0x186>
   1a96a:	01c79713          	slli	a4,a5,0x1c
   1a96e:	0045d693          	srli	a3,a1,0x4
   1a972:	8f55                	or	a4,a4,a3
   1a974:	00080437          	lui	s0,0x80
   1a978:	0087b433          	sltu	s0,a5,s0
   1a97c:	cc3a                	sw	a4,24(sp)
   1a97e:	8391                	srli	a5,a5,0x4
   1a980:	6721                	lui	a4,0x8
   1a982:	01c59913          	slli	s2,a1,0x1c
   1a986:	8fd9                	or	a5,a5,a4
   1a988:	0412                	slli	s0,s0,0x4
   1a98a:	ca4a                	sw	s2,20(sp)
   1a98c:	c802                	sw	zero,16(sp)
   1a98e:	ce3e                	sw	a5,28(sp)
   1a990:	177d                	addi	a4,a4,-1 # 7fff <exit-0x8095>
   1a992:	bdd9                	j	1a868 <__extenddftf2+0x5a>
   1a994:	4401                	li	s0,0
   1a996:	6721                	lui	a4,0x8
   1a998:	bfe5                	j	1a990 <__extenddftf2+0x182>

0001a99a <__clzsi2>:
   1a99a:	67c1                	lui	a5,0x10
   1a99c:	02f57563          	bgeu	a0,a5,1a9c6 <__clzsi2+0x2c>
   1a9a0:	10053793          	sltiu	a5,a0,256
   1a9a4:	0017b793          	seqz	a5,a5
   1a9a8:	078e                	slli	a5,a5,0x3
   1a9aa:	676d                	lui	a4,0x1b
   1a9ac:	02000693          	li	a3,32
   1a9b0:	8e9d                	sub	a3,a3,a5
   1a9b2:	00f55533          	srl	a0,a0,a5
   1a9b6:	16470793          	addi	a5,a4,356 # 1b164 <__clz_tab>
   1a9ba:	97aa                	add	a5,a5,a0
   1a9bc:	0007c503          	lbu	a0,0(a5) # 10000 <exit-0x94>
   1a9c0:	40a68533          	sub	a0,a3,a0
   1a9c4:	8082                	ret
   1a9c6:	01000737          	lui	a4,0x1000
   1a9ca:	47e1                	li	a5,24
   1a9cc:	fce57fe3          	bgeu	a0,a4,1a9aa <__clzsi2+0x10>
   1a9d0:	47c1                	li	a5,16
   1a9d2:	bfe1                	j	1a9aa <__clzsi2+0x10>
