
Conv2d_basic_O3:     file format elf32-littleriscv


Disassembly of section .text:

00010094 <exit>:
   10094:	1141                	addi	sp,sp,-16
   10096:	4581                	li	a1,0
   10098:	c422                	sw	s0,8(sp)
   1009a:	c606                	sw	ra,12(sp)
   1009c:	842a                	mv	s0,a0
   1009e:	6ca010ef          	jal	11768 <__call_exitprocs>
   100a2:	f341a783          	lw	a5,-204(gp) # 1c9ac <__stdio_exit_handler>
   100a6:	c391                	beqz	a5,100aa <exit+0x16>
   100a8:	9782                	jalr	a5
   100aa:	8522                	mv	a0,s0
   100ac:	28c080ef          	jal	18338 <_exit>

000100b0 <main>:
   100b0:	deadc537          	lui	a0,0xdeadc
   100b4:	1101                	addi	sp,sp,-32
   100b6:	eef50513          	addi	a0,a0,-273 # deadbeef <__BSS_END__+0xdeabf223>
   100ba:	ce06                	sw	ra,28(sp)
   100bc:	cc22                	sw	s0,24(sp)
   100be:	ca26                	sw	s1,20(sp)
   100c0:	c84a                	sw	s2,16(sp)
   100c2:	c64e                	sw	s3,12(sp)
   100c4:	c452                	sw	s4,8(sp)
   100c6:	6b5000ef          	jal	10f7a <srand>
   100ca:	4591                	li	a1,4
   100cc:	4511                	li	a0,4
   100ce:	7be000ef          	jal	1088c <alloc_array_2d>
   100d2:	4611                	li	a2,4
   100d4:	4591                	li	a1,4
   100d6:	89aa                	mv	s3,a0
   100d8:	2b21                	jal	105f0 <gen_rand_2d>
   100da:	4611                	li	a2,4
   100dc:	4591                	li	a1,4
   100de:	854e                	mv	a0,s3
   100e0:	25a5                	jal	10748 <print_array_2d>
   100e2:	4589                	li	a1,2
   100e4:	4509                	li	a0,2
   100e6:	7a6000ef          	jal	1088c <alloc_array_2d>
   100ea:	892a                	mv	s2,a0
   100ec:	458d                	li	a1,3
   100ee:	450d                	li	a0,3
   100f0:	79c000ef          	jal	1088c <alloc_array_2d>
   100f4:	84aa                	mv	s1,a0
   100f6:	458d                	li	a1,3
   100f8:	450d                	li	a0,3
   100fa:	792000ef          	jal	1088c <alloc_array_2d>
   100fe:	411c                	lw	a5,0(a0)
   10100:	06e00093          	li	ra,110
   10104:	05300393          	li	t2,83
   10108:	00178023          	sb	ra,0(a5)
   1010c:	411c                	lw	a5,0(a0)
   1010e:	52f5                	li	t0,-3
   10110:	5fc5                	li	t6,-15
   10112:	007780a3          	sb	t2,1(a5)
   10116:	411c                	lw	a5,0(a0)
   10118:	5f11                	li	t5,-28
   1011a:	fc400e93          	li	t4,-60
   1011e:	00578123          	sb	t0,2(a5)
   10122:	415c                	lw	a5,4(a0)
   10124:	02f00e13          	li	t3,47
   10128:	5305                	li	t1,-31
   1012a:	01f78023          	sb	t6,0(a5)
   1012e:	415c                	lw	a5,4(a0)
   10130:	58f9                	li	a7,-2
   10132:	842a                	mv	s0,a0
   10134:	01e780a3          	sb	t5,1(a5)
   10138:	415c                	lw	a5,4(a0)
   1013a:	4711                	li	a4,4
   1013c:	4809                	li	a6,2
   1013e:	01d78123          	sb	t4,2(a5)
   10142:	4514                	lw	a3,8(a0)
   10144:	4789                	li	a5,2
   10146:	8626                	mv	a2,s1
   10148:	01c68023          	sb	t3,0(a3)
   1014c:	450c                	lw	a1,8(a0)
   1014e:	4691                	li	a3,4
   10150:	006580a3          	sb	t1,1(a1)
   10154:	00852a03          	lw	s4,8(a0)
   10158:	85ca                	mv	a1,s2
   1015a:	854e                	mv	a0,s3
   1015c:	011a0123          	sb	a7,2(s4)
   10160:	00042a03          	lw	s4,0(s0)
   10164:	001a0023          	sb	ra,0(s4)
   10168:	00042a03          	lw	s4,0(s0)
   1016c:	007a00a3          	sb	t2,1(s4)
   10170:	00042a03          	lw	s4,0(s0)
   10174:	005a0123          	sb	t0,2(s4)
   10178:	00442a03          	lw	s4,4(s0)
   1017c:	01fa0023          	sb	t6,0(s4)
   10180:	00442a03          	lw	s4,4(s0)
   10184:	01ea00a3          	sb	t5,1(s4)
   10188:	00442a03          	lw	s4,4(s0)
   1018c:	01da0123          	sb	t4,2(s4)
   10190:	00842a03          	lw	s4,8(s0)
   10194:	01ca0023          	sb	t3,0(s4)
   10198:	00842a03          	lw	s4,8(s0)
   1019c:	006a00a3          	sb	t1,1(s4)
   101a0:	00842a03          	lw	s4,8(s0)
   101a4:	011a0123          	sb	a7,2(s4)
   101a8:	00042a03          	lw	s4,0(s0)
   101ac:	001a0023          	sb	ra,0(s4)
   101b0:	00042a03          	lw	s4,0(s0)
   101b4:	007a00a3          	sb	t2,1(s4)
   101b8:	00042a03          	lw	s4,0(s0)
   101bc:	005a0123          	sb	t0,2(s4)
   101c0:	00442a03          	lw	s4,4(s0)
   101c4:	01fa0023          	sb	t6,0(s4)
   101c8:	00442a03          	lw	s4,4(s0)
   101cc:	01ea00a3          	sb	t5,1(s4)
   101d0:	00442a03          	lw	s4,4(s0)
   101d4:	01da0123          	sb	t4,2(s4)
   101d8:	00842a03          	lw	s4,8(s0)
   101dc:	01ca0023          	sb	t3,0(s4)
   101e0:	00842a03          	lw	s4,8(s0)
   101e4:	006a00a3          	sb	t1,1(s4)
   101e8:	00842a03          	lw	s4,8(s0)
   101ec:	011a0123          	sb	a7,2(s4)
   101f0:	00042a03          	lw	s4,0(s0)
   101f4:	001a0023          	sb	ra,0(s4)
   101f8:	00042a03          	lw	s4,0(s0)
   101fc:	007a00a3          	sb	t2,1(s4)
   10200:	00042a03          	lw	s4,0(s0)
   10204:	005a0123          	sb	t0,2(s4)
   10208:	00442a03          	lw	s4,4(s0)
   1020c:	01fa0023          	sb	t6,0(s4)
   10210:	00442a03          	lw	s4,4(s0)
   10214:	01ea00a3          	sb	t5,1(s4)
   10218:	00442a03          	lw	s4,4(s0)
   1021c:	01da0123          	sb	t4,2(s4)
   10220:	00842a03          	lw	s4,8(s0)
   10224:	01ca0023          	sb	t3,0(s4)
   10228:	00842a03          	lw	s4,8(s0)
   1022c:	006a00a3          	sb	t1,1(s4)
   10230:	00842a03          	lw	s4,8(s0)
   10234:	011a0123          	sb	a7,2(s4)
   10238:	00042a03          	lw	s4,0(s0)
   1023c:	001a0023          	sb	ra,0(s4)
   10240:	00042a03          	lw	s4,0(s0)
   10244:	007a00a3          	sb	t2,1(s4)
   10248:	00042a03          	lw	s4,0(s0)
   1024c:	005a0123          	sb	t0,2(s4)
   10250:	00442a03          	lw	s4,4(s0)
   10254:	01fa0023          	sb	t6,0(s4)
   10258:	00442a03          	lw	s4,4(s0)
   1025c:	01ea00a3          	sb	t5,1(s4)
   10260:	00442a03          	lw	s4,4(s0)
   10264:	01da0123          	sb	t4,2(s4)
   10268:	00842a03          	lw	s4,8(s0)
   1026c:	01ca0023          	sb	t3,0(s4)
   10270:	00842a03          	lw	s4,8(s0)
   10274:	006a00a3          	sb	t1,1(s4)
   10278:	00842a03          	lw	s4,8(s0)
   1027c:	011a0123          	sb	a7,2(s4)
   10280:	00042a03          	lw	s4,0(s0)
   10284:	001a0023          	sb	ra,0(s4)
   10288:	00042a03          	lw	s4,0(s0)
   1028c:	007a00a3          	sb	t2,1(s4)
   10290:	00042a03          	lw	s4,0(s0)
   10294:	005a0123          	sb	t0,2(s4)
   10298:	00442a03          	lw	s4,4(s0)
   1029c:	01fa0023          	sb	t6,0(s4)
   102a0:	00442a03          	lw	s4,4(s0)
   102a4:	01ea00a3          	sb	t5,1(s4)
   102a8:	00442a03          	lw	s4,4(s0)
   102ac:	01da0123          	sb	t4,2(s4)
   102b0:	00842a03          	lw	s4,8(s0)
   102b4:	01ca0023          	sb	t3,0(s4)
   102b8:	00842a03          	lw	s4,8(s0)
   102bc:	006a00a3          	sb	t1,1(s4)
   102c0:	00842a03          	lw	s4,8(s0)
   102c4:	011a0123          	sb	a7,2(s4)
   102c8:	00042a03          	lw	s4,0(s0)
   102cc:	001a0023          	sb	ra,0(s4)
   102d0:	00042a03          	lw	s4,0(s0)
   102d4:	007a00a3          	sb	t2,1(s4)
   102d8:	00042a03          	lw	s4,0(s0)
   102dc:	005a0123          	sb	t0,2(s4)
   102e0:	00442a03          	lw	s4,4(s0)
   102e4:	01fa0023          	sb	t6,0(s4)
   102e8:	00442a03          	lw	s4,4(s0)
   102ec:	01ea00a3          	sb	t5,1(s4)
   102f0:	00442a03          	lw	s4,4(s0)
   102f4:	01da0123          	sb	t4,2(s4)
   102f8:	00842a03          	lw	s4,8(s0)
   102fc:	01ca0023          	sb	t3,0(s4)
   10300:	00842a03          	lw	s4,8(s0)
   10304:	006a00a3          	sb	t1,1(s4)
   10308:	00842a03          	lw	s4,8(s0)
   1030c:	011a0123          	sb	a7,2(s4)
   10310:	00042a03          	lw	s4,0(s0)
   10314:	001a0023          	sb	ra,0(s4)
   10318:	00042a03          	lw	s4,0(s0)
   1031c:	007a00a3          	sb	t2,1(s4)
   10320:	00042a03          	lw	s4,0(s0)
   10324:	005a0123          	sb	t0,2(s4)
   10328:	00442a03          	lw	s4,4(s0)
   1032c:	01fa0023          	sb	t6,0(s4)
   10330:	00442a03          	lw	s4,4(s0)
   10334:	01ea00a3          	sb	t5,1(s4)
   10338:	00442a03          	lw	s4,4(s0)
   1033c:	01da0123          	sb	t4,2(s4)
   10340:	00842a03          	lw	s4,8(s0)
   10344:	01ca0023          	sb	t3,0(s4)
   10348:	00842a03          	lw	s4,8(s0)
   1034c:	006a00a3          	sb	t1,1(s4)
   10350:	00842a03          	lw	s4,8(s0)
   10354:	011a0123          	sb	a7,2(s4)
   10358:	00042a03          	lw	s4,0(s0)
   1035c:	001a0023          	sb	ra,0(s4)
   10360:	00042083          	lw	ra,0(s0)
   10364:	007080a3          	sb	t2,1(ra)
   10368:	00042383          	lw	t2,0(s0)
   1036c:	00538123          	sb	t0,2(t2)
   10370:	00442283          	lw	t0,4(s0)
   10374:	01f28023          	sb	t6,0(t0)
   10378:	00442f83          	lw	t6,4(s0)
   1037c:	01ef80a3          	sb	t5,1(t6)
   10380:	00442f03          	lw	t5,4(s0)
   10384:	01df0123          	sb	t4,2(t5)
   10388:	00842e83          	lw	t4,8(s0)
   1038c:	01ce8023          	sb	t3,0(t4)
   10390:	00842e03          	lw	t3,8(s0)
   10394:	006e00a3          	sb	t1,1(t3)
   10398:	00842303          	lw	t1,8(s0)
   1039c:	01130123          	sb	a7,2(t1)
   103a0:	00092883          	lw	a7,0(s2)
   103a4:	4305                	li	t1,1
   103a6:	00688023          	sb	t1,0(a7)
   103aa:	00092883          	lw	a7,0(s2)
   103ae:	537d                	li	t1,-1
   103b0:	000880a3          	sb	zero,1(a7)
   103b4:	00492883          	lw	a7,4(s2)
   103b8:	00088023          	sb	zero,0(a7)
   103bc:	00492883          	lw	a7,4(s2)
   103c0:	006880a3          	sb	t1,1(a7)
   103c4:	23b1                	jal	10910 <conv2d>
   103c6:	656d                	lui	a0,0x1b
   103c8:	a3450513          	addi	a0,a0,-1484 # 1aa34 <__clzsi2+0x9a>
   103cc:	7bb000ef          	jal	11386 <puts>
   103d0:	460d                	li	a2,3
   103d2:	458d                	li	a1,3
   103d4:	8526                	mv	a0,s1
   103d6:	2e8d                	jal	10748 <print_array_2d>
   103d8:	4098                	lw	a4,0(s1)
   103da:	401c                	lw	a5,0(s0)
   103dc:	00070603          	lb	a2,0(a4)
   103e0:	00078683          	lb	a3,0(a5)
   103e4:	0cd61163          	bne	a2,a3,104a6 <main+0x3f6>
   103e8:	00170603          	lb	a2,1(a4)
   103ec:	00178683          	lb	a3,1(a5)
   103f0:	0ad61b63          	bne	a2,a3,104a6 <main+0x3f6>
   103f4:	00270703          	lb	a4,2(a4)
   103f8:	00278783          	lb	a5,2(a5)
   103fc:	0af71563          	bne	a4,a5,104a6 <main+0x3f6>
   10400:	40dc                	lw	a5,4(s1)
   10402:	4058                	lw	a4,4(s0)
   10404:	00078603          	lb	a2,0(a5)
   10408:	00070683          	lb	a3,0(a4)
   1040c:	08d61d63          	bne	a2,a3,104a6 <main+0x3f6>
   10410:	00178603          	lb	a2,1(a5)
   10414:	00170683          	lb	a3,1(a4)
   10418:	08d61763          	bne	a2,a3,104a6 <main+0x3f6>
   1041c:	00270703          	lb	a4,2(a4)
   10420:	00278783          	lb	a5,2(a5)
   10424:	08f71163          	bne	a4,a5,104a6 <main+0x3f6>
   10428:	4498                	lw	a4,8(s1)
   1042a:	441c                	lw	a5,8(s0)
   1042c:	00070603          	lb	a2,0(a4)
   10430:	00078683          	lb	a3,0(a5)
   10434:	06d61963          	bne	a2,a3,104a6 <main+0x3f6>
   10438:	00170603          	lb	a2,1(a4)
   1043c:	00178683          	lb	a3,1(a5)
   10440:	06d61363          	bne	a2,a3,104a6 <main+0x3f6>
   10444:	00270703          	lb	a4,2(a4)
   10448:	00278783          	lb	a5,2(a5)
   1044c:	04f71d63          	bne	a4,a5,104a6 <main+0x3f6>
   10450:	65ed                	lui	a1,0x1b
   10452:	a1c58593          	addi	a1,a1,-1508 # 1aa1c <__clzsi2+0x82>
   10456:	656d                	lui	a0,0x1b
   10458:	a5050513          	addi	a0,a0,-1456 # 1aa50 <__clzsi2+0xb6>
   1045c:	671000ef          	jal	112cc <printf>
   10460:	844e                	mv	s0,s3
   10462:	01098a13          	addi	s4,s3,16
   10466:	4008                	lw	a0,0(s0)
   10468:	0411                	addi	s0,s0,4
   1046a:	2bb9                	jal	109c8 <free>
   1046c:	fe8a1de3          	bne	s4,s0,10466 <main+0x3b6>
   10470:	854e                	mv	a0,s3
   10472:	2b99                	jal	109c8 <free>
   10474:	4088                	lw	a0,0(s1)
   10476:	2b89                	jal	109c8 <free>
   10478:	40c8                	lw	a0,4(s1)
   1047a:	23b9                	jal	109c8 <free>
   1047c:	4488                	lw	a0,8(s1)
   1047e:	23a9                	jal	109c8 <free>
   10480:	8526                	mv	a0,s1
   10482:	2399                	jal	109c8 <free>
   10484:	00092503          	lw	a0,0(s2)
   10488:	2381                	jal	109c8 <free>
   1048a:	00492503          	lw	a0,4(s2)
   1048e:	2b2d                	jal	109c8 <free>
   10490:	854a                	mv	a0,s2
   10492:	2b1d                	jal	109c8 <free>
   10494:	40f2                	lw	ra,28(sp)
   10496:	4462                	lw	s0,24(sp)
   10498:	44d2                	lw	s1,20(sp)
   1049a:	4942                	lw	s2,16(sp)
   1049c:	49b2                	lw	s3,12(sp)
   1049e:	4a22                	lw	s4,8(sp)
   104a0:	4501                	li	a0,0
   104a2:	6105                	addi	sp,sp,32
   104a4:	8082                	ret
   104a6:	65ed                	lui	a1,0x1b
   104a8:	a2858593          	addi	a1,a1,-1496 # 1aa28 <__clzsi2+0x8e>
   104ac:	b76d                	j	10456 <main+0x3a6>

000104ae <register_fini>:
   104ae:	00000793          	li	a5,0
   104b2:	c791                	beqz	a5,104be <register_fini+0x10>
   104b4:	6555                	lui	a0,0x15
   104b6:	1ea50513          	addi	a0,a0,490 # 151ea <__libc_fini_array>
   104ba:	37c0106f          	j	11836 <atexit>
   104be:	8082                	ret

000104c0 <_start>:
   104c0:	0000c197          	auipc	gp,0xc
   104c4:	5b818193          	addi	gp,gp,1464 # 1ca78 <__global_pointer$>
   104c8:	f2818513          	addi	a0,gp,-216 # 1c9a0 <__malloc_max_total_mem>
   104cc:	25418613          	addi	a2,gp,596 # 1cccc <__BSS_END__>
   104d0:	8e09                	sub	a2,a2,a0
   104d2:	4581                	li	a1,0
   104d4:	188010ef          	jal	1165c <memset>
   104d8:	00001517          	auipc	a0,0x1
   104dc:	35e50513          	addi	a0,a0,862 # 11836 <atexit>
   104e0:	c519                	beqz	a0,104ee <_start+0x2e>
   104e2:	00005517          	auipc	a0,0x5
   104e6:	d0850513          	addi	a0,a0,-760 # 151ea <__libc_fini_array>
   104ea:	34c010ef          	jal	11836 <atexit>
   104ee:	104010ef          	jal	115f2 <__libc_init_array>
   104f2:	4502                	lw	a0,0(sp)
   104f4:	004c                	addi	a1,sp,4
   104f6:	4601                	li	a2,0
   104f8:	3e65                	jal	100b0 <main>
   104fa:	be69                	j	10094 <exit>

000104fc <__do_global_dtors_aux>:
   104fc:	1141                	addi	sp,sp,-16
   104fe:	c422                	sw	s0,8(sp)
   10500:	f481c783          	lbu	a5,-184(gp) # 1c9c0 <completed.1>
   10504:	c606                	sw	ra,12(sp)
   10506:	ef91                	bnez	a5,10522 <__do_global_dtors_aux+0x26>
   10508:	00000793          	li	a5,0
   1050c:	cb81                	beqz	a5,1051c <__do_global_dtors_aux+0x20>
   1050e:	6571                	lui	a0,0x1c
   10510:	26450513          	addi	a0,a0,612 # 1c264 <__EH_FRAME_BEGIN__>
   10514:	00000097          	auipc	ra,0x0
   10518:	000000e7          	jalr	zero # 0 <exit-0x10094>
   1051c:	4785                	li	a5,1
   1051e:	f4f18423          	sb	a5,-184(gp) # 1c9c0 <completed.1>
   10522:	40b2                	lw	ra,12(sp)
   10524:	4422                	lw	s0,8(sp)
   10526:	0141                	addi	sp,sp,16
   10528:	8082                	ret

0001052a <frame_dummy>:
   1052a:	00000793          	li	a5,0
   1052e:	cb91                	beqz	a5,10542 <frame_dummy+0x18>
   10530:	6571                	lui	a0,0x1c
   10532:	f4c18593          	addi	a1,gp,-180 # 1c9c4 <object.0>
   10536:	26450513          	addi	a0,a0,612 # 1c264 <__EH_FRAME_BEGIN__>
   1053a:	00000317          	auipc	t1,0x0
   1053e:	00000067          	jr	zero # 0 <exit-0x10094>
   10542:	8082                	ret

00010544 <gen_rand_1d>:
   10544:	04b05e63          	blez	a1,105a0 <gen_rand_1d+0x5c>
   10548:	ea81b787          	fld	fa5,-344(gp) # 1c920 <__SDATA_BEGIN__>
   1054c:	7179                	addi	sp,sp,-48
   1054e:	d422                	sw	s0,40(sp)
   10550:	d226                	sw	s1,36(sp)
   10552:	d04a                	sw	s2,32(sp)
   10554:	ce4e                	sw	s3,28(sp)
   10556:	d606                	sw	ra,44(sp)
   10558:	892e                	mv	s2,a1
   1055a:	a43e                	fsd	fa5,8(sp)
   1055c:	842a                	mv	s0,a0
   1055e:	4481                	li	s1,0
   10560:	3e800993          	li	s3,1000
   10564:	225000ef          	jal	10f88 <rand>
   10568:	27a2                	fld	fa5,8(sp)
   1056a:	d2050753          	fcvt.d.w	fa4,a0
   1056e:	0421                	addi	s0,s0,8
   10570:	0485                	addi	s1,s1,1
   10572:	1af77753          	fdiv.d	fa4,fa4,fa5
   10576:	a03a                	fsd	fa4,0(sp)
   10578:	211000ef          	jal	10f88 <rand>
   1057c:	03356533          	rem	a0,a0,s3
   10580:	2702                	fld	fa4,0(sp)
   10582:	d20507d3          	fcvt.d.w	fa5,a0
   10586:	02e7f7d3          	fadd.d	fa5,fa5,fa4
   1058a:	fef43c27          	fsd	fa5,-8(s0)
   1058e:	fc991be3          	bne	s2,s1,10564 <gen_rand_1d+0x20>
   10592:	50b2                	lw	ra,44(sp)
   10594:	5422                	lw	s0,40(sp)
   10596:	5492                	lw	s1,36(sp)
   10598:	5902                	lw	s2,32(sp)
   1059a:	49f2                	lw	s3,28(sp)
   1059c:	6145                	addi	sp,sp,48
   1059e:	8082                	ret
   105a0:	8082                	ret

000105a2 <gen_string>:
   105a2:	1101                	addi	sp,sp,-32
   105a4:	c64e                	sw	s3,12(sp)
   105a6:	c452                	sw	s4,8(sp)
   105a8:	ce06                	sw	ra,28(sp)
   105aa:	4785                	li	a5,1
   105ac:	8a2e                	mv	s4,a1
   105ae:	89aa                	mv	s3,a0
   105b0:	02b7d863          	bge	a5,a1,105e0 <gen_string+0x3e>
   105b4:	ca26                	sw	s1,20(sp)
   105b6:	fff50493          	addi	s1,a0,-1
   105ba:	cc22                	sw	s0,24(sp)
   105bc:	c84a                	sw	s2,16(sp)
   105be:	842a                	mv	s0,a0
   105c0:	94ae                	add	s1,s1,a1
   105c2:	07f00913          	li	s2,127
   105c6:	1c3000ef          	jal	10f88 <rand>
   105ca:	032567b3          	rem	a5,a0,s2
   105ce:	0405                	addi	s0,s0,1
   105d0:	0785                	addi	a5,a5,1
   105d2:	fef40fa3          	sb	a5,-1(s0)
   105d6:	fe9418e3          	bne	s0,s1,105c6 <gen_string+0x24>
   105da:	4462                	lw	s0,24(sp)
   105dc:	44d2                	lw	s1,20(sp)
   105de:	4942                	lw	s2,16(sp)
   105e0:	99d2                	add	s3,s3,s4
   105e2:	fe098fa3          	sb	zero,-1(s3)
   105e6:	40f2                	lw	ra,28(sp)
   105e8:	49b2                	lw	s3,12(sp)
   105ea:	4a22                	lw	s4,8(sp)
   105ec:	6105                	addi	sp,sp,32
   105ee:	8082                	ret

000105f0 <gen_rand_2d>:
   105f0:	06b05063          	blez	a1,10650 <gen_rand_2d+0x60>
   105f4:	1101                	addi	sp,sp,-32
   105f6:	ca26                	sw	s1,20(sp)
   105f8:	ce06                	sw	ra,28(sp)
   105fa:	84b2                	mv	s1,a2
   105fc:	04c05663          	blez	a2,10648 <gen_rand_2d+0x58>
   10600:	c84a                	sw	s2,16(sp)
   10602:	c64e                	sw	s3,12(sp)
   10604:	c452                	sw	s4,8(sp)
   10606:	cc22                	sw	s0,24(sp)
   10608:	89ae                	mv	s3,a1
   1060a:	8a2a                	mv	s4,a0
   1060c:	4901                	li	s2,0
   1060e:	4401                	li	s0,0
   10610:	179000ef          	jal	10f88 <rand>
   10614:	41f55793          	srai	a5,a0,0x1f
   10618:	83e5                	srli	a5,a5,0x19
   1061a:	000a2703          	lw	a4,0(s4)
   1061e:	953e                	add	a0,a0,a5
   10620:	07f57513          	andi	a0,a0,127
   10624:	8d1d                	sub	a0,a0,a5
   10626:	fc150513          	addi	a0,a0,-63
   1062a:	008707b3          	add	a5,a4,s0
   1062e:	00a78023          	sb	a0,0(a5)
   10632:	0405                	addi	s0,s0,1
   10634:	fc849ee3          	bne	s1,s0,10610 <gen_rand_2d+0x20>
   10638:	0905                	addi	s2,s2,1
   1063a:	0a11                	addi	s4,s4,4
   1063c:	fd2999e3          	bne	s3,s2,1060e <gen_rand_2d+0x1e>
   10640:	4462                	lw	s0,24(sp)
   10642:	4942                	lw	s2,16(sp)
   10644:	49b2                	lw	s3,12(sp)
   10646:	4a22                	lw	s4,8(sp)
   10648:	40f2                	lw	ra,28(sp)
   1064a:	44d2                	lw	s1,20(sp)
   1064c:	6105                	addi	sp,sp,32
   1064e:	8082                	ret
   10650:	8082                	ret

00010652 <print_string>:
   10652:	1141                	addi	sp,sp,-16
   10654:	c422                	sw	s0,8(sp)
   10656:	842a                	mv	s0,a0
   10658:	656d                	lui	a0,0x1b
   1065a:	9d850513          	addi	a0,a0,-1576 # 1a9d8 <__clzsi2+0x3e>
   1065e:	c606                	sw	ra,12(sp)
   10660:	46d000ef          	jal	112cc <printf>
   10664:	00044503          	lbu	a0,0(s0)
   10668:	c901                	beqz	a0,10678 <print_string+0x26>
   1066a:	0405                	addi	s0,s0,1
   1066c:	493000ef          	jal	112fe <putchar>
   10670:	00044503          	lbu	a0,0(s0)
   10674:	0405                	addi	s0,s0,1
   10676:	f97d                	bnez	a0,1066c <print_string+0x1a>
   10678:	656d                	lui	a0,0x1b
   1067a:	9ec50513          	addi	a0,a0,-1556 # 1a9ec <__clzsi2+0x52>
   1067e:	509000ef          	jal	11386 <puts>
   10682:	4422                	lw	s0,8(sp)
   10684:	40b2                	lw	ra,12(sp)
   10686:	656d                	lui	a0,0x1b
   10688:	b4050513          	addi	a0,a0,-1216 # 1ab40 <__clzsi2+0x1a6>
   1068c:	0141                	addi	sp,sp,16
   1068e:	4f90006f          	j	11386 <puts>

00010692 <print_array_1d>:
   10692:	7179                	addi	sp,sp,-48
   10694:	d226                	sw	s1,36(sp)
   10696:	87b2                	mv	a5,a2
   10698:	84aa                	mv	s1,a0
   1069a:	656d                	lui	a0,0x1b
   1069c:	d04a                	sw	s2,32(sp)
   1069e:	8636                	mv	a2,a3
   106a0:	892e                	mv	s2,a1
   106a2:	86ae                	mv	a3,a1
   106a4:	9f850513          	addi	a0,a0,-1544 # 1a9f8 <__clzsi2+0x5e>
   106a8:	85be                	mv	a1,a5
   106aa:	d606                	sw	ra,44(sp)
   106ac:	c266                	sw	s9,4(sp)
   106ae:	41f000ef          	jal	112cc <printf>
   106b2:	09205163          	blez	s2,10734 <print_array_1d+0xa2>
   106b6:	ce4e                	sw	s3,28(sp)
   106b8:	c462                	sw	s8,8(sp)
   106ba:	69ed                	lui	s3,0x1b
   106bc:	6c6d                	lui	s8,0x1b
   106be:	d422                	sw	s0,40(sp)
   106c0:	cc52                	sw	s4,24(sp)
   106c2:	ca56                	sw	s5,20(sp)
   106c4:	c85a                	sw	s6,16(sp)
   106c6:	c65e                	sw	s7,12(sp)
   106c8:	4401                	li	s0,0
   106ca:	fff90b93          	addi	s7,s2,-1
   106ce:	6ced                	lui	s9,0x1b
   106d0:	6b6d                	lui	s6,0x1b
   106d2:	9f498993          	addi	s3,s3,-1548 # 1a9f4 <__clzsi2+0x5a>
   106d6:	9f0c0c13          	addi	s8,s8,-1552 # 1a9f0 <__clzsi2+0x56>
   106da:	4aa9                	li	s5,10
   106dc:	4a25                	li	s4,9
   106de:	a029                	j	106e8 <print_array_1d+0x56>
   106e0:	0405                	addi	s0,s0,1
   106e2:	04a1                	addi	s1,s1,8
   106e4:	02890863          	beq	s2,s0,10714 <print_array_1d+0x82>
   106e8:	4090                	lw	a2,0(s1)
   106ea:	40d4                	lw	a3,4(s1)
   106ec:	a08b0513          	addi	a0,s6,-1528 # 1aa08 <__clzsi2+0x6e>
   106f0:	874e                	mv	a4,s3
   106f2:	008b8363          	beq	s7,s0,106f8 <print_array_1d+0x66>
   106f6:	8762                	mv	a4,s8
   106f8:	3d5000ef          	jal	112cc <printf>
   106fc:	035467b3          	rem	a5,s0,s5
   10700:	ff4790e3          	bne	a5,s4,106e0 <print_array_1d+0x4e>
   10704:	b40c8513          	addi	a0,s9,-1216 # 1ab40 <__clzsi2+0x1a6>
   10708:	0405                	addi	s0,s0,1
   1070a:	47d000ef          	jal	11386 <puts>
   1070e:	04a1                	addi	s1,s1,8
   10710:	fc891ce3          	bne	s2,s0,106e8 <print_array_1d+0x56>
   10714:	5422                	lw	s0,40(sp)
   10716:	49f2                	lw	s3,28(sp)
   10718:	4a62                	lw	s4,24(sp)
   1071a:	4ad2                	lw	s5,20(sp)
   1071c:	4b42                	lw	s6,16(sp)
   1071e:	4bb2                	lw	s7,12(sp)
   10720:	4c22                	lw	s8,8(sp)
   10722:	50b2                	lw	ra,44(sp)
   10724:	5492                	lw	s1,36(sp)
   10726:	5902                	lw	s2,32(sp)
   10728:	b40c8513          	addi	a0,s9,-1216
   1072c:	4c92                	lw	s9,4(sp)
   1072e:	6145                	addi	sp,sp,48
   10730:	4570006f          	j	11386 <puts>
   10734:	6ced                	lui	s9,0x1b
   10736:	50b2                	lw	ra,44(sp)
   10738:	5492                	lw	s1,36(sp)
   1073a:	5902                	lw	s2,32(sp)
   1073c:	b40c8513          	addi	a0,s9,-1216 # 1ab40 <__clzsi2+0x1a6>
   10740:	4c92                	lw	s9,4(sp)
   10742:	6145                	addi	sp,sp,48
   10744:	4430006f          	j	11386 <puts>

00010748 <print_array_2d>:
   10748:	0ab05763          	blez	a1,107f6 <print_array_2d+0xae>
   1074c:	7179                	addi	sp,sp,-48
   1074e:	d04a                	sw	s2,32(sp)
   10750:	d606                	sw	ra,44(sp)
   10752:	8932                	mv	s2,a2
   10754:	06c05e63          	blez	a2,107d0 <print_array_2d+0x88>
   10758:	c462                	sw	s8,8(sp)
   1075a:	c06a                	sw	s10,0(sp)
   1075c:	6c6d                	lui	s8,0x1b
   1075e:	6d6d                	lui	s10,0x1b
   10760:	d226                	sw	s1,36(sp)
   10762:	ce4e                	sw	s3,28(sp)
   10764:	cc52                	sw	s4,24(sp)
   10766:	c85a                	sw	s6,16(sp)
   10768:	c65e                	sw	s7,12(sp)
   1076a:	c266                	sw	s9,4(sp)
   1076c:	d422                	sw	s0,40(sp)
   1076e:	ca56                	sw	s5,20(sp)
   10770:	8bae                	mv	s7,a1
   10772:	84aa                	mv	s1,a0
   10774:	4b01                	li	s6,0
   10776:	6a6d                	lui	s4,0x1b
   10778:	fff58c93          	addi	s9,a1,-1
   1077c:	fff60993          	addi	s3,a2,-1
   10780:	9f0c0c13          	addi	s8,s8,-1552 # 1a9f0 <__clzsi2+0x56>
   10784:	a18d0d13          	addi	s10,s10,-1512 # 1aa18 <__clzsi2+0x7e>
   10788:	8ae2                	mv	s5,s8
   1078a:	016c9363          	bne	s9,s6,10790 <print_array_2d+0x48>
   1078e:	8aea                	mv	s5,s10
   10790:	4401                	li	s0,0
   10792:	409c                	lw	a5,0(s1)
   10794:	a14a0513          	addi	a0,s4,-1516 # 1aa14 <__clzsi2+0x7a>
   10798:	97a2                	add	a5,a5,s0
   1079a:	00078583          	lb	a1,0(a5)
   1079e:	32f000ef          	jal	112cc <printf>
   107a2:	02c00513          	li	a0,44
   107a6:	03340d63          	beq	s0,s3,107e0 <print_array_2d+0x98>
   107aa:	0405                	addi	s0,s0,1
   107ac:	353000ef          	jal	112fe <putchar>
   107b0:	fe8911e3          	bne	s2,s0,10792 <print_array_2d+0x4a>
   107b4:	0b05                	addi	s6,s6,1
   107b6:	0491                	addi	s1,s1,4
   107b8:	fd6b98e3          	bne	s7,s6,10788 <print_array_2d+0x40>
   107bc:	5422                	lw	s0,40(sp)
   107be:	5492                	lw	s1,36(sp)
   107c0:	49f2                	lw	s3,28(sp)
   107c2:	4a62                	lw	s4,24(sp)
   107c4:	4ad2                	lw	s5,20(sp)
   107c6:	4b42                	lw	s6,16(sp)
   107c8:	4bb2                	lw	s7,12(sp)
   107ca:	4c22                	lw	s8,8(sp)
   107cc:	4c92                	lw	s9,4(sp)
   107ce:	4d02                	lw	s10,0(sp)
   107d0:	50b2                	lw	ra,44(sp)
   107d2:	5902                	lw	s2,32(sp)
   107d4:	656d                	lui	a0,0x1b
   107d6:	b4050513          	addi	a0,a0,-1216 # 1ab40 <__clzsi2+0x1a6>
   107da:	6145                	addi	sp,sp,48
   107dc:	3ab0006f          	j	11386 <puts>
   107e0:	8556                	mv	a0,s5
   107e2:	0405                	addi	s0,s0,1
   107e4:	3a3000ef          	jal	11386 <puts>
   107e8:	fa8915e3          	bne	s2,s0,10792 <print_array_2d+0x4a>
   107ec:	0b05                	addi	s6,s6,1
   107ee:	0491                	addi	s1,s1,4
   107f0:	f96b9ce3          	bne	s7,s6,10788 <print_array_2d+0x40>
   107f4:	b7e1                	j	107bc <print_array_2d+0x74>
   107f6:	656d                	lui	a0,0x1b
   107f8:	b4050513          	addi	a0,a0,-1216 # 1ab40 <__clzsi2+0x1a6>
   107fc:	38b0006f          	j	11386 <puts>

00010800 <double_eq>:
   10800:	8d89                	sub	a1,a1,a0
   10802:	d20587d3          	fcvt.d.w	fa5,a1
   10806:	d2060753          	fcvt.d.w	fa4,a2
   1080a:	22f7a7d3          	fabs.d	fa5,fa5
   1080e:	a2e79553          	flt.d	a0,fa5,fa4
   10812:	8082                	ret

00010814 <compare_1d>:
   10814:	00162513          	slti	a0,a2,1
   10818:	8082                	ret

0001081a <compare_string>:
   1081a:	02c05063          	blez	a2,1083a <compare_string+0x20>
   1081e:	962a                	add	a2,a2,a0
   10820:	a019                	j	10826 <compare_string+0xc>
   10822:	00c50c63          	beq	a0,a2,1083a <compare_string+0x20>
   10826:	00054703          	lbu	a4,0(a0)
   1082a:	0005c783          	lbu	a5,0(a1)
   1082e:	0505                	addi	a0,a0,1
   10830:	0585                	addi	a1,a1,1
   10832:	fef708e3          	beq	a4,a5,10822 <compare_string+0x8>
   10836:	4501                	li	a0,0
   10838:	8082                	ret
   1083a:	4505                	li	a0,1
   1083c:	8082                	ret

0001083e <compare_2d>:
   1083e:	04c05563          	blez	a2,10888 <compare_2d+0x4a>
   10842:	eb01b707          	fld	fa4,-336(gp) # 1c928 <__SDATA_BEGIN__+0x8>
   10846:	4e01                	li	t3,0
   10848:	02d05b63          	blez	a3,1087e <compare_2d+0x40>
   1084c:	411c                	lw	a5,0(a0)
   1084e:	0005a803          	lw	a6,0(a1)
   10852:	00f68333          	add	t1,a3,a5
   10856:	a019                	j	1085c <compare_2d+0x1e>
   10858:	02f30363          	beq	t1,a5,1087e <compare_2d+0x40>
   1085c:	00080703          	lb	a4,0(a6)
   10860:	00078883          	lb	a7,0(a5)
   10864:	0805                	addi	a6,a6,1
   10866:	0785                	addi	a5,a5,1
   10868:	41170733          	sub	a4,a4,a7
   1086c:	d20707d3          	fcvt.d.w	fa5,a4
   10870:	22f7a7d3          	fabs.d	fa5,fa5
   10874:	a2e79753          	flt.d	a4,fa5,fa4
   10878:	f365                	bnez	a4,10858 <compare_2d+0x1a>
   1087a:	4501                	li	a0,0
   1087c:	8082                	ret
   1087e:	0e05                	addi	t3,t3,1
   10880:	0511                	addi	a0,a0,4
   10882:	0591                	addi	a1,a1,4
   10884:	fdc612e3          	bne	a2,t3,10848 <compare_2d+0xa>
   10888:	4505                	li	a0,1
   1088a:	8082                	ret

0001088c <alloc_array_2d>:
   1088c:	1101                	addi	sp,sp,-32
   1088e:	ca26                	sw	s1,20(sp)
   10890:	00251493          	slli	s1,a0,0x2
   10894:	c452                	sw	s4,8(sp)
   10896:	8a2a                	mv	s4,a0
   10898:	8526                	mv	a0,s1
   1089a:	c84a                	sw	s2,16(sp)
   1089c:	c64e                	sw	s3,12(sp)
   1089e:	ce06                	sw	ra,28(sp)
   108a0:	892e                	mv	s2,a1
   108a2:	2a39                	jal	109c0 <malloc>
   108a4:	89aa                	mv	s3,a0
   108a6:	94aa                	add	s1,s1,a0
   108a8:	01405b63          	blez	s4,108be <alloc_array_2d+0x32>
   108ac:	cc22                	sw	s0,24(sp)
   108ae:	842a                	mv	s0,a0
   108b0:	854a                	mv	a0,s2
   108b2:	2239                	jal	109c0 <malloc>
   108b4:	c008                	sw	a0,0(s0)
   108b6:	0411                	addi	s0,s0,4
   108b8:	fe941ce3          	bne	s0,s1,108b0 <alloc_array_2d+0x24>
   108bc:	4462                	lw	s0,24(sp)
   108be:	40f2                	lw	ra,28(sp)
   108c0:	44d2                	lw	s1,20(sp)
   108c2:	4942                	lw	s2,16(sp)
   108c4:	4a22                	lw	s4,8(sp)
   108c6:	854e                	mv	a0,s3
   108c8:	49b2                	lw	s3,12(sp)
   108ca:	6105                	addi	sp,sp,32
   108cc:	8082                	ret

000108ce <init_array_one_1d>:
   108ce:	00b05b63          	blez	a1,108e4 <init_array_one_1d+0x16>
   108d2:	058e                	slli	a1,a1,0x3
   108d4:	eb01b787          	fld	fa5,-336(gp) # 1c928 <__SDATA_BEGIN__+0x8>
   108d8:	00b507b3          	add	a5,a0,a1
   108dc:	a11c                	fsd	fa5,0(a0)
   108de:	0521                	addi	a0,a0,8
   108e0:	fef51ee3          	bne	a0,a5,108dc <init_array_one_1d+0xe>
   108e4:	8082                	ret

000108e6 <init_array_one_2d>:
   108e6:	02b05463          	blez	a1,1090e <init_array_one_2d+0x28>
   108ea:	02c05263          	blez	a2,1090e <init_array_one_2d+0x28>
   108ee:	eb01b787          	fld	fa5,-336(gp) # 1c928 <__SDATA_BEGIN__+0x8>
   108f2:	00259693          	slli	a3,a1,0x2
   108f6:	96aa                	add	a3,a3,a0
   108f8:	060e                	slli	a2,a2,0x3
   108fa:	411c                	lw	a5,0(a0)
   108fc:	00f60733          	add	a4,a2,a5
   10900:	a39c                	fsd	fa5,0(a5)
   10902:	07a1                	addi	a5,a5,8
   10904:	fef71ee3          	bne	a4,a5,10900 <init_array_one_2d+0x1a>
   10908:	0511                	addi	a0,a0,4
   1090a:	fed518e3          	bne	a0,a3,108fa <init_array_one_2d+0x14>
   1090e:	8082                	ret

00010910 <conv2d>:
   10910:	1141                	addi	sp,sp,-16
   10912:	c622                	sw	s0,12(sp)
   10914:	41070f33          	sub	t5,a4,a6
   10918:	40f68433          	sub	s0,a3,a5
   1091c:	83be                	mv	t2,a5
   1091e:	01e467b3          	or	a5,s0,t5
   10922:	0407c263          	bltz	a5,10966 <conv2d+0x56>
   10926:	00239e93          	slli	t4,t2,0x2
   1092a:	c426                	sw	s1,8(sp)
   1092c:	c24a                	sw	s2,4(sp)
   1092e:	8e42                	mv	t3,a6
   10930:	892a                	mv	s2,a0
   10932:	8fae                	mv	t6,a1
   10934:	8332                	mv	t1,a2
   10936:	0405                	addi	s0,s0,1
   10938:	9eae                	add	t4,t4,a1
   1093a:	4481                	li	s1,0
   1093c:	0f05                	addi	t5,t5,1
   1093e:	00249293          	slli	t0,s1,0x2
   10942:	92ca                	add	t0,t0,s2
   10944:	4581                	li	a1,0
   10946:	00032783          	lw	a5,0(t1) # 1053a <frame_dummy+0x10>
   1094a:	97ae                	add	a5,a5,a1
   1094c:	00078023          	sb	zero,0(a5)
   10950:	06704363          	bgtz	t2,109b6 <conv2d+0xa6>
   10954:	0585                	addi	a1,a1,1
   10956:	ffe598e3          	bne	a1,t5,10946 <conv2d+0x36>
   1095a:	0485                	addi	s1,s1,1
   1095c:	0311                	addi	t1,t1,4
   1095e:	fe8490e3          	bne	s1,s0,1093e <conv2d+0x2e>
   10962:	44a2                	lw	s1,8(sp)
   10964:	4912                	lw	s2,4(sp)
   10966:	4432                	lw	s0,12(sp)
   10968:	0141                	addi	sp,sp,16
   1096a:	8082                	ret
   1096c:	4701                	li	a4,0
   1096e:	0008a783          	lw	a5,0(a7)
   10972:	00082603          	lw	a2,0(a6)
   10976:	00032683          	lw	a3,0(t1)
   1097a:	97ae                	add	a5,a5,a1
   1097c:	963a                	add	a2,a2,a4
   1097e:	97ba                	add	a5,a5,a4
   10980:	00064503          	lbu	a0,0(a2)
   10984:	0007c783          	lbu	a5,0(a5)
   10988:	96ae                	add	a3,a3,a1
   1098a:	0006c603          	lbu	a2,0(a3)
   1098e:	02a787b3          	mul	a5,a5,a0
   10992:	0705                	addi	a4,a4,1
   10994:	97b2                	add	a5,a5,a2
   10996:	00f68023          	sb	a5,0(a3)
   1099a:	fcee1ae3          	bne	t3,a4,1096e <conv2d+0x5e>
   1099e:	0811                	addi	a6,a6,4
   109a0:	0891                	addi	a7,a7,4
   109a2:	fd0e95e3          	bne	t4,a6,1096c <conv2d+0x5c>
   109a6:	0585                	addi	a1,a1,1
   109a8:	fbe589e3          	beq	a1,t5,1095a <conv2d+0x4a>
   109ac:	00032783          	lw	a5,0(t1)
   109b0:	97ae                	add	a5,a5,a1
   109b2:	00078023          	sb	zero,0(a5)
   109b6:	887e                	mv	a6,t6
   109b8:	8896                	mv	a7,t0
   109ba:	fbc049e3          	bgtz	t3,1096c <conv2d+0x5c>
   109be:	b7e5                	j	109a6 <conv2d+0x96>

000109c0 <malloc>:
   109c0:	85aa                	mv	a1,a0
   109c2:	f241a503          	lw	a0,-220(gp) # 1c99c <_impure_ptr>
   109c6:	a031                	j	109d2 <_malloc_r>

000109c8 <free>:
   109c8:	85aa                	mv	a1,a0
   109ca:	f241a503          	lw	a0,-220(gp) # 1c99c <_impure_ptr>
   109ce:	73b0006f          	j	11908 <_free_r>

000109d2 <_malloc_r>:
   109d2:	7179                	addi	sp,sp,-48
   109d4:	ce4e                	sw	s3,28(sp)
   109d6:	d606                	sw	ra,44(sp)
   109d8:	d422                	sw	s0,40(sp)
   109da:	d226                	sw	s1,36(sp)
   109dc:	d04a                	sw	s2,32(sp)
   109de:	00b58793          	addi	a5,a1,11
   109e2:	4759                	li	a4,22
   109e4:	89aa                	mv	s3,a0
   109e6:	04f76863          	bltu	a4,a5,10a36 <_malloc_r+0x64>
   109ea:	47c1                	li	a5,16
   109ec:	16b7e863          	bltu	a5,a1,10b5c <_malloc_r+0x18a>
   109f0:	2359                	jal	10f76 <__malloc_lock>
   109f2:	47e1                	li	a5,24
   109f4:	4589                	li	a1,2
   109f6:	44c1                	li	s1,16
   109f8:	6971                	lui	s2,0x1c
   109fa:	27890913          	addi	s2,s2,632 # 1c278 <__malloc_av_>
   109fe:	97ca                	add	a5,a5,s2
   10a00:	43c0                	lw	s0,4(a5)
   10a02:	ff878713          	addi	a4,a5,-8
   10a06:	24e40d63          	beq	s0,a4,10c60 <_malloc_r+0x28e>
   10a0a:	405c                	lw	a5,4(s0)
   10a0c:	4454                	lw	a3,12(s0)
   10a0e:	4410                	lw	a2,8(s0)
   10a10:	9bf1                	andi	a5,a5,-4
   10a12:	97a2                	add	a5,a5,s0
   10a14:	43d8                	lw	a4,4(a5)
   10a16:	c654                	sw	a3,12(a2)
   10a18:	c690                	sw	a2,8(a3)
   10a1a:	00176713          	ori	a4,a4,1
   10a1e:	854e                	mv	a0,s3
   10a20:	c3d8                	sw	a4,4(a5)
   10a22:	2b99                	jal	10f78 <__malloc_unlock>
   10a24:	00840513          	addi	a0,s0,8
   10a28:	50b2                	lw	ra,44(sp)
   10a2a:	5422                	lw	s0,40(sp)
   10a2c:	5492                	lw	s1,36(sp)
   10a2e:	5902                	lw	s2,32(sp)
   10a30:	49f2                	lw	s3,28(sp)
   10a32:	6145                	addi	sp,sp,48
   10a34:	8082                	ret
   10a36:	ff87f493          	andi	s1,a5,-8
   10a3a:	1207c163          	bltz	a5,10b5c <_malloc_r+0x18a>
   10a3e:	10b4ef63          	bltu	s1,a1,10b5c <_malloc_r+0x18a>
   10a42:	2b15                	jal	10f76 <__malloc_lock>
   10a44:	1f700793          	li	a5,503
   10a48:	2c97fb63          	bgeu	a5,s1,10d1e <_malloc_r+0x34c>
   10a4c:	0094d793          	srli	a5,s1,0x9
   10a50:	10078b63          	beqz	a5,10b66 <_malloc_r+0x194>
   10a54:	4711                	li	a4,4
   10a56:	24f76a63          	bltu	a4,a5,10caa <_malloc_r+0x2d8>
   10a5a:	0064d793          	srli	a5,s1,0x6
   10a5e:	03978593          	addi	a1,a5,57
   10a62:	03878813          	addi	a6,a5,56
   10a66:	00359613          	slli	a2,a1,0x3
   10a6a:	6971                	lui	s2,0x1c
   10a6c:	27890913          	addi	s2,s2,632 # 1c278 <__malloc_av_>
   10a70:	964a                	add	a2,a2,s2
   10a72:	4240                	lw	s0,4(a2)
   10a74:	1661                	addi	a2,a2,-8
   10a76:	02860163          	beq	a2,s0,10a98 <_malloc_r+0xc6>
   10a7a:	453d                	li	a0,15
   10a7c:	a039                	j	10a8a <_malloc_r+0xb8>
   10a7e:	4454                	lw	a3,12(s0)
   10a80:	1c075e63          	bgez	a4,10c5c <_malloc_r+0x28a>
   10a84:	00d60a63          	beq	a2,a3,10a98 <_malloc_r+0xc6>
   10a88:	8436                	mv	s0,a3
   10a8a:	405c                	lw	a5,4(s0)
   10a8c:	9bf1                	andi	a5,a5,-4
   10a8e:	40978733          	sub	a4,a5,s1
   10a92:	fee556e3          	bge	a0,a4,10a7e <_malloc_r+0xac>
   10a96:	85c2                	mv	a1,a6
   10a98:	01092403          	lw	s0,16(s2)
   10a9c:	6871                	lui	a6,0x1c
   10a9e:	28080813          	addi	a6,a6,640 # 1c280 <__malloc_av_+0x8>
   10aa2:	1b040a63          	beq	s0,a6,10c56 <_malloc_r+0x284>
   10aa6:	405c                	lw	a5,4(s0)
   10aa8:	46bd                	li	a3,15
   10aaa:	9bf1                	andi	a5,a5,-4
   10aac:	40978733          	sub	a4,a5,s1
   10ab0:	26e6cc63          	blt	a3,a4,10d28 <_malloc_r+0x356>
   10ab4:	01092a23          	sw	a6,20(s2)
   10ab8:	01092823          	sw	a6,16(s2)
   10abc:	24075763          	bgez	a4,10d0a <_malloc_r+0x338>
   10ac0:	1ff00713          	li	a4,511
   10ac4:	00492503          	lw	a0,4(s2)
   10ac8:	1af76163          	bltu	a4,a5,10c6a <_malloc_r+0x298>
   10acc:	ff87f713          	andi	a4,a5,-8
   10ad0:	0721                	addi	a4,a4,8
   10ad2:	974a                	add	a4,a4,s2
   10ad4:	4314                	lw	a3,0(a4)
   10ad6:	0057d613          	srli	a2,a5,0x5
   10ada:	4785                	li	a5,1
   10adc:	00c797b3          	sll	a5,a5,a2
   10ae0:	8d5d                	or	a0,a0,a5
   10ae2:	ff870793          	addi	a5,a4,-8
   10ae6:	c45c                	sw	a5,12(s0)
   10ae8:	c414                	sw	a3,8(s0)
   10aea:	00a92223          	sw	a0,4(s2)
   10aee:	c300                	sw	s0,0(a4)
   10af0:	c6c0                	sw	s0,12(a3)
   10af2:	4025d793          	srai	a5,a1,0x2
   10af6:	4605                	li	a2,1
   10af8:	00f61633          	sll	a2,a2,a5
   10afc:	06c56c63          	bltu	a0,a2,10b74 <_malloc_r+0x1a2>
   10b00:	00a677b3          	and	a5,a2,a0
   10b04:	ef81                	bnez	a5,10b1c <_malloc_r+0x14a>
   10b06:	0606                	slli	a2,a2,0x1
   10b08:	99f1                	andi	a1,a1,-4
   10b0a:	00a677b3          	and	a5,a2,a0
   10b0e:	0591                	addi	a1,a1,4
   10b10:	e791                	bnez	a5,10b1c <_malloc_r+0x14a>
   10b12:	0606                	slli	a2,a2,0x1
   10b14:	00a677b3          	and	a5,a2,a0
   10b18:	0591                	addi	a1,a1,4
   10b1a:	dfe5                	beqz	a5,10b12 <_malloc_r+0x140>
   10b1c:	48bd                	li	a7,15
   10b1e:	00359313          	slli	t1,a1,0x3
   10b22:	934a                	add	t1,t1,s2
   10b24:	851a                	mv	a0,t1
   10b26:	455c                	lw	a5,12(a0)
   10b28:	8e2e                	mv	t3,a1
   10b2a:	1af50063          	beq	a0,a5,10cca <_malloc_r+0x2f8>
   10b2e:	43d8                	lw	a4,4(a5)
   10b30:	843e                	mv	s0,a5
   10b32:	47dc                	lw	a5,12(a5)
   10b34:	9b71                	andi	a4,a4,-4
   10b36:	409706b3          	sub	a3,a4,s1
   10b3a:	18d8cf63          	blt	a7,a3,10cd8 <_malloc_r+0x306>
   10b3e:	fe06c6e3          	bltz	a3,10b2a <_malloc_r+0x158>
   10b42:	9722                	add	a4,a4,s0
   10b44:	4354                	lw	a3,4(a4)
   10b46:	4410                	lw	a2,8(s0)
   10b48:	854e                	mv	a0,s3
   10b4a:	0016e693          	ori	a3,a3,1
   10b4e:	c354                	sw	a3,4(a4)
   10b50:	c65c                	sw	a5,12(a2)
   10b52:	c790                	sw	a2,8(a5)
   10b54:	2115                	jal	10f78 <__malloc_unlock>
   10b56:	00840513          	addi	a0,s0,8
   10b5a:	b5f9                	j	10a28 <_malloc_r+0x56>
   10b5c:	47b1                	li	a5,12
   10b5e:	00f9a023          	sw	a5,0(s3)
   10b62:	4501                	li	a0,0
   10b64:	b5d1                	j	10a28 <_malloc_r+0x56>
   10b66:	20000613          	li	a2,512
   10b6a:	04000593          	li	a1,64
   10b6e:	03f00813          	li	a6,63
   10b72:	bde5                	j	10a6a <_malloc_r+0x98>
   10b74:	00892403          	lw	s0,8(s2)
   10b78:	c85a                	sw	s6,16(sp)
   10b7a:	405c                	lw	a5,4(s0)
   10b7c:	ffc7fb13          	andi	s6,a5,-4
   10b80:	009b6763          	bltu	s6,s1,10b8e <_malloc_r+0x1bc>
   10b84:	409b0733          	sub	a4,s6,s1
   10b88:	47bd                	li	a5,15
   10b8a:	0ae7c163          	blt	a5,a4,10c2c <_malloc_r+0x25a>
   10b8e:	c266                	sw	s9,4(sp)
   10b90:	ca56                	sw	s5,20(sp)
   10b92:	f1c1a703          	lw	a4,-228(gp) # 1c994 <__malloc_sbrk_base>
   10b96:	f301aa83          	lw	s5,-208(gp) # 1c9a8 <__malloc_top_pad>
   10b9a:	cc52                	sw	s4,24(sp)
   10b9c:	c65e                	sw	s7,12(sp)
   10b9e:	57fd                	li	a5,-1
   10ba0:	01640a33          	add	s4,s0,s6
   10ba4:	9aa6                	add	s5,s5,s1
   10ba6:	2cf70763          	beq	a4,a5,10e74 <_malloc_r+0x4a2>
   10baa:	6785                	lui	a5,0x1
   10bac:	07bd                	addi	a5,a5,15 # 100f <exit-0xf085>
   10bae:	9abe                	add	s5,s5,a5
   10bb0:	77fd                	lui	a5,0xfffff
   10bb2:	00fafab3          	and	s5,s5,a5
   10bb6:	85d6                	mv	a1,s5
   10bb8:	854e                	mv	a0,s3
   10bba:	1c7000ef          	jal	11580 <_sbrk_r>
   10bbe:	57fd                	li	a5,-1
   10bc0:	8baa                	mv	s7,a0
   10bc2:	32f50963          	beq	a0,a5,10ef4 <_malloc_r+0x522>
   10bc6:	c462                	sw	s8,8(sp)
   10bc8:	19456e63          	bltu	a0,s4,10d64 <_malloc_r+0x392>
   10bcc:	f6418c13          	addi	s8,gp,-156 # 1c9dc <__malloc_current_mallinfo>
   10bd0:	000c2583          	lw	a1,0(s8)
   10bd4:	95d6                	add	a1,a1,s5
   10bd6:	00bc2023          	sw	a1,0(s8)
   10bda:	872e                	mv	a4,a1
   10bdc:	1eaa1863          	bne	s4,a0,10dcc <_malloc_r+0x3fa>
   10be0:	01451793          	slli	a5,a0,0x14
   10be4:	1e079463          	bnez	a5,10dcc <_malloc_r+0x3fa>
   10be8:	00892b83          	lw	s7,8(s2)
   10bec:	015b07b3          	add	a5,s6,s5
   10bf0:	0017e793          	ori	a5,a5,1
   10bf4:	00fba223          	sw	a5,4(s7)
   10bf8:	f2c1a683          	lw	a3,-212(gp) # 1c9a4 <__malloc_max_sbrked_mem>
   10bfc:	00b6f463          	bgeu	a3,a1,10c04 <_malloc_r+0x232>
   10c00:	f2b1a623          	sw	a1,-212(gp) # 1c9a4 <__malloc_max_sbrked_mem>
   10c04:	f281a683          	lw	a3,-216(gp) # 1c9a0 <__malloc_max_total_mem>
   10c08:	00b6f463          	bgeu	a3,a1,10c10 <_malloc_r+0x23e>
   10c0c:	f2b1a423          	sw	a1,-216(gp) # 1c9a0 <__malloc_max_total_mem>
   10c10:	4c22                	lw	s8,8(sp)
   10c12:	845e                	mv	s0,s7
   10c14:	9bf1                	andi	a5,a5,-4
   10c16:	40978733          	sub	a4,a5,s1
   10c1a:	2897eb63          	bltu	a5,s1,10eb0 <_malloc_r+0x4de>
   10c1e:	47bd                	li	a5,15
   10c20:	28e7d863          	bge	a5,a4,10eb0 <_malloc_r+0x4de>
   10c24:	4a62                	lw	s4,24(sp)
   10c26:	4ad2                	lw	s5,20(sp)
   10c28:	4bb2                	lw	s7,12(sp)
   10c2a:	4c92                	lw	s9,4(sp)
   10c2c:	0014e793          	ori	a5,s1,1
   10c30:	c05c                	sw	a5,4(s0)
   10c32:	94a2                	add	s1,s1,s0
   10c34:	00992423          	sw	s1,8(s2)
   10c38:	00176713          	ori	a4,a4,1
   10c3c:	854e                	mv	a0,s3
   10c3e:	c0d8                	sw	a4,4(s1)
   10c40:	2e25                	jal	10f78 <__malloc_unlock>
   10c42:	50b2                	lw	ra,44(sp)
   10c44:	00840513          	addi	a0,s0,8
   10c48:	5422                	lw	s0,40(sp)
   10c4a:	4b42                	lw	s6,16(sp)
   10c4c:	5492                	lw	s1,36(sp)
   10c4e:	5902                	lw	s2,32(sp)
   10c50:	49f2                	lw	s3,28(sp)
   10c52:	6145                	addi	sp,sp,48
   10c54:	8082                	ret
   10c56:	00492503          	lw	a0,4(s2)
   10c5a:	bd61                	j	10af2 <_malloc_r+0x120>
   10c5c:	4410                	lw	a2,8(s0)
   10c5e:	bb55                	j	10a12 <_malloc_r+0x40>
   10c60:	47c0                	lw	s0,12(a5)
   10c62:	0589                	addi	a1,a1,2
   10c64:	e2878ae3          	beq	a5,s0,10a98 <_malloc_r+0xc6>
   10c68:	b34d                	j	10a0a <_malloc_r+0x38>
   10c6a:	0097d713          	srli	a4,a5,0x9
   10c6e:	4691                	li	a3,4
   10c70:	0ee6f263          	bgeu	a3,a4,10d54 <_malloc_r+0x382>
   10c74:	46d1                	li	a3,20
   10c76:	24e6e663          	bltu	a3,a4,10ec2 <_malloc_r+0x4f0>
   10c7a:	05c70613          	addi	a2,a4,92
   10c7e:	05b70693          	addi	a3,a4,91
   10c82:	060e                	slli	a2,a2,0x3
   10c84:	964a                	add	a2,a2,s2
   10c86:	4218                	lw	a4,0(a2)
   10c88:	1661                	addi	a2,a2,-8
   10c8a:	00e61663          	bne	a2,a4,10c96 <_malloc_r+0x2c4>
   10c8e:	a2ed                	j	10e78 <_malloc_r+0x4a6>
   10c90:	4718                	lw	a4,8(a4)
   10c92:	00e60663          	beq	a2,a4,10c9e <_malloc_r+0x2cc>
   10c96:	4354                	lw	a3,4(a4)
   10c98:	9af1                	andi	a3,a3,-4
   10c9a:	fed7ebe3          	bltu	a5,a3,10c90 <_malloc_r+0x2be>
   10c9e:	4750                	lw	a2,12(a4)
   10ca0:	c450                	sw	a2,12(s0)
   10ca2:	c418                	sw	a4,8(s0)
   10ca4:	c600                	sw	s0,8(a2)
   10ca6:	c740                	sw	s0,12(a4)
   10ca8:	b5a9                	j	10af2 <_malloc_r+0x120>
   10caa:	4751                	li	a4,20
   10cac:	0cf77363          	bgeu	a4,a5,10d72 <_malloc_r+0x3a0>
   10cb0:	05400713          	li	a4,84
   10cb4:	22f76363          	bltu	a4,a5,10eda <_malloc_r+0x508>
   10cb8:	00c4d793          	srli	a5,s1,0xc
   10cbc:	06f78593          	addi	a1,a5,111 # fffff06f <__BSS_END__+0xfffe23a3>
   10cc0:	06e78813          	addi	a6,a5,110
   10cc4:	00359613          	slli	a2,a1,0x3
   10cc8:	b34d                	j	10a6a <_malloc_r+0x98>
   10cca:	0e05                	addi	t3,t3,1
   10ccc:	003e7793          	andi	a5,t3,3
   10cd0:	0521                	addi	a0,a0,8
   10cd2:	cfc5                	beqz	a5,10d8a <_malloc_r+0x3b8>
   10cd4:	455c                	lw	a5,12(a0)
   10cd6:	bd91                	j	10b2a <_malloc_r+0x158>
   10cd8:	4410                	lw	a2,8(s0)
   10cda:	0014e593          	ori	a1,s1,1
   10cde:	c04c                	sw	a1,4(s0)
   10ce0:	c65c                	sw	a5,12(a2)
   10ce2:	c790                	sw	a2,8(a5)
   10ce4:	94a2                	add	s1,s1,s0
   10ce6:	00992a23          	sw	s1,20(s2)
   10cea:	00992823          	sw	s1,16(s2)
   10cee:	0016e793          	ori	a5,a3,1
   10cf2:	0104a623          	sw	a6,12(s1)
   10cf6:	0104a423          	sw	a6,8(s1)
   10cfa:	c0dc                	sw	a5,4(s1)
   10cfc:	9722                	add	a4,a4,s0
   10cfe:	854e                	mv	a0,s3
   10d00:	c314                	sw	a3,0(a4)
   10d02:	2c9d                	jal	10f78 <__malloc_unlock>
   10d04:	00840513          	addi	a0,s0,8
   10d08:	b305                	j	10a28 <_malloc_r+0x56>
   10d0a:	97a2                	add	a5,a5,s0
   10d0c:	43d8                	lw	a4,4(a5)
   10d0e:	854e                	mv	a0,s3
   10d10:	00176713          	ori	a4,a4,1
   10d14:	c3d8                	sw	a4,4(a5)
   10d16:	248d                	jal	10f78 <__malloc_unlock>
   10d18:	00840513          	addi	a0,s0,8
   10d1c:	b331                	j	10a28 <_malloc_r+0x56>
   10d1e:	0034d593          	srli	a1,s1,0x3
   10d22:	00848793          	addi	a5,s1,8
   10d26:	b9c9                	j	109f8 <_malloc_r+0x26>
   10d28:	0014e693          	ori	a3,s1,1
   10d2c:	c054                	sw	a3,4(s0)
   10d2e:	94a2                	add	s1,s1,s0
   10d30:	00992a23          	sw	s1,20(s2)
   10d34:	00992823          	sw	s1,16(s2)
   10d38:	00176693          	ori	a3,a4,1
   10d3c:	0104a623          	sw	a6,12(s1)
   10d40:	0104a423          	sw	a6,8(s1)
   10d44:	c0d4                	sw	a3,4(s1)
   10d46:	97a2                	add	a5,a5,s0
   10d48:	854e                	mv	a0,s3
   10d4a:	c398                	sw	a4,0(a5)
   10d4c:	2435                	jal	10f78 <__malloc_unlock>
   10d4e:	00840513          	addi	a0,s0,8
   10d52:	b9d9                	j	10a28 <_malloc_r+0x56>
   10d54:	0067d713          	srli	a4,a5,0x6
   10d58:	03970613          	addi	a2,a4,57
   10d5c:	03870693          	addi	a3,a4,56
   10d60:	060e                	slli	a2,a2,0x3
   10d62:	b70d                	j	10c84 <_malloc_r+0x2b2>
   10d64:	05240d63          	beq	s0,s2,10dbe <_malloc_r+0x3ec>
   10d68:	00892403          	lw	s0,8(s2)
   10d6c:	4c22                	lw	s8,8(sp)
   10d6e:	405c                	lw	a5,4(s0)
   10d70:	b555                	j	10c14 <_malloc_r+0x242>
   10d72:	05c78593          	addi	a1,a5,92
   10d76:	05b78813          	addi	a6,a5,91
   10d7a:	00359613          	slli	a2,a1,0x3
   10d7e:	b1f5                	j	10a6a <_malloc_r+0x98>
   10d80:	00832783          	lw	a5,8(t1)
   10d84:	15fd                	addi	a1,a1,-1
   10d86:	1e679563          	bne	a5,t1,10f70 <_malloc_r+0x59e>
   10d8a:	0035f793          	andi	a5,a1,3
   10d8e:	1361                	addi	t1,t1,-8
   10d90:	fbe5                	bnez	a5,10d80 <_malloc_r+0x3ae>
   10d92:	00492703          	lw	a4,4(s2)
   10d96:	fff64793          	not	a5,a2
   10d9a:	8ff9                	and	a5,a5,a4
   10d9c:	00f92223          	sw	a5,4(s2)
   10da0:	0606                	slli	a2,a2,0x1
   10da2:	dcc7e9e3          	bltu	a5,a2,10b74 <_malloc_r+0x1a2>
   10da6:	dc0607e3          	beqz	a2,10b74 <_malloc_r+0x1a2>
   10daa:	00f67733          	and	a4,a2,a5
   10dae:	e711                	bnez	a4,10dba <_malloc_r+0x3e8>
   10db0:	0606                	slli	a2,a2,0x1
   10db2:	00f67733          	and	a4,a2,a5
   10db6:	0e11                	addi	t3,t3,4
   10db8:	df65                	beqz	a4,10db0 <_malloc_r+0x3de>
   10dba:	85f2                	mv	a1,t3
   10dbc:	b38d                	j	10b1e <_malloc_r+0x14c>
   10dbe:	f6418c13          	addi	s8,gp,-156 # 1c9dc <__malloc_current_mallinfo>
   10dc2:	000c2703          	lw	a4,0(s8)
   10dc6:	9756                	add	a4,a4,s5
   10dc8:	00ec2023          	sw	a4,0(s8)
   10dcc:	f1c1a683          	lw	a3,-228(gp) # 1c994 <__malloc_sbrk_base>
   10dd0:	57fd                	li	a5,-1
   10dd2:	12f68563          	beq	a3,a5,10efc <_malloc_r+0x52a>
   10dd6:	414b87b3          	sub	a5,s7,s4
   10dda:	97ba                	add	a5,a5,a4
   10ddc:	00fc2023          	sw	a5,0(s8)
   10de0:	007bfc93          	andi	s9,s7,7
   10de4:	0a0c8263          	beqz	s9,10e88 <_malloc_r+0x4b6>
   10de8:	419b8bb3          	sub	s7,s7,s9
   10dec:	6785                	lui	a5,0x1
   10dee:	07a1                	addi	a5,a5,8 # 1008 <exit-0xf08c>
   10df0:	0ba1                	addi	s7,s7,8
   10df2:	419785b3          	sub	a1,a5,s9
   10df6:	9ade                	add	s5,s5,s7
   10df8:	415585b3          	sub	a1,a1,s5
   10dfc:	05d2                	slli	a1,a1,0x14
   10dfe:	0145da13          	srli	s4,a1,0x14
   10e02:	85d2                	mv	a1,s4
   10e04:	854e                	mv	a0,s3
   10e06:	77a000ef          	jal	11580 <_sbrk_r>
   10e0a:	57fd                	li	a5,-1
   10e0c:	12f50463          	beq	a0,a5,10f34 <_malloc_r+0x562>
   10e10:	41750533          	sub	a0,a0,s7
   10e14:	01450ab3          	add	s5,a0,s4
   10e18:	000c2703          	lw	a4,0(s8)
   10e1c:	01792423          	sw	s7,8(s2)
   10e20:	001ae793          	ori	a5,s5,1
   10e24:	00ea05b3          	add	a1,s4,a4
   10e28:	00bc2023          	sw	a1,0(s8)
   10e2c:	00fba223          	sw	a5,4(s7)
   10e30:	dd2404e3          	beq	s0,s2,10bf8 <_malloc_r+0x226>
   10e34:	46bd                	li	a3,15
   10e36:	0766f963          	bgeu	a3,s6,10ea8 <_malloc_r+0x4d6>
   10e3a:	4058                	lw	a4,4(s0)
   10e3c:	ff4b0793          	addi	a5,s6,-12
   10e40:	9be1                	andi	a5,a5,-8
   10e42:	8b05                	andi	a4,a4,1
   10e44:	8f5d                	or	a4,a4,a5
   10e46:	c058                	sw	a4,4(s0)
   10e48:	4615                	li	a2,5
   10e4a:	00f40733          	add	a4,s0,a5
   10e4e:	c350                	sw	a2,4(a4)
   10e50:	c710                	sw	a2,8(a4)
   10e52:	00f6e563          	bltu	a3,a5,10e5c <_malloc_r+0x48a>
   10e56:	004ba783          	lw	a5,4(s7)
   10e5a:	bb79                	j	10bf8 <_malloc_r+0x226>
   10e5c:	00840593          	addi	a1,s0,8
   10e60:	854e                	mv	a0,s3
   10e62:	2a7000ef          	jal	11908 <_free_r>
   10e66:	00892b83          	lw	s7,8(s2)
   10e6a:	000c2583          	lw	a1,0(s8)
   10e6e:	004ba783          	lw	a5,4(s7)
   10e72:	b359                	j	10bf8 <_malloc_r+0x226>
   10e74:	0ac1                	addi	s5,s5,16
   10e76:	b381                	j	10bb6 <_malloc_r+0x1e4>
   10e78:	8689                	srai	a3,a3,0x2
   10e7a:	4785                	li	a5,1
   10e7c:	00d797b3          	sll	a5,a5,a3
   10e80:	8d5d                	or	a0,a0,a5
   10e82:	00a92223          	sw	a0,4(s2)
   10e86:	bd29                	j	10ca0 <_malloc_r+0x2ce>
   10e88:	015b85b3          	add	a1,s7,s5
   10e8c:	40b005b3          	neg	a1,a1
   10e90:	05d2                	slli	a1,a1,0x14
   10e92:	0145da13          	srli	s4,a1,0x14
   10e96:	85d2                	mv	a1,s4
   10e98:	854e                	mv	a0,s3
   10e9a:	6e6000ef          	jal	11580 <_sbrk_r>
   10e9e:	57fd                	li	a5,-1
   10ea0:	f6f518e3          	bne	a0,a5,10e10 <_malloc_r+0x43e>
   10ea4:	4a01                	li	s4,0
   10ea6:	bf8d                	j	10e18 <_malloc_r+0x446>
   10ea8:	4c22                	lw	s8,8(sp)
   10eaa:	4785                	li	a5,1
   10eac:	00fba223          	sw	a5,4(s7)
   10eb0:	854e                	mv	a0,s3
   10eb2:	20d9                	jal	10f78 <__malloc_unlock>
   10eb4:	4501                	li	a0,0
   10eb6:	4a62                	lw	s4,24(sp)
   10eb8:	4ad2                	lw	s5,20(sp)
   10eba:	4b42                	lw	s6,16(sp)
   10ebc:	4bb2                	lw	s7,12(sp)
   10ebe:	4c92                	lw	s9,4(sp)
   10ec0:	b6a5                	j	10a28 <_malloc_r+0x56>
   10ec2:	05400693          	li	a3,84
   10ec6:	02e6ee63          	bltu	a3,a4,10f02 <_malloc_r+0x530>
   10eca:	00c7d713          	srli	a4,a5,0xc
   10ece:	06f70613          	addi	a2,a4,111
   10ed2:	06e70693          	addi	a3,a4,110
   10ed6:	060e                	slli	a2,a2,0x3
   10ed8:	b375                	j	10c84 <_malloc_r+0x2b2>
   10eda:	15400713          	li	a4,340
   10ede:	02f76e63          	bltu	a4,a5,10f1a <_malloc_r+0x548>
   10ee2:	00f4d793          	srli	a5,s1,0xf
   10ee6:	07878593          	addi	a1,a5,120
   10eea:	07778813          	addi	a6,a5,119
   10eee:	00359613          	slli	a2,a1,0x3
   10ef2:	bea5                	j	10a6a <_malloc_r+0x98>
   10ef4:	00892403          	lw	s0,8(s2)
   10ef8:	405c                	lw	a5,4(s0)
   10efa:	bb29                	j	10c14 <_malloc_r+0x242>
   10efc:	f171ae23          	sw	s7,-228(gp) # 1c994 <__malloc_sbrk_base>
   10f00:	b5c5                	j	10de0 <_malloc_r+0x40e>
   10f02:	15400693          	li	a3,340
   10f06:	02e6ed63          	bltu	a3,a4,10f40 <_malloc_r+0x56e>
   10f0a:	00f7d713          	srli	a4,a5,0xf
   10f0e:	07870613          	addi	a2,a4,120
   10f12:	07770693          	addi	a3,a4,119
   10f16:	060e                	slli	a2,a2,0x3
   10f18:	b3b5                	j	10c84 <_malloc_r+0x2b2>
   10f1a:	55400713          	li	a4,1364
   10f1e:	02f76d63          	bltu	a4,a5,10f58 <_malloc_r+0x586>
   10f22:	0124d793          	srli	a5,s1,0x12
   10f26:	07d78593          	addi	a1,a5,125
   10f2a:	07c78813          	addi	a6,a5,124
   10f2e:	00359613          	slli	a2,a1,0x3
   10f32:	be25                	j	10a6a <_malloc_r+0x98>
   10f34:	1ce1                	addi	s9,s9,-8
   10f36:	9ae6                	add	s5,s5,s9
   10f38:	417a8ab3          	sub	s5,s5,s7
   10f3c:	4a01                	li	s4,0
   10f3e:	bde9                	j	10e18 <_malloc_r+0x446>
   10f40:	55400693          	li	a3,1364
   10f44:	02e6e163          	bltu	a3,a4,10f66 <_malloc_r+0x594>
   10f48:	0127d713          	srli	a4,a5,0x12
   10f4c:	07d70613          	addi	a2,a4,125
   10f50:	07c70693          	addi	a3,a4,124
   10f54:	060e                	slli	a2,a2,0x3
   10f56:	b33d                	j	10c84 <_malloc_r+0x2b2>
   10f58:	3f800613          	li	a2,1016
   10f5c:	07f00593          	li	a1,127
   10f60:	07e00813          	li	a6,126
   10f64:	b619                	j	10a6a <_malloc_r+0x98>
   10f66:	3f800613          	li	a2,1016
   10f6a:	07e00693          	li	a3,126
   10f6e:	bb19                	j	10c84 <_malloc_r+0x2b2>
   10f70:	00492783          	lw	a5,4(s2)
   10f74:	b535                	j	10da0 <_malloc_r+0x3ce>

00010f76 <__malloc_lock>:
   10f76:	8082                	ret

00010f78 <__malloc_unlock>:
   10f78:	8082                	ret

00010f7a <srand>:
   10f7a:	f241a783          	lw	a5,-220(gp) # 1c99c <_impure_ptr>
   10f7e:	08a7ac23          	sw	a0,152(a5)
   10f82:	0807ae23          	sw	zero,156(a5)
   10f86:	8082                	ret

00010f88 <rand>:
   10f88:	f241a803          	lw	a6,-220(gp) # 1c99c <_impure_ptr>
   10f8c:	4c9585b7          	lui	a1,0x4c958
   10f90:	5851f637          	lui	a2,0x5851f
   10f94:	09882683          	lw	a3,152(a6)
   10f98:	09c82703          	lw	a4,156(a6)
   10f9c:	f2d58593          	addi	a1,a1,-211 # 4c957f2d <__BSS_END__+0x4c93b261>
   10fa0:	42d60613          	addi	a2,a2,1069 # 5851f42d <__BSS_END__+0x58502761>
   10fa4:	02b687b3          	mul	a5,a3,a1
   10fa8:	02c68633          	mul	a2,a3,a2
   10fac:	00178513          	addi	a0,a5,1
   10fb0:	00f537b3          	sltu	a5,a0,a5
   10fb4:	08a82c23          	sw	a0,152(a6)
   10fb8:	02b70733          	mul	a4,a4,a1
   10fbc:	02b6b6b3          	mulhu	a3,a3,a1
   10fc0:	9732                	add	a4,a4,a2
   10fc2:	9736                	add	a4,a4,a3
   10fc4:	97ba                	add	a5,a5,a4
   10fc6:	00179513          	slli	a0,a5,0x1
   10fca:	08f82e23          	sw	a5,156(a6)
   10fce:	8105                	srli	a0,a0,0x1
   10fd0:	8082                	ret

00010fd2 <__fp_lock>:
   10fd2:	4501                	li	a0,0
   10fd4:	8082                	ret

00010fd6 <stdio_exit_handler>:
   10fd6:	65d1                	lui	a1,0x14
   10fd8:	c0818613          	addi	a2,gp,-1016 # 1c680 <__sglue>
   10fdc:	67858593          	addi	a1,a1,1656 # 14678 <_fclose_r>
   10fe0:	c1818513          	addi	a0,gp,-1000 # 1c690 <_impure_data>
   10fe4:	ac91                	j	11238 <_fwalk_sglue>

00010fe6 <cleanup_stdio>:
   10fe6:	414c                	lw	a1,4(a0)
   10fe8:	1141                	addi	sp,sp,-16
   10fea:	c422                	sw	s0,8(sp)
   10fec:	c606                	sw	ra,12(sp)
   10fee:	f8c18793          	addi	a5,gp,-116 # 1ca04 <__sf>
   10ff2:	842a                	mv	s0,a0
   10ff4:	00f58463          	beq	a1,a5,10ffc <cleanup_stdio+0x16>
   10ff8:	680030ef          	jal	14678 <_fclose_r>
   10ffc:	440c                	lw	a1,8(s0)
   10ffe:	ff418793          	addi	a5,gp,-12 # 1ca6c <__sf+0x68>
   11002:	00f58563          	beq	a1,a5,1100c <cleanup_stdio+0x26>
   11006:	8522                	mv	a0,s0
   11008:	670030ef          	jal	14678 <_fclose_r>
   1100c:	444c                	lw	a1,12(s0)
   1100e:	05c18793          	addi	a5,gp,92 # 1cad4 <__global_pointer$+0x5c>
   11012:	00f58863          	beq	a1,a5,11022 <cleanup_stdio+0x3c>
   11016:	8522                	mv	a0,s0
   11018:	4422                	lw	s0,8(sp)
   1101a:	40b2                	lw	ra,12(sp)
   1101c:	0141                	addi	sp,sp,16
   1101e:	65a0306f          	j	14678 <_fclose_r>
   11022:	40b2                	lw	ra,12(sp)
   11024:	4422                	lw	s0,8(sp)
   11026:	0141                	addi	sp,sp,16
   11028:	8082                	ret

0001102a <__fp_unlock>:
   1102a:	4501                	li	a0,0
   1102c:	8082                	ret

0001102e <global_stdio_init.part.0>:
   1102e:	1101                	addi	sp,sp,-32
   11030:	67c5                	lui	a5,0x11
   11032:	cc22                	sw	s0,24(sp)
   11034:	fd678793          	addi	a5,a5,-42 # 10fd6 <stdio_exit_handler>
   11038:	f8c18413          	addi	s0,gp,-116 # 1ca04 <__sf>
   1103c:	ce06                	sw	ra,28(sp)
   1103e:	ca26                	sw	s1,20(sp)
   11040:	c84a                	sw	s2,16(sp)
   11042:	c64e                	sw	s3,12(sp)
   11044:	c452                	sw	s4,8(sp)
   11046:	f2f1aa23          	sw	a5,-204(gp) # 1c9ac <__stdio_exit_handler>
   1104a:	4621                	li	a2,8
   1104c:	4791                	li	a5,4
   1104e:	4581                	li	a1,0
   11050:	fe818513          	addi	a0,gp,-24 # 1ca60 <__sf+0x5c>
   11054:	c45c                	sw	a5,12(s0)
   11056:	00042023          	sw	zero,0(s0)
   1105a:	00042223          	sw	zero,4(s0)
   1105e:	00042423          	sw	zero,8(s0)
   11062:	06042223          	sw	zero,100(s0)
   11066:	00042823          	sw	zero,16(s0)
   1106a:	00042a23          	sw	zero,20(s0)
   1106e:	00042c23          	sw	zero,24(s0)
   11072:	23ed                	jal	1165c <memset>
   11074:	67c1                	lui	a5,0x10
   11076:	6a45                	lui	s4,0x11
   11078:	69c5                	lui	s3,0x11
   1107a:	6945                	lui	s2,0x11
   1107c:	64c5                	lui	s1,0x11
   1107e:	38ea0a13          	addi	s4,s4,910 # 1138e <__sread>
   11082:	3c898993          	addi	s3,s3,968 # 113c8 <__swrite>
   11086:	41890913          	addi	s2,s2,1048 # 11418 <__sseek>
   1108a:	46048493          	addi	s1,s1,1120 # 11460 <__sclose>
   1108e:	07a5                	addi	a5,a5,9 # 10009 <exit-0x8b>
   11090:	4621                	li	a2,8
   11092:	4581                	li	a1,0
   11094:	05018513          	addi	a0,gp,80 # 1cac8 <__global_pointer$+0x50>
   11098:	03442023          	sw	s4,32(s0)
   1109c:	03342223          	sw	s3,36(s0)
   110a0:	03242423          	sw	s2,40(s0)
   110a4:	d444                	sw	s1,44(s0)
   110a6:	d87c                	sw	a5,116(s0)
   110a8:	cc40                	sw	s0,28(s0)
   110aa:	06042423          	sw	zero,104(s0)
   110ae:	06042623          	sw	zero,108(s0)
   110b2:	06042823          	sw	zero,112(s0)
   110b6:	0c042623          	sw	zero,204(s0)
   110ba:	06042c23          	sw	zero,120(s0)
   110be:	06042e23          	sw	zero,124(s0)
   110c2:	08042023          	sw	zero,128(s0)
   110c6:	2b59                	jal	1165c <memset>
   110c8:	000207b7          	lui	a5,0x20
   110cc:	07c9                	addi	a5,a5,18 # 20012 <__BSS_END__+0x3346>
   110ce:	ff418713          	addi	a4,gp,-12 # 1ca6c <__sf+0x68>
   110d2:	4621                	li	a2,8
   110d4:	4581                	li	a1,0
   110d6:	0b818513          	addi	a0,gp,184 # 1cb30 <__global_pointer$+0xb8>
   110da:	09442423          	sw	s4,136(s0)
   110de:	09342623          	sw	s3,140(s0)
   110e2:	09242823          	sw	s2,144(s0)
   110e6:	08942a23          	sw	s1,148(s0)
   110ea:	0cf42e23          	sw	a5,220(s0)
   110ee:	08e42223          	sw	a4,132(s0)
   110f2:	0c042823          	sw	zero,208(s0)
   110f6:	0c042a23          	sw	zero,212(s0)
   110fa:	0c042c23          	sw	zero,216(s0)
   110fe:	12042a23          	sw	zero,308(s0)
   11102:	0e042023          	sw	zero,224(s0)
   11106:	0e042223          	sw	zero,228(s0)
   1110a:	0e042423          	sw	zero,232(s0)
   1110e:	23b9                	jal	1165c <memset>
   11110:	05c18793          	addi	a5,gp,92 # 1cad4 <__global_pointer$+0x5c>
   11114:	0f442823          	sw	s4,240(s0)
   11118:	0f342a23          	sw	s3,244(s0)
   1111c:	0f242c23          	sw	s2,248(s0)
   11120:	0e942e23          	sw	s1,252(s0)
   11124:	40f2                	lw	ra,28(sp)
   11126:	0ef42623          	sw	a5,236(s0)
   1112a:	4462                	lw	s0,24(sp)
   1112c:	44d2                	lw	s1,20(sp)
   1112e:	4942                	lw	s2,16(sp)
   11130:	49b2                	lw	s3,12(sp)
   11132:	4a22                	lw	s4,8(sp)
   11134:	6105                	addi	sp,sp,32
   11136:	8082                	ret

00011138 <__sfp>:
   11138:	f341a783          	lw	a5,-204(gp) # 1c9ac <__stdio_exit_handler>
   1113c:	1101                	addi	sp,sp,-32
   1113e:	c64e                	sw	s3,12(sp)
   11140:	ce06                	sw	ra,28(sp)
   11142:	cc22                	sw	s0,24(sp)
   11144:	ca26                	sw	s1,20(sp)
   11146:	c84a                	sw	s2,16(sp)
   11148:	89aa                	mv	s3,a0
   1114a:	c7c5                	beqz	a5,111f2 <__sfp+0xba>
   1114c:	c0818913          	addi	s2,gp,-1016 # 1c680 <__sglue>
   11150:	54fd                	li	s1,-1
   11152:	00492783          	lw	a5,4(s2)
   11156:	00892403          	lw	s0,8(s2)
   1115a:	17fd                	addi	a5,a5,-1
   1115c:	0007d763          	bgez	a5,1116a <__sfp+0x32>
   11160:	a8b9                	j	111be <__sfp+0x86>
   11162:	06840413          	addi	s0,s0,104
   11166:	04978c63          	beq	a5,s1,111be <__sfp+0x86>
   1116a:	00c41703          	lh	a4,12(s0)
   1116e:	17fd                	addi	a5,a5,-1
   11170:	fb6d                	bnez	a4,11162 <__sfp+0x2a>
   11172:	77c1                	lui	a5,0xffff0
   11174:	0785                	addi	a5,a5,1 # ffff0001 <__BSS_END__+0xfffd3335>
   11176:	c45c                	sw	a5,12(s0)
   11178:	06042223          	sw	zero,100(s0)
   1117c:	00042023          	sw	zero,0(s0)
   11180:	00042423          	sw	zero,8(s0)
   11184:	00042223          	sw	zero,4(s0)
   11188:	00042823          	sw	zero,16(s0)
   1118c:	00042a23          	sw	zero,20(s0)
   11190:	00042c23          	sw	zero,24(s0)
   11194:	4621                	li	a2,8
   11196:	4581                	li	a1,0
   11198:	05c40513          	addi	a0,s0,92
   1119c:	21c1                	jal	1165c <memset>
   1119e:	02042823          	sw	zero,48(s0)
   111a2:	02042a23          	sw	zero,52(s0)
   111a6:	04042223          	sw	zero,68(s0)
   111aa:	04042423          	sw	zero,72(s0)
   111ae:	40f2                	lw	ra,28(sp)
   111b0:	8522                	mv	a0,s0
   111b2:	4462                	lw	s0,24(sp)
   111b4:	44d2                	lw	s1,20(sp)
   111b6:	4942                	lw	s2,16(sp)
   111b8:	49b2                	lw	s3,12(sp)
   111ba:	6105                	addi	sp,sp,32
   111bc:	8082                	ret
   111be:	00092403          	lw	s0,0(s2)
   111c2:	c019                	beqz	s0,111c8 <__sfp+0x90>
   111c4:	8922                	mv	s2,s0
   111c6:	b771                	j	11152 <__sfp+0x1a>
   111c8:	1ac00593          	li	a1,428
   111cc:	854e                	mv	a0,s3
   111ce:	805ff0ef          	jal	109d2 <_malloc_r>
   111d2:	842a                	mv	s0,a0
   111d4:	c10d                	beqz	a0,111f6 <__sfp+0xbe>
   111d6:	0531                	addi	a0,a0,12
   111d8:	4791                	li	a5,4
   111da:	00042023          	sw	zero,0(s0)
   111de:	c05c                	sw	a5,4(s0)
   111e0:	c408                	sw	a0,8(s0)
   111e2:	1a000613          	li	a2,416
   111e6:	4581                	li	a1,0
   111e8:	2995                	jal	1165c <memset>
   111ea:	00892023          	sw	s0,0(s2)
   111ee:	8922                	mv	s2,s0
   111f0:	b78d                	j	11152 <__sfp+0x1a>
   111f2:	3d35                	jal	1102e <global_stdio_init.part.0>
   111f4:	bfa1                	j	1114c <__sfp+0x14>
   111f6:	00092023          	sw	zero,0(s2)
   111fa:	47b1                	li	a5,12
   111fc:	00f9a023          	sw	a5,0(s3)
   11200:	b77d                	j	111ae <__sfp+0x76>

00011202 <__sinit>:
   11202:	595c                	lw	a5,52(a0)
   11204:	c391                	beqz	a5,11208 <__sinit+0x6>
   11206:	8082                	ret
   11208:	f341a703          	lw	a4,-204(gp) # 1c9ac <__stdio_exit_handler>
   1120c:	67c5                	lui	a5,0x11
   1120e:	fe678793          	addi	a5,a5,-26 # 10fe6 <cleanup_stdio>
   11212:	d95c                	sw	a5,52(a0)
   11214:	fb6d                	bnez	a4,11206 <__sinit+0x4>
   11216:	bd21                	j	1102e <global_stdio_init.part.0>

00011218 <__sfp_lock_acquire>:
   11218:	8082                	ret

0001121a <__sfp_lock_release>:
   1121a:	8082                	ret

0001121c <__fp_lock_all>:
   1121c:	65c5                	lui	a1,0x11
   1121e:	c0818613          	addi	a2,gp,-1016 # 1c680 <__sglue>
   11222:	fd258593          	addi	a1,a1,-46 # 10fd2 <__fp_lock>
   11226:	4501                	li	a0,0
   11228:	a801                	j	11238 <_fwalk_sglue>

0001122a <__fp_unlock_all>:
   1122a:	65c5                	lui	a1,0x11
   1122c:	c0818613          	addi	a2,gp,-1016 # 1c680 <__sglue>
   11230:	02a58593          	addi	a1,a1,42 # 1102a <__fp_unlock>
   11234:	4501                	li	a0,0
   11236:	a009                	j	11238 <_fwalk_sglue>

00011238 <_fwalk_sglue>:
   11238:	7179                	addi	sp,sp,-48
   1123a:	d04a                	sw	s2,32(sp)
   1123c:	ce4e                	sw	s3,28(sp)
   1123e:	cc52                	sw	s4,24(sp)
   11240:	ca56                	sw	s5,20(sp)
   11242:	c85a                	sw	s6,16(sp)
   11244:	c65e                	sw	s7,12(sp)
   11246:	d606                	sw	ra,44(sp)
   11248:	d422                	sw	s0,40(sp)
   1124a:	d226                	sw	s1,36(sp)
   1124c:	8b2a                	mv	s6,a0
   1124e:	8bae                	mv	s7,a1
   11250:	8ab2                	mv	s5,a2
   11252:	4a01                	li	s4,0
   11254:	4985                	li	s3,1
   11256:	597d                	li	s2,-1
   11258:	004aa483          	lw	s1,4(s5)
   1125c:	008aa403          	lw	s0,8(s5)
   11260:	14fd                	addi	s1,s1,-1
   11262:	0204c463          	bltz	s1,1128a <_fwalk_sglue+0x52>
   11266:	00c45783          	lhu	a5,12(s0)
   1126a:	00f9fb63          	bgeu	s3,a5,11280 <_fwalk_sglue+0x48>
   1126e:	00e41783          	lh	a5,14(s0)
   11272:	85a2                	mv	a1,s0
   11274:	855a                	mv	a0,s6
   11276:	01278563          	beq	a5,s2,11280 <_fwalk_sglue+0x48>
   1127a:	9b82                	jalr	s7
   1127c:	00aa6a33          	or	s4,s4,a0
   11280:	14fd                	addi	s1,s1,-1
   11282:	06840413          	addi	s0,s0,104
   11286:	ff2490e3          	bne	s1,s2,11266 <_fwalk_sglue+0x2e>
   1128a:	000aaa83          	lw	s5,0(s5)
   1128e:	fc0a95e3          	bnez	s5,11258 <_fwalk_sglue+0x20>
   11292:	50b2                	lw	ra,44(sp)
   11294:	5422                	lw	s0,40(sp)
   11296:	5492                	lw	s1,36(sp)
   11298:	5902                	lw	s2,32(sp)
   1129a:	49f2                	lw	s3,28(sp)
   1129c:	4ad2                	lw	s5,20(sp)
   1129e:	4b42                	lw	s6,16(sp)
   112a0:	4bb2                	lw	s7,12(sp)
   112a2:	8552                	mv	a0,s4
   112a4:	4a62                	lw	s4,24(sp)
   112a6:	6145                	addi	sp,sp,48
   112a8:	8082                	ret

000112aa <_printf_r>:
   112aa:	7139                	addi	sp,sp,-64
   112ac:	d432                	sw	a2,40(sp)
   112ae:	d636                	sw	a3,44(sp)
   112b0:	d83a                	sw	a4,48(sp)
   112b2:	da3e                	sw	a5,52(sp)
   112b4:	dc42                	sw	a6,56(sp)
   112b6:	de46                	sw	a7,60(sp)
   112b8:	862e                	mv	a2,a1
   112ba:	450c                	lw	a1,8(a0)
   112bc:	1034                	addi	a3,sp,40
   112be:	ce06                	sw	ra,28(sp)
   112c0:	c636                	sw	a3,12(sp)
   112c2:	06d000ef          	jal	11b2e <_vfprintf_r>
   112c6:	40f2                	lw	ra,28(sp)
   112c8:	6121                	addi	sp,sp,64
   112ca:	8082                	ret

000112cc <printf>:
   112cc:	f241a303          	lw	t1,-220(gp) # 1c99c <_impure_ptr>
   112d0:	7139                	addi	sp,sp,-64
   112d2:	d432                	sw	a2,40(sp)
   112d4:	d636                	sw	a3,44(sp)
   112d6:	d22e                	sw	a1,36(sp)
   112d8:	d83a                	sw	a4,48(sp)
   112da:	da3e                	sw	a5,52(sp)
   112dc:	dc42                	sw	a6,56(sp)
   112de:	de46                	sw	a7,60(sp)
   112e0:	00832583          	lw	a1,8(t1)
   112e4:	1054                	addi	a3,sp,36
   112e6:	862a                	mv	a2,a0
   112e8:	851a                	mv	a0,t1
   112ea:	ce06                	sw	ra,28(sp)
   112ec:	c636                	sw	a3,12(sp)
   112ee:	041000ef          	jal	11b2e <_vfprintf_r>
   112f2:	40f2                	lw	ra,28(sp)
   112f4:	6121                	addi	sp,sp,64
   112f6:	8082                	ret

000112f8 <_putchar_r>:
   112f8:	4510                	lw	a2,8(a0)
   112fa:	1930306f          	j	14c8c <_putc_r>

000112fe <putchar>:
   112fe:	f241a783          	lw	a5,-220(gp) # 1c99c <_impure_ptr>
   11302:	85aa                	mv	a1,a0
   11304:	4790                	lw	a2,8(a5)
   11306:	853e                	mv	a0,a5
   11308:	1850306f          	j	14c8c <_putc_r>

0001130c <_puts_r>:
   1130c:	7139                	addi	sp,sp,-64
   1130e:	dc22                	sw	s0,56(sp)
   11310:	842a                	mv	s0,a0
   11312:	852e                	mv	a0,a1
   11314:	da26                	sw	s1,52(sp)
   11316:	de06                	sw	ra,60(sp)
   11318:	84ae                	mv	s1,a1
   1131a:	26ed                	jal	11704 <strlen>
   1131c:	67ed                	lui	a5,0x1b
   1131e:	a7078793          	addi	a5,a5,-1424 # 1aa70 <__clzsi2+0xd6>
   11322:	d43e                	sw	a5,40(sp)
   11324:	4785                	li	a5,1
   11326:	d63e                	sw	a5,44(sp)
   11328:	5858                	lw	a4,52(s0)
   1132a:	101c                	addi	a5,sp,32
   1132c:	00150693          	addi	a3,a0,1
   11330:	ca3e                	sw	a5,20(sp)
   11332:	4789                	li	a5,2
   11334:	d026                	sw	s1,32(sp)
   11336:	d22a                	sw	a0,36(sp)
   11338:	ce36                	sw	a3,28(sp)
   1133a:	cc3e                	sw	a5,24(sp)
   1133c:	440c                	lw	a1,8(s0)
   1133e:	cf1d                	beqz	a4,1137c <_puts_r+0x70>
   11340:	00c59783          	lh	a5,12(a1)
   11344:	01279713          	slli	a4,a5,0x12
   11348:	00074b63          	bltz	a4,1135e <_puts_r+0x52>
   1134c:	51f8                	lw	a4,100(a1)
   1134e:	76f9                	lui	a3,0xffffe
   11350:	16fd                	addi	a3,a3,-1 # ffffdfff <__BSS_END__+0xfffe1333>
   11352:	6609                	lui	a2,0x2
   11354:	8fd1                	or	a5,a5,a2
   11356:	8f75                	and	a4,a4,a3
   11358:	00f59623          	sh	a5,12(a1)
   1135c:	d1f8                	sw	a4,100(a1)
   1135e:	0850                	addi	a2,sp,20
   11360:	8522                	mv	a0,s0
   11362:	5da030ef          	jal	1493c <__sfvwrite_r>
   11366:	50f2                	lw	ra,60(sp)
   11368:	5462                	lw	s0,56(sp)
   1136a:	00153513          	seqz	a0,a0
   1136e:	40a00533          	neg	a0,a0
   11372:	892d                	andi	a0,a0,11
   11374:	54d2                	lw	s1,52(sp)
   11376:	157d                	addi	a0,a0,-1
   11378:	6121                	addi	sp,sp,64
   1137a:	8082                	ret
   1137c:	8522                	mv	a0,s0
   1137e:	c62e                	sw	a1,12(sp)
   11380:	3549                	jal	11202 <__sinit>
   11382:	45b2                	lw	a1,12(sp)
   11384:	bf75                	j	11340 <_puts_r+0x34>

00011386 <puts>:
   11386:	85aa                	mv	a1,a0
   11388:	f241a503          	lw	a0,-220(gp) # 1c99c <_impure_ptr>
   1138c:	b741                	j	1130c <_puts_r>

0001138e <__sread>:
   1138e:	1141                	addi	sp,sp,-16
   11390:	c422                	sw	s0,8(sp)
   11392:	842e                	mv	s0,a1
   11394:	00e59583          	lh	a1,14(a1)
   11398:	c606                	sw	ra,12(sp)
   1139a:	226d                	jal	11544 <_read_r>
   1139c:	00054963          	bltz	a0,113ae <__sread+0x20>
   113a0:	483c                	lw	a5,80(s0)
   113a2:	40b2                	lw	ra,12(sp)
   113a4:	97aa                	add	a5,a5,a0
   113a6:	c83c                	sw	a5,80(s0)
   113a8:	4422                	lw	s0,8(sp)
   113aa:	0141                	addi	sp,sp,16
   113ac:	8082                	ret
   113ae:	00c45783          	lhu	a5,12(s0)
   113b2:	777d                	lui	a4,0xfffff
   113b4:	177d                	addi	a4,a4,-1 # ffffefff <__BSS_END__+0xfffe2333>
   113b6:	8ff9                	and	a5,a5,a4
   113b8:	40b2                	lw	ra,12(sp)
   113ba:	00f41623          	sh	a5,12(s0)
   113be:	4422                	lw	s0,8(sp)
   113c0:	0141                	addi	sp,sp,16
   113c2:	8082                	ret

000113c4 <__seofread>:
   113c4:	4501                	li	a0,0
   113c6:	8082                	ret

000113c8 <__swrite>:
   113c8:	00c59783          	lh	a5,12(a1)
   113cc:	1101                	addi	sp,sp,-32
   113ce:	cc22                	sw	s0,24(sp)
   113d0:	ca26                	sw	s1,20(sp)
   113d2:	c84a                	sw	s2,16(sp)
   113d4:	c64e                	sw	s3,12(sp)
   113d6:	ce06                	sw	ra,28(sp)
   113d8:	1007f713          	andi	a4,a5,256
   113dc:	842e                	mv	s0,a1
   113de:	84aa                	mv	s1,a0
   113e0:	8932                	mv	s2,a2
   113e2:	89b6                	mv	s3,a3
   113e4:	e315                	bnez	a4,11408 <__swrite+0x40>
   113e6:	777d                	lui	a4,0xfffff
   113e8:	177d                	addi	a4,a4,-1 # ffffefff <__BSS_END__+0xfffe2333>
   113ea:	8ff9                	and	a5,a5,a4
   113ec:	00e41583          	lh	a1,14(s0)
   113f0:	00f41623          	sh	a5,12(s0)
   113f4:	4462                	lw	s0,24(sp)
   113f6:	40f2                	lw	ra,28(sp)
   113f8:	86ce                	mv	a3,s3
   113fa:	864a                	mv	a2,s2
   113fc:	49b2                	lw	s3,12(sp)
   113fe:	4942                	lw	s2,16(sp)
   11400:	8526                	mv	a0,s1
   11402:	44d2                	lw	s1,20(sp)
   11404:	6105                	addi	sp,sp,32
   11406:	aa45                	j	115b6 <_write_r>
   11408:	00e59583          	lh	a1,14(a1)
   1140c:	4689                	li	a3,2
   1140e:	4601                	li	a2,0
   11410:	28e5                	jal	11508 <_lseek_r>
   11412:	00c41783          	lh	a5,12(s0)
   11416:	bfc1                	j	113e6 <__swrite+0x1e>

00011418 <__sseek>:
   11418:	1141                	addi	sp,sp,-16
   1141a:	c422                	sw	s0,8(sp)
   1141c:	842e                	mv	s0,a1
   1141e:	00e59583          	lh	a1,14(a1)
   11422:	c606                	sw	ra,12(sp)
   11424:	20d5                	jal	11508 <_lseek_r>
   11426:	57fd                	li	a5,-1
   11428:	00f50f63          	beq	a0,a5,11446 <__sseek+0x2e>
   1142c:	00c45783          	lhu	a5,12(s0)
   11430:	6705                	lui	a4,0x1
   11432:	40b2                	lw	ra,12(sp)
   11434:	8fd9                	or	a5,a5,a4
   11436:	07c2                	slli	a5,a5,0x10
   11438:	87c1                	srai	a5,a5,0x10
   1143a:	c828                	sw	a0,80(s0)
   1143c:	00f41623          	sh	a5,12(s0)
   11440:	4422                	lw	s0,8(sp)
   11442:	0141                	addi	sp,sp,16
   11444:	8082                	ret
   11446:	00c45783          	lhu	a5,12(s0)
   1144a:	777d                	lui	a4,0xfffff
   1144c:	177d                	addi	a4,a4,-1 # ffffefff <__BSS_END__+0xfffe2333>
   1144e:	8ff9                	and	a5,a5,a4
   11450:	07c2                	slli	a5,a5,0x10
   11452:	87c1                	srai	a5,a5,0x10
   11454:	40b2                	lw	ra,12(sp)
   11456:	00f41623          	sh	a5,12(s0)
   1145a:	4422                	lw	s0,8(sp)
   1145c:	0141                	addi	sp,sp,16
   1145e:	8082                	ret

00011460 <__sclose>:
   11460:	00e59583          	lh	a1,14(a1)
   11464:	a009                	j	11466 <_close_r>

00011466 <_close_r>:
   11466:	1141                	addi	sp,sp,-16
   11468:	c422                	sw	s0,8(sp)
   1146a:	c226                	sw	s1,4(sp)
   1146c:	842a                	mv	s0,a0
   1146e:	852e                	mv	a0,a1
   11470:	c606                	sw	ra,12(sp)
   11472:	f201ac23          	sw	zero,-200(gp) # 1c9b0 <errno>
   11476:	697060ef          	jal	1830c <_close>
   1147a:	57fd                	li	a5,-1
   1147c:	00f50763          	beq	a0,a5,1148a <_close_r+0x24>
   11480:	40b2                	lw	ra,12(sp)
   11482:	4422                	lw	s0,8(sp)
   11484:	4492                	lw	s1,4(sp)
   11486:	0141                	addi	sp,sp,16
   11488:	8082                	ret
   1148a:	f381a783          	lw	a5,-200(gp) # 1c9b0 <errno>
   1148e:	dbed                	beqz	a5,11480 <_close_r+0x1a>
   11490:	40b2                	lw	ra,12(sp)
   11492:	c01c                	sw	a5,0(s0)
   11494:	4422                	lw	s0,8(sp)
   11496:	4492                	lw	s1,4(sp)
   11498:	0141                	addi	sp,sp,16
   1149a:	8082                	ret

0001149c <_reclaim_reent>:
   1149c:	f241a783          	lw	a5,-220(gp) # 1c99c <_impure_ptr>
   114a0:	06a78363          	beq	a5,a0,11506 <_reclaim_reent+0x6a>
   114a4:	416c                	lw	a1,68(a0)
   114a6:	1101                	addi	sp,sp,-32
   114a8:	ca26                	sw	s1,20(sp)
   114aa:	ce06                	sw	ra,28(sp)
   114ac:	84aa                	mv	s1,a0
   114ae:	c98d                	beqz	a1,114e0 <_reclaim_reent+0x44>
   114b0:	c84a                	sw	s2,16(sp)
   114b2:	c64e                	sw	s3,12(sp)
   114b4:	cc22                	sw	s0,24(sp)
   114b6:	4901                	li	s2,0
   114b8:	08000993          	li	s3,128
   114bc:	012587b3          	add	a5,a1,s2
   114c0:	4380                	lw	s0,0(a5)
   114c2:	c419                	beqz	s0,114d0 <_reclaim_reent+0x34>
   114c4:	85a2                	mv	a1,s0
   114c6:	4000                	lw	s0,0(s0)
   114c8:	8526                	mv	a0,s1
   114ca:	293d                	jal	11908 <_free_r>
   114cc:	fc65                	bnez	s0,114c4 <_reclaim_reent+0x28>
   114ce:	40ec                	lw	a1,68(s1)
   114d0:	0911                	addi	s2,s2,4
   114d2:	ff3915e3          	bne	s2,s3,114bc <_reclaim_reent+0x20>
   114d6:	8526                	mv	a0,s1
   114d8:	2905                	jal	11908 <_free_r>
   114da:	4462                	lw	s0,24(sp)
   114dc:	4942                	lw	s2,16(sp)
   114de:	49b2                	lw	s3,12(sp)
   114e0:	5c8c                	lw	a1,56(s1)
   114e2:	c199                	beqz	a1,114e8 <_reclaim_reent+0x4c>
   114e4:	8526                	mv	a0,s1
   114e6:	210d                	jal	11908 <_free_r>
   114e8:	44ec                	lw	a1,76(s1)
   114ea:	c199                	beqz	a1,114f0 <_reclaim_reent+0x54>
   114ec:	8526                	mv	a0,s1
   114ee:	2929                	jal	11908 <_free_r>
   114f0:	58dc                	lw	a5,52(s1)
   114f2:	c791                	beqz	a5,114fe <_reclaim_reent+0x62>
   114f4:	40f2                	lw	ra,28(sp)
   114f6:	8526                	mv	a0,s1
   114f8:	44d2                	lw	s1,20(sp)
   114fa:	6105                	addi	sp,sp,32
   114fc:	8782                	jr	a5
   114fe:	40f2                	lw	ra,28(sp)
   11500:	44d2                	lw	s1,20(sp)
   11502:	6105                	addi	sp,sp,32
   11504:	8082                	ret
   11506:	8082                	ret

00011508 <_lseek_r>:
   11508:	1141                	addi	sp,sp,-16
   1150a:	872e                	mv	a4,a1
   1150c:	c422                	sw	s0,8(sp)
   1150e:	c226                	sw	s1,4(sp)
   11510:	85b2                	mv	a1,a2
   11512:	842a                	mv	s0,a0
   11514:	8636                	mv	a2,a3
   11516:	853a                	mv	a0,a4
   11518:	c606                	sw	ra,12(sp)
   1151a:	f201ac23          	sw	zero,-200(gp) # 1c9b0 <errno>
   1151e:	6b3060ef          	jal	183d0 <_lseek>
   11522:	57fd                	li	a5,-1
   11524:	00f50763          	beq	a0,a5,11532 <_lseek_r+0x2a>
   11528:	40b2                	lw	ra,12(sp)
   1152a:	4422                	lw	s0,8(sp)
   1152c:	4492                	lw	s1,4(sp)
   1152e:	0141                	addi	sp,sp,16
   11530:	8082                	ret
   11532:	f381a783          	lw	a5,-200(gp) # 1c9b0 <errno>
   11536:	dbed                	beqz	a5,11528 <_lseek_r+0x20>
   11538:	40b2                	lw	ra,12(sp)
   1153a:	c01c                	sw	a5,0(s0)
   1153c:	4422                	lw	s0,8(sp)
   1153e:	4492                	lw	s1,4(sp)
   11540:	0141                	addi	sp,sp,16
   11542:	8082                	ret

00011544 <_read_r>:
   11544:	1141                	addi	sp,sp,-16
   11546:	872e                	mv	a4,a1
   11548:	c422                	sw	s0,8(sp)
   1154a:	c226                	sw	s1,4(sp)
   1154c:	85b2                	mv	a1,a2
   1154e:	842a                	mv	s0,a0
   11550:	8636                	mv	a2,a3
   11552:	853a                	mv	a0,a4
   11554:	c606                	sw	ra,12(sp)
   11556:	f201ac23          	sw	zero,-200(gp) # 1c9b0 <errno>
   1155a:	6a3060ef          	jal	183fc <_read>
   1155e:	57fd                	li	a5,-1
   11560:	00f50763          	beq	a0,a5,1156e <_read_r+0x2a>
   11564:	40b2                	lw	ra,12(sp)
   11566:	4422                	lw	s0,8(sp)
   11568:	4492                	lw	s1,4(sp)
   1156a:	0141                	addi	sp,sp,16
   1156c:	8082                	ret
   1156e:	f381a783          	lw	a5,-200(gp) # 1c9b0 <errno>
   11572:	dbed                	beqz	a5,11564 <_read_r+0x20>
   11574:	40b2                	lw	ra,12(sp)
   11576:	c01c                	sw	a5,0(s0)
   11578:	4422                	lw	s0,8(sp)
   1157a:	4492                	lw	s1,4(sp)
   1157c:	0141                	addi	sp,sp,16
   1157e:	8082                	ret

00011580 <_sbrk_r>:
   11580:	1141                	addi	sp,sp,-16
   11582:	c422                	sw	s0,8(sp)
   11584:	c226                	sw	s1,4(sp)
   11586:	842a                	mv	s0,a0
   11588:	852e                	mv	a0,a1
   1158a:	c606                	sw	ra,12(sp)
   1158c:	f201ac23          	sw	zero,-200(gp) # 1c9b0 <errno>
   11590:	699060ef          	jal	18428 <_sbrk>
   11594:	57fd                	li	a5,-1
   11596:	00f50763          	beq	a0,a5,115a4 <_sbrk_r+0x24>
   1159a:	40b2                	lw	ra,12(sp)
   1159c:	4422                	lw	s0,8(sp)
   1159e:	4492                	lw	s1,4(sp)
   115a0:	0141                	addi	sp,sp,16
   115a2:	8082                	ret
   115a4:	f381a783          	lw	a5,-200(gp) # 1c9b0 <errno>
   115a8:	dbed                	beqz	a5,1159a <_sbrk_r+0x1a>
   115aa:	40b2                	lw	ra,12(sp)
   115ac:	c01c                	sw	a5,0(s0)
   115ae:	4422                	lw	s0,8(sp)
   115b0:	4492                	lw	s1,4(sp)
   115b2:	0141                	addi	sp,sp,16
   115b4:	8082                	ret

000115b6 <_write_r>:
   115b6:	1141                	addi	sp,sp,-16
   115b8:	872e                	mv	a4,a1
   115ba:	c422                	sw	s0,8(sp)
   115bc:	c226                	sw	s1,4(sp)
   115be:	85b2                	mv	a1,a2
   115c0:	842a                	mv	s0,a0
   115c2:	8636                	mv	a2,a3
   115c4:	853a                	mv	a0,a4
   115c6:	c606                	sw	ra,12(sp)
   115c8:	f201ac23          	sw	zero,-200(gp) # 1c9b0 <errno>
   115cc:	6b1060ef          	jal	1847c <_write>
   115d0:	57fd                	li	a5,-1
   115d2:	00f50763          	beq	a0,a5,115e0 <_write_r+0x2a>
   115d6:	40b2                	lw	ra,12(sp)
   115d8:	4422                	lw	s0,8(sp)
   115da:	4492                	lw	s1,4(sp)
   115dc:	0141                	addi	sp,sp,16
   115de:	8082                	ret
   115e0:	f381a783          	lw	a5,-200(gp) # 1c9b0 <errno>
   115e4:	dbed                	beqz	a5,115d6 <_write_r+0x20>
   115e6:	40b2                	lw	ra,12(sp)
   115e8:	c01c                	sw	a5,0(s0)
   115ea:	4422                	lw	s0,8(sp)
   115ec:	4492                	lw	s1,4(sp)
   115ee:	0141                	addi	sp,sp,16
   115f0:	8082                	ret

000115f2 <__libc_init_array>:
   115f2:	1141                	addi	sp,sp,-16
   115f4:	c422                	sw	s0,8(sp)
   115f6:	67f1                	lui	a5,0x1c
   115f8:	6471                	lui	s0,0x1c
   115fa:	c04a                	sw	s2,0(sp)
   115fc:	26878793          	addi	a5,a5,616 # 1c268 <__init_array_start>
   11600:	26840713          	addi	a4,s0,616 # 1c268 <__init_array_start>
   11604:	c606                	sw	ra,12(sp)
   11606:	c226                	sw	s1,4(sp)
   11608:	40e78933          	sub	s2,a5,a4
   1160c:	00e78d63          	beq	a5,a4,11626 <__libc_init_array+0x34>
   11610:	40295913          	srai	s2,s2,0x2
   11614:	26840413          	addi	s0,s0,616
   11618:	4481                	li	s1,0
   1161a:	401c                	lw	a5,0(s0)
   1161c:	0485                	addi	s1,s1,1
   1161e:	0411                	addi	s0,s0,4
   11620:	9782                	jalr	a5
   11622:	ff24ece3          	bltu	s1,s2,1161a <__libc_init_array+0x28>
   11626:	6471                	lui	s0,0x1c
   11628:	67f1                	lui	a5,0x1c
   1162a:	27078793          	addi	a5,a5,624 # 1c270 <__do_global_dtors_aux_fini_array_entry>
   1162e:	26840713          	addi	a4,s0,616 # 1c268 <__init_array_start>
   11632:	40e78933          	sub	s2,a5,a4
   11636:	40295913          	srai	s2,s2,0x2
   1163a:	00e78b63          	beq	a5,a4,11650 <__libc_init_array+0x5e>
   1163e:	26840413          	addi	s0,s0,616
   11642:	4481                	li	s1,0
   11644:	401c                	lw	a5,0(s0)
   11646:	0485                	addi	s1,s1,1
   11648:	0411                	addi	s0,s0,4
   1164a:	9782                	jalr	a5
   1164c:	ff24ece3          	bltu	s1,s2,11644 <__libc_init_array+0x52>
   11650:	40b2                	lw	ra,12(sp)
   11652:	4422                	lw	s0,8(sp)
   11654:	4492                	lw	s1,4(sp)
   11656:	4902                	lw	s2,0(sp)
   11658:	0141                	addi	sp,sp,16
   1165a:	8082                	ret

0001165c <memset>:
   1165c:	433d                	li	t1,15
   1165e:	872a                	mv	a4,a0
   11660:	02c37363          	bgeu	t1,a2,11686 <memset+0x2a>
   11664:	00f77793          	andi	a5,a4,15
   11668:	efbd                	bnez	a5,116e6 <memset+0x8a>
   1166a:	e5ad                	bnez	a1,116d4 <memset+0x78>
   1166c:	ff067693          	andi	a3,a2,-16
   11670:	8a3d                	andi	a2,a2,15
   11672:	96ba                	add	a3,a3,a4
   11674:	c30c                	sw	a1,0(a4)
   11676:	c34c                	sw	a1,4(a4)
   11678:	c70c                	sw	a1,8(a4)
   1167a:	c74c                	sw	a1,12(a4)
   1167c:	0741                	addi	a4,a4,16
   1167e:	fed76be3          	bltu	a4,a3,11674 <memset+0x18>
   11682:	e211                	bnez	a2,11686 <memset+0x2a>
   11684:	8082                	ret
   11686:	40c306b3          	sub	a3,t1,a2
   1168a:	068a                	slli	a3,a3,0x2
   1168c:	00000297          	auipc	t0,0x0
   11690:	9696                	add	a3,a3,t0
   11692:	00a68067          	jr	10(a3)
   11696:	00b70723          	sb	a1,14(a4)
   1169a:	00b706a3          	sb	a1,13(a4)
   1169e:	00b70623          	sb	a1,12(a4)
   116a2:	00b705a3          	sb	a1,11(a4)
   116a6:	00b70523          	sb	a1,10(a4)
   116aa:	00b704a3          	sb	a1,9(a4)
   116ae:	00b70423          	sb	a1,8(a4)
   116b2:	00b703a3          	sb	a1,7(a4)
   116b6:	00b70323          	sb	a1,6(a4)
   116ba:	00b702a3          	sb	a1,5(a4)
   116be:	00b70223          	sb	a1,4(a4)
   116c2:	00b701a3          	sb	a1,3(a4)
   116c6:	00b70123          	sb	a1,2(a4)
   116ca:	00b700a3          	sb	a1,1(a4)
   116ce:	00b70023          	sb	a1,0(a4)
   116d2:	8082                	ret
   116d4:	0ff5f593          	zext.b	a1,a1
   116d8:	00859693          	slli	a3,a1,0x8
   116dc:	8dd5                	or	a1,a1,a3
   116de:	01059693          	slli	a3,a1,0x10
   116e2:	8dd5                	or	a1,a1,a3
   116e4:	b761                	j	1166c <memset+0x10>
   116e6:	00279693          	slli	a3,a5,0x2
   116ea:	00000297          	auipc	t0,0x0
   116ee:	9696                	add	a3,a3,t0
   116f0:	8286                	mv	t0,ra
   116f2:	fa8680e7          	jalr	-88(a3)
   116f6:	8096                	mv	ra,t0
   116f8:	17c1                	addi	a5,a5,-16
   116fa:	8f1d                	sub	a4,a4,a5
   116fc:	963e                	add	a2,a2,a5
   116fe:	f8c374e3          	bgeu	t1,a2,11686 <memset+0x2a>
   11702:	b7a5                	j	1166a <memset+0xe>

00011704 <strlen>:
   11704:	00357793          	andi	a5,a0,3
   11708:	872a                	mv	a4,a0
   1170a:	ef9d                	bnez	a5,11748 <strlen+0x44>
   1170c:	7f7f86b7          	lui	a3,0x7f7f8
   11710:	f7f68693          	addi	a3,a3,-129 # 7f7f7f7f <__BSS_END__+0x7f7db2b3>
   11714:	55fd                	li	a1,-1
   11716:	4310                	lw	a2,0(a4)
   11718:	0711                	addi	a4,a4,4
   1171a:	00d677b3          	and	a5,a2,a3
   1171e:	97b6                	add	a5,a5,a3
   11720:	8fd1                	or	a5,a5,a2
   11722:	8fd5                	or	a5,a5,a3
   11724:	feb789e3          	beq	a5,a1,11716 <strlen+0x12>
   11728:	ffc74683          	lbu	a3,-4(a4)
   1172c:	40a707b3          	sub	a5,a4,a0
   11730:	ca8d                	beqz	a3,11762 <strlen+0x5e>
   11732:	ffd74683          	lbu	a3,-3(a4)
   11736:	c29d                	beqz	a3,1175c <strlen+0x58>
   11738:	ffe74503          	lbu	a0,-2(a4)
   1173c:	00a03533          	snez	a0,a0
   11740:	953e                	add	a0,a0,a5
   11742:	1579                	addi	a0,a0,-2
   11744:	8082                	ret
   11746:	d2f9                	beqz	a3,1170c <strlen+0x8>
   11748:	00074783          	lbu	a5,0(a4)
   1174c:	0705                	addi	a4,a4,1
   1174e:	00377693          	andi	a3,a4,3
   11752:	fbf5                	bnez	a5,11746 <strlen+0x42>
   11754:	8f09                	sub	a4,a4,a0
   11756:	fff70513          	addi	a0,a4,-1
   1175a:	8082                	ret
   1175c:	ffd78513          	addi	a0,a5,-3
   11760:	8082                	ret
   11762:	ffc78513          	addi	a0,a5,-4
   11766:	8082                	ret

00011768 <__call_exitprocs>:
   11768:	7179                	addi	sp,sp,-48
   1176a:	cc52                	sw	s4,24(sp)
   1176c:	d04a                	sw	s2,32(sp)
   1176e:	f3c1a903          	lw	s2,-196(gp) # 1c9b4 <__atexit>
   11772:	d606                	sw	ra,44(sp)
   11774:	06090c63          	beqz	s2,117ec <__call_exitprocs+0x84>
   11778:	ce4e                	sw	s3,28(sp)
   1177a:	ca56                	sw	s5,20(sp)
   1177c:	c85a                	sw	s6,16(sp)
   1177e:	c65e                	sw	s7,12(sp)
   11780:	d422                	sw	s0,40(sp)
   11782:	d226                	sw	s1,36(sp)
   11784:	c462                	sw	s8,8(sp)
   11786:	8b2a                	mv	s6,a0
   11788:	8bae                	mv	s7,a1
   1178a:	59fd                	li	s3,-1
   1178c:	4a85                	li	s5,1
   1178e:	00492483          	lw	s1,4(s2)
   11792:	fff48413          	addi	s0,s1,-1
   11796:	04044463          	bltz	s0,117de <__call_exitprocs+0x76>
   1179a:	048a                	slli	s1,s1,0x2
   1179c:	94ca                	add	s1,s1,s2
   1179e:	040b9c63          	bnez	s7,117f6 <__call_exitprocs+0x8e>
   117a2:	00492783          	lw	a5,4(s2)
   117a6:	40d4                	lw	a3,4(s1)
   117a8:	17fd                	addi	a5,a5,-1
   117aa:	08878063          	beq	a5,s0,1182a <__call_exitprocs+0xc2>
   117ae:	0004a223          	sw	zero,4(s1)
   117b2:	c295                	beqz	a3,117d6 <__call_exitprocs+0x6e>
   117b4:	18892783          	lw	a5,392(s2)
   117b8:	008a9733          	sll	a4,s5,s0
   117bc:	00492c03          	lw	s8,4(s2)
   117c0:	8ff9                	and	a5,a5,a4
   117c2:	e3b9                	bnez	a5,11808 <__call_exitprocs+0xa0>
   117c4:	9682                	jalr	a3
   117c6:	00492703          	lw	a4,4(s2)
   117ca:	f3c1a783          	lw	a5,-196(gp) # 1c9b4 <__atexit>
   117ce:	05871b63          	bne	a4,s8,11824 <__call_exitprocs+0xbc>
   117d2:	05279963          	bne	a5,s2,11824 <__call_exitprocs+0xbc>
   117d6:	147d                	addi	s0,s0,-1
   117d8:	14f1                	addi	s1,s1,-4
   117da:	fd3412e3          	bne	s0,s3,1179e <__call_exitprocs+0x36>
   117de:	5422                	lw	s0,40(sp)
   117e0:	5492                	lw	s1,36(sp)
   117e2:	49f2                	lw	s3,28(sp)
   117e4:	4ad2                	lw	s5,20(sp)
   117e6:	4b42                	lw	s6,16(sp)
   117e8:	4bb2                	lw	s7,12(sp)
   117ea:	4c22                	lw	s8,8(sp)
   117ec:	50b2                	lw	ra,44(sp)
   117ee:	5902                	lw	s2,32(sp)
   117f0:	4a62                	lw	s4,24(sp)
   117f2:	6145                	addi	sp,sp,48
   117f4:	8082                	ret
   117f6:	1044a783          	lw	a5,260(s1)
   117fa:	fb7784e3          	beq	a5,s7,117a2 <__call_exitprocs+0x3a>
   117fe:	147d                	addi	s0,s0,-1
   11800:	14f1                	addi	s1,s1,-4
   11802:	ff341ae3          	bne	s0,s3,117f6 <__call_exitprocs+0x8e>
   11806:	bfe1                	j	117de <__call_exitprocs+0x76>
   11808:	18c92783          	lw	a5,396(s2)
   1180c:	0844a583          	lw	a1,132(s1)
   11810:	8f7d                	and	a4,a4,a5
   11812:	ef19                	bnez	a4,11830 <__call_exitprocs+0xc8>
   11814:	855a                	mv	a0,s6
   11816:	9682                	jalr	a3
   11818:	00492703          	lw	a4,4(s2)
   1181c:	f3c1a783          	lw	a5,-196(gp) # 1c9b4 <__atexit>
   11820:	fb8709e3          	beq	a4,s8,117d2 <__call_exitprocs+0x6a>
   11824:	dfcd                	beqz	a5,117de <__call_exitprocs+0x76>
   11826:	893e                	mv	s2,a5
   11828:	b79d                	j	1178e <__call_exitprocs+0x26>
   1182a:	00892223          	sw	s0,4(s2)
   1182e:	b751                	j	117b2 <__call_exitprocs+0x4a>
   11830:	852e                	mv	a0,a1
   11832:	9682                	jalr	a3
   11834:	bf49                	j	117c6 <__call_exitprocs+0x5e>

00011836 <atexit>:
   11836:	85aa                	mv	a1,a0
   11838:	4681                	li	a3,0
   1183a:	4601                	li	a2,0
   1183c:	4501                	li	a0,0
   1183e:	6010306f          	j	1563e <__register_exitproc>

00011842 <_malloc_trim_r>:
   11842:	1101                	addi	sp,sp,-32
   11844:	c64e                	sw	s3,12(sp)
   11846:	69f1                	lui	s3,0x1c
   11848:	cc22                	sw	s0,24(sp)
   1184a:	ca26                	sw	s1,20(sp)
   1184c:	c84a                	sw	s2,16(sp)
   1184e:	c452                	sw	s4,8(sp)
   11850:	ce06                	sw	ra,28(sp)
   11852:	8a2e                	mv	s4,a1
   11854:	892a                	mv	s2,a0
   11856:	27898993          	addi	s3,s3,632 # 1c278 <__malloc_av_>
   1185a:	f1cff0ef          	jal	10f76 <__malloc_lock>
   1185e:	0089a703          	lw	a4,8(s3)
   11862:	6785                	lui	a5,0x1
   11864:	17bd                	addi	a5,a5,-17 # fef <exit-0xf0a5>
   11866:	4344                	lw	s1,4(a4)
   11868:	6705                	lui	a4,0x1
   1186a:	98f1                	andi	s1,s1,-4
   1186c:	00f48433          	add	s0,s1,a5
   11870:	41440433          	sub	s0,s0,s4
   11874:	8031                	srli	s0,s0,0xc
   11876:	147d                	addi	s0,s0,-1
   11878:	0432                	slli	s0,s0,0xc
   1187a:	00e44a63          	blt	s0,a4,1188e <_malloc_trim_r+0x4c>
   1187e:	4581                	li	a1,0
   11880:	854a                	mv	a0,s2
   11882:	39fd                	jal	11580 <_sbrk_r>
   11884:	0089a783          	lw	a5,8(s3)
   11888:	97a6                	add	a5,a5,s1
   1188a:	00f50e63          	beq	a0,a5,118a6 <_malloc_trim_r+0x64>
   1188e:	854a                	mv	a0,s2
   11890:	ee8ff0ef          	jal	10f78 <__malloc_unlock>
   11894:	40f2                	lw	ra,28(sp)
   11896:	4462                	lw	s0,24(sp)
   11898:	44d2                	lw	s1,20(sp)
   1189a:	4942                	lw	s2,16(sp)
   1189c:	49b2                	lw	s3,12(sp)
   1189e:	4a22                	lw	s4,8(sp)
   118a0:	4501                	li	a0,0
   118a2:	6105                	addi	sp,sp,32
   118a4:	8082                	ret
   118a6:	408005b3          	neg	a1,s0
   118aa:	854a                	mv	a0,s2
   118ac:	39d1                	jal	11580 <_sbrk_r>
   118ae:	57fd                	li	a5,-1
   118b0:	02f50963          	beq	a0,a5,118e2 <_malloc_trim_r+0xa0>
   118b4:	f6418793          	addi	a5,gp,-156 # 1c9dc <__malloc_current_mallinfo>
   118b8:	4398                	lw	a4,0(a5)
   118ba:	0089a683          	lw	a3,8(s3)
   118be:	8c81                	sub	s1,s1,s0
   118c0:	0014e493          	ori	s1,s1,1
   118c4:	8f01                	sub	a4,a4,s0
   118c6:	854a                	mv	a0,s2
   118c8:	c2c4                	sw	s1,4(a3)
   118ca:	c398                	sw	a4,0(a5)
   118cc:	eacff0ef          	jal	10f78 <__malloc_unlock>
   118d0:	40f2                	lw	ra,28(sp)
   118d2:	4462                	lw	s0,24(sp)
   118d4:	44d2                	lw	s1,20(sp)
   118d6:	4942                	lw	s2,16(sp)
   118d8:	49b2                	lw	s3,12(sp)
   118da:	4a22                	lw	s4,8(sp)
   118dc:	4505                	li	a0,1
   118de:	6105                	addi	sp,sp,32
   118e0:	8082                	ret
   118e2:	4581                	li	a1,0
   118e4:	854a                	mv	a0,s2
   118e6:	3969                	jal	11580 <_sbrk_r>
   118e8:	0089a703          	lw	a4,8(s3)
   118ec:	46bd                	li	a3,15
   118ee:	40e507b3          	sub	a5,a0,a4
   118f2:	f8f6dee3          	bge	a3,a5,1188e <_malloc_trim_r+0x4c>
   118f6:	f1c1a683          	lw	a3,-228(gp) # 1c994 <__malloc_sbrk_base>
   118fa:	0017e793          	ori	a5,a5,1
   118fe:	c35c                	sw	a5,4(a4)
   11900:	8d15                	sub	a0,a0,a3
   11902:	f6a1a223          	sw	a0,-156(gp) # 1c9dc <__malloc_current_mallinfo>
   11906:	b761                	j	1188e <_malloc_trim_r+0x4c>

00011908 <_free_r>:
   11908:	10058c63          	beqz	a1,11a20 <_free_r+0x118>
   1190c:	1141                	addi	sp,sp,-16
   1190e:	c422                	sw	s0,8(sp)
   11910:	c226                	sw	s1,4(sp)
   11912:	842e                	mv	s0,a1
   11914:	84aa                	mv	s1,a0
   11916:	c606                	sw	ra,12(sp)
   11918:	e5eff0ef          	jal	10f76 <__malloc_lock>
   1191c:	ffc42503          	lw	a0,-4(s0)
   11920:	ff840713          	addi	a4,s0,-8
   11924:	65f1                	lui	a1,0x1c
   11926:	ffe57793          	andi	a5,a0,-2
   1192a:	00f70633          	add	a2,a4,a5
   1192e:	27858593          	addi	a1,a1,632 # 1c278 <__malloc_av_>
   11932:	4254                	lw	a3,4(a2)
   11934:	0085a803          	lw	a6,8(a1)
   11938:	9af1                	andi	a3,a3,-4
   1193a:	12c80563          	beq	a6,a2,11a64 <_free_r+0x15c>
   1193e:	c254                	sw	a3,4(a2)
   11940:	8905                	andi	a0,a0,1
   11942:	00d60833          	add	a6,a2,a3
   11946:	e93d                	bnez	a0,119bc <_free_r+0xb4>
   11948:	ff842303          	lw	t1,-8(s0)
   1194c:	00482803          	lw	a6,4(a6)
   11950:	6571                	lui	a0,0x1c
   11952:	40670733          	sub	a4,a4,t1
   11956:	00872883          	lw	a7,8(a4) # 1008 <exit-0xf08c>
   1195a:	28050513          	addi	a0,a0,640 # 1c280 <__malloc_av_+0x8>
   1195e:	979a                	add	a5,a5,t1
   11960:	00187813          	andi	a6,a6,1
   11964:	0ea88363          	beq	a7,a0,11a4a <_free_r+0x142>
   11968:	00c72303          	lw	t1,12(a4)
   1196c:	0068a623          	sw	t1,12(a7)
   11970:	01132423          	sw	a7,8(t1)
   11974:	12080063          	beqz	a6,11a94 <_free_r+0x18c>
   11978:	0017e693          	ori	a3,a5,1
   1197c:	c354                	sw	a3,4(a4)
   1197e:	c21c                	sw	a5,0(a2)
   11980:	1ff00693          	li	a3,511
   11984:	04f6e963          	bltu	a3,a5,119d6 <_free_r+0xce>
   11988:	ff87f693          	andi	a3,a5,-8
   1198c:	06a1                	addi	a3,a3,8
   1198e:	41c8                	lw	a0,4(a1)
   11990:	96ae                	add	a3,a3,a1
   11992:	4290                	lw	a2,0(a3)
   11994:	0057d813          	srli	a6,a5,0x5
   11998:	4785                	li	a5,1
   1199a:	010797b3          	sll	a5,a5,a6
   1199e:	8fc9                	or	a5,a5,a0
   119a0:	ff868513          	addi	a0,a3,-8
   119a4:	c748                	sw	a0,12(a4)
   119a6:	c710                	sw	a2,8(a4)
   119a8:	c1dc                	sw	a5,4(a1)
   119aa:	c298                	sw	a4,0(a3)
   119ac:	c658                	sw	a4,12(a2)
   119ae:	4422                	lw	s0,8(sp)
   119b0:	40b2                	lw	ra,12(sp)
   119b2:	8526                	mv	a0,s1
   119b4:	4492                	lw	s1,4(sp)
   119b6:	0141                	addi	sp,sp,16
   119b8:	dc0ff06f          	j	10f78 <__malloc_unlock>
   119bc:	00482503          	lw	a0,4(a6)
   119c0:	8905                	andi	a0,a0,1
   119c2:	c125                	beqz	a0,11a22 <_free_r+0x11a>
   119c4:	0017e693          	ori	a3,a5,1
   119c8:	fed42e23          	sw	a3,-4(s0)
   119cc:	c21c                	sw	a5,0(a2)
   119ce:	1ff00693          	li	a3,511
   119d2:	faf6fbe3          	bgeu	a3,a5,11988 <_free_r+0x80>
   119d6:	0097d693          	srli	a3,a5,0x9
   119da:	4611                	li	a2,4
   119dc:	0ad66e63          	bltu	a2,a3,11a98 <_free_r+0x190>
   119e0:	0067d693          	srli	a3,a5,0x6
   119e4:	03968513          	addi	a0,a3,57
   119e8:	03868613          	addi	a2,a3,56
   119ec:	050e                	slli	a0,a0,0x3
   119ee:	952e                	add	a0,a0,a1
   119f0:	4114                	lw	a3,0(a0)
   119f2:	1561                	addi	a0,a0,-8
   119f4:	00d51663          	bne	a0,a3,11a00 <_free_r+0xf8>
   119f8:	a8f9                	j	11ad6 <_free_r+0x1ce>
   119fa:	4694                	lw	a3,8(a3)
   119fc:	00d50663          	beq	a0,a3,11a08 <_free_r+0x100>
   11a00:	42d0                	lw	a2,4(a3)
   11a02:	9a71                	andi	a2,a2,-4
   11a04:	fec7ebe3          	bltu	a5,a2,119fa <_free_r+0xf2>
   11a08:	46c8                	lw	a0,12(a3)
   11a0a:	c748                	sw	a0,12(a4)
   11a0c:	c714                	sw	a3,8(a4)
   11a0e:	4422                	lw	s0,8(sp)
   11a10:	c518                	sw	a4,8(a0)
   11a12:	40b2                	lw	ra,12(sp)
   11a14:	8526                	mv	a0,s1
   11a16:	4492                	lw	s1,4(sp)
   11a18:	c6d8                	sw	a4,12(a3)
   11a1a:	0141                	addi	sp,sp,16
   11a1c:	d5cff06f          	j	10f78 <__malloc_unlock>
   11a20:	8082                	ret
   11a22:	6571                	lui	a0,0x1c
   11a24:	97b6                	add	a5,a5,a3
   11a26:	28050513          	addi	a0,a0,640 # 1c280 <__malloc_av_+0x8>
   11a2a:	4614                	lw	a3,8(a2)
   11a2c:	08a68b63          	beq	a3,a0,11ac2 <_free_r+0x1ba>
   11a30:	00c62803          	lw	a6,12(a2) # 200c <exit-0xe088>
   11a34:	0017e513          	ori	a0,a5,1
   11a38:	00f70633          	add	a2,a4,a5
   11a3c:	0106a623          	sw	a6,12(a3)
   11a40:	00d82423          	sw	a3,8(a6)
   11a44:	c348                	sw	a0,4(a4)
   11a46:	c21c                	sw	a5,0(a2)
   11a48:	bf25                	j	11980 <_free_r+0x78>
   11a4a:	0c081d63          	bnez	a6,11b24 <_free_r+0x21c>
   11a4e:	460c                	lw	a1,8(a2)
   11a50:	4650                	lw	a2,12(a2)
   11a52:	96be                	add	a3,a3,a5
   11a54:	0016e793          	ori	a5,a3,1
   11a58:	c5d0                	sw	a2,12(a1)
   11a5a:	c60c                	sw	a1,8(a2)
   11a5c:	c35c                	sw	a5,4(a4)
   11a5e:	9736                	add	a4,a4,a3
   11a60:	c314                	sw	a3,0(a4)
   11a62:	b7b1                	j	119ae <_free_r+0xa6>
   11a64:	8905                	andi	a0,a0,1
   11a66:	96be                	add	a3,a3,a5
   11a68:	e909                	bnez	a0,11a7a <_free_r+0x172>
   11a6a:	ff842503          	lw	a0,-8(s0)
   11a6e:	8f09                	sub	a4,a4,a0
   11a70:	475c                	lw	a5,12(a4)
   11a72:	4710                	lw	a2,8(a4)
   11a74:	96aa                	add	a3,a3,a0
   11a76:	c65c                	sw	a5,12(a2)
   11a78:	c790                	sw	a2,8(a5)
   11a7a:	0016e613          	ori	a2,a3,1
   11a7e:	f201a783          	lw	a5,-224(gp) # 1c998 <__malloc_trim_threshold>
   11a82:	c350                	sw	a2,4(a4)
   11a84:	c598                	sw	a4,8(a1)
   11a86:	f2f6e4e3          	bltu	a3,a5,119ae <_free_r+0xa6>
   11a8a:	f301a583          	lw	a1,-208(gp) # 1c9a8 <__malloc_top_pad>
   11a8e:	8526                	mv	a0,s1
   11a90:	3b4d                	jal	11842 <_malloc_trim_r>
   11a92:	bf31                	j	119ae <_free_r+0xa6>
   11a94:	97b6                	add	a5,a5,a3
   11a96:	bf51                	j	11a2a <_free_r+0x122>
   11a98:	4651                	li	a2,20
   11a9a:	00d67e63          	bgeu	a2,a3,11ab6 <_free_r+0x1ae>
   11a9e:	05400613          	li	a2,84
   11aa2:	04d66463          	bltu	a2,a3,11aea <_free_r+0x1e2>
   11aa6:	00c7d693          	srli	a3,a5,0xc
   11aaa:	06f68513          	addi	a0,a3,111
   11aae:	06e68613          	addi	a2,a3,110
   11ab2:	050e                	slli	a0,a0,0x3
   11ab4:	bf2d                	j	119ee <_free_r+0xe6>
   11ab6:	05c68513          	addi	a0,a3,92
   11aba:	05b68613          	addi	a2,a3,91
   11abe:	050e                	slli	a0,a0,0x3
   11ac0:	b73d                	j	119ee <_free_r+0xe6>
   11ac2:	c9d8                	sw	a4,20(a1)
   11ac4:	c998                	sw	a4,16(a1)
   11ac6:	0017e693          	ori	a3,a5,1
   11aca:	c748                	sw	a0,12(a4)
   11acc:	c708                	sw	a0,8(a4)
   11ace:	c354                	sw	a3,4(a4)
   11ad0:	973e                	add	a4,a4,a5
   11ad2:	c31c                	sw	a5,0(a4)
   11ad4:	bde9                	j	119ae <_free_r+0xa6>
   11ad6:	0045a803          	lw	a6,4(a1)
   11ada:	8609                	srai	a2,a2,0x2
   11adc:	4785                	li	a5,1
   11ade:	00c797b3          	sll	a5,a5,a2
   11ae2:	0107e7b3          	or	a5,a5,a6
   11ae6:	c1dc                	sw	a5,4(a1)
   11ae8:	b70d                	j	11a0a <_free_r+0x102>
   11aea:	15400613          	li	a2,340
   11aee:	00d66a63          	bltu	a2,a3,11b02 <_free_r+0x1fa>
   11af2:	00f7d693          	srli	a3,a5,0xf
   11af6:	07868513          	addi	a0,a3,120
   11afa:	07768613          	addi	a2,a3,119
   11afe:	050e                	slli	a0,a0,0x3
   11b00:	b5fd                	j	119ee <_free_r+0xe6>
   11b02:	55400613          	li	a2,1364
   11b06:	00d66a63          	bltu	a2,a3,11b1a <_free_r+0x212>
   11b0a:	0127d693          	srli	a3,a5,0x12
   11b0e:	07d68513          	addi	a0,a3,125
   11b12:	07c68613          	addi	a2,a3,124
   11b16:	050e                	slli	a0,a0,0x3
   11b18:	bdd9                	j	119ee <_free_r+0xe6>
   11b1a:	3f800513          	li	a0,1016
   11b1e:	07e00613          	li	a2,126
   11b22:	b5f1                	j	119ee <_free_r+0xe6>
   11b24:	0017e693          	ori	a3,a5,1
   11b28:	c354                	sw	a3,4(a4)
   11b2a:	c21c                	sw	a5,0(a2)
   11b2c:	b549                	j	119ae <_free_r+0xa6>

00011b2e <_vfprintf_r>:
   11b2e:	7145                	addi	sp,sp,-464
   11b30:	1c112623          	sw	ra,460(sp)
   11b34:	1c812423          	sw	s0,456(sp)
   11b38:	1c912223          	sw	s1,452(sp)
   11b3c:	1b612823          	sw	s6,432(sp)
   11b40:	84ae                	mv	s1,a1
   11b42:	8b32                	mv	s6,a2
   11b44:	ca36                	sw	a3,20(sp)
   11b46:	842a                	mv	s0,a0
   11b48:	c42a                	sw	a0,8(sp)
   11b4a:	694030ef          	jal	151de <_localeconv_r>
   11b4e:	411c                	lw	a5,0(a0)
   11b50:	853e                	mv	a0,a5
   11b52:	d83e                	sw	a5,48(sp)
   11b54:	3e45                	jal	11704 <strlen>
   11b56:	d62a                	sw	a0,44(sp)
   11b58:	c982                	sw	zero,208(sp)
   11b5a:	cb82                	sw	zero,212(sp)
   11b5c:	cd82                	sw	zero,216(sp)
   11b5e:	cf82                	sw	zero,220(sp)
   11b60:	c409                	beqz	s0,11b6a <_vfprintf_r+0x3c>
   11b62:	5858                	lw	a4,52(s0)
   11b64:	e319                	bnez	a4,11b6a <_vfprintf_r+0x3c>
   11b66:	1880106f          	j	12cee <_vfprintf_r+0x11c0>
   11b6a:	00c49703          	lh	a4,12(s1)
   11b6e:	01271693          	slli	a3,a4,0x12
   11b72:	0006cd63          	bltz	a3,11b8c <_vfprintf_r+0x5e>
   11b76:	50f4                	lw	a3,100(s1)
   11b78:	6589                	lui	a1,0x2
   11b7a:	7679                	lui	a2,0xffffe
   11b7c:	8f4d                	or	a4,a4,a1
   11b7e:	167d                	addi	a2,a2,-1 # ffffdfff <__BSS_END__+0xfffe1333>
   11b80:	0742                	slli	a4,a4,0x10
   11b82:	8741                	srai	a4,a4,0x10
   11b84:	8ef1                	and	a3,a3,a2
   11b86:	00e49623          	sh	a4,12(s1)
   11b8a:	d0f4                	sw	a3,100(s1)
   11b8c:	00877693          	andi	a3,a4,8
   11b90:	22068963          	beqz	a3,11dc2 <_vfprintf_r+0x294>
   11b94:	4894                	lw	a3,16(s1)
   11b96:	22068663          	beqz	a3,11dc2 <_vfprintf_r+0x294>
   11b9a:	8b69                	andi	a4,a4,26
   11b9c:	46a9                	li	a3,10
   11b9e:	22d70f63          	beq	a4,a3,11ddc <_vfprintf_r+0x2ae>
   11ba2:	1b312e23          	sw	s3,444(sp)
   11ba6:	1b412c23          	sw	s4,440(sp)
   11baa:	1ba12023          	sw	s10,416(sp)
   11bae:	676d                	lui	a4,0x1b
   11bb0:	1d212023          	sw	s2,448(sp)
   11bb4:	1b512a23          	sw	s5,436(sp)
   11bb8:	1b712623          	sw	s7,428(sp)
   11bbc:	1b812423          	sw	s8,424(sp)
   11bc0:	1b912223          	sw	s9,420(sp)
   11bc4:	19b12e23          	sw	s11,412(sp)
   11bc8:	8d5a                	mv	s10,s6
   11bca:	b7470793          	addi	a5,a4,-1164 # 1ab74 <__clzsi2+0x1da>
   11bce:	000d4703          	lbu	a4,0(s10)
   11bd2:	0ec10993          	addi	s3,sp,236
   11bd6:	6a6d                	lui	s4,0x1b
   11bd8:	c3ce                	sw	s3,196(sp)
   11bda:	c782                	sw	zero,204(sp)
   11bdc:	c582                	sw	zero,200(sp)
   11bde:	d002                	sw	zero,32(sp)
   11be0:	da02                	sw	zero,52(sp)
   11be2:	c082                	sw	zero,64(sp)
   11be4:	de02                	sw	zero,60(sp)
   11be6:	c482                	sw	zero,72(sp)
   11be8:	c282                	sw	zero,68(sp)
   11bea:	c602                	sw	zero,12(sp)
   11bec:	cc3e                	sw	a5,24(sp)
   11bee:	844e                	mv	s0,s3
   11bf0:	d78a0a13          	addi	s4,s4,-648 # 1ad78 <zeroes.0>
   11bf4:	16070f63          	beqz	a4,11d72 <_vfprintf_r+0x244>
   11bf8:	896a                	mv	s2,s10
   11bfa:	02500693          	li	a3,37
   11bfe:	2ed70963          	beq	a4,a3,11ef0 <_vfprintf_r+0x3c2>
   11c02:	00194703          	lbu	a4,1(s2)
   11c06:	0905                	addi	s2,s2,1
   11c08:	fb7d                	bnez	a4,11bfe <_vfprintf_r+0xd0>
   11c0a:	41a90ab3          	sub	s5,s2,s10
   11c0e:	17a90263          	beq	s2,s10,11d72 <_vfprintf_r+0x244>
   11c12:	46be                	lw	a3,204(sp)
   11c14:	472e                	lw	a4,200(sp)
   11c16:	01a42023          	sw	s10,0(s0)
   11c1a:	96d6                	add	a3,a3,s5
   11c1c:	0705                	addi	a4,a4,1
   11c1e:	01542223          	sw	s5,4(s0)
   11c22:	c7b6                	sw	a3,204(sp)
   11c24:	c5ba                	sw	a4,200(sp)
   11c26:	469d                	li	a3,7
   11c28:	0421                	addi	s0,s0,8
   11c2a:	2ce6ca63          	blt	a3,a4,11efe <_vfprintf_r+0x3d0>
   11c2e:	47b2                	lw	a5,12(sp)
   11c30:	00094703          	lbu	a4,0(s2)
   11c34:	97d6                	add	a5,a5,s5
   11c36:	c63e                	sw	a5,12(sp)
   11c38:	12070d63          	beqz	a4,11d72 <_vfprintf_r+0x244>
   11c3c:	00194883          	lbu	a7,1(s2)
   11c40:	0a0103a3          	sb	zero,167(sp)
   11c44:	0905                	addi	s2,s2,1
   11c46:	5afd                	li	s5,-1
   11c48:	4b81                	li	s7,0
   11c4a:	4c81                	li	s9,0
   11c4c:	05a00b13          	li	s6,90
   11c50:	0905                	addi	s2,s2,1
   11c52:	fe088793          	addi	a5,a7,-32
   11c56:	02fb6b63          	bltu	s6,a5,11c8c <_vfprintf_r+0x15e>
   11c5a:	4762                	lw	a4,24(sp)
   11c5c:	078a                	slli	a5,a5,0x2
   11c5e:	97ba                	add	a5,a5,a4
   11c60:	439c                	lw	a5,0(a5)
   11c62:	8782                	jr	a5
   11c64:	4b81                	li	s7,0
   11c66:	fd088793          	addi	a5,a7,-48
   11c6a:	46a5                	li	a3,9
   11c6c:	00094883          	lbu	a7,0(s2)
   11c70:	002b9713          	slli	a4,s7,0x2
   11c74:	9bba                	add	s7,s7,a4
   11c76:	0b86                	slli	s7,s7,0x1
   11c78:	9bbe                	add	s7,s7,a5
   11c7a:	fd088793          	addi	a5,a7,-48
   11c7e:	0905                	addi	s2,s2,1
   11c80:	fef6f6e3          	bgeu	a3,a5,11c6c <_vfprintf_r+0x13e>
   11c84:	fe088793          	addi	a5,a7,-32
   11c88:	fcfb79e3          	bgeu	s6,a5,11c5a <_vfprintf_r+0x12c>
   11c8c:	0e088363          	beqz	a7,11d72 <_vfprintf_r+0x244>
   11c90:	13110623          	sb	a7,300(sp)
   11c94:	0a0103a3          	sb	zero,167(sp)
   11c98:	4d85                	li	s11,1
   11c9a:	4b05                	li	s6,1
   11c9c:	12c10d13          	addi	s10,sp,300
   11ca0:	c802                	sw	zero,16(sp)
   11ca2:	4a81                	li	s5,0
   11ca4:	d402                	sw	zero,40(sp)
   11ca6:	d202                	sw	zero,36(sp)
   11ca8:	ce02                	sw	zero,28(sp)
   11caa:	002cf293          	andi	t0,s9,2
   11cae:	00028363          	beqz	t0,11cb4 <_vfprintf_r+0x186>
   11cb2:	0d89                	addi	s11,s11,2
   11cb4:	084cff93          	andi	t6,s9,132
   11cb8:	463e                	lw	a2,204(sp)
   11cba:	000f9663          	bnez	t6,11cc6 <_vfprintf_r+0x198>
   11cbe:	41bb8733          	sub	a4,s7,s11
   11cc2:	0ce046e3          	bgtz	a4,1258e <_vfprintf_r+0xa60>
   11cc6:	0a714703          	lbu	a4,167(sp)
   11cca:	cf19                	beqz	a4,11ce8 <_vfprintf_r+0x1ba>
   11ccc:	472e                	lw	a4,200(sp)
   11cce:	0a710593          	addi	a1,sp,167
   11cd2:	c00c                	sw	a1,0(s0)
   11cd4:	0605                	addi	a2,a2,1
   11cd6:	4585                	li	a1,1
   11cd8:	0705                	addi	a4,a4,1
   11cda:	c04c                	sw	a1,4(s0)
   11cdc:	c7b2                	sw	a2,204(sp)
   11cde:	c5ba                	sw	a4,200(sp)
   11ce0:	459d                	li	a1,7
   11ce2:	0421                	addi	s0,s0,8
   11ce4:	2ee5c663          	blt	a1,a4,11fd0 <_vfprintf_r+0x4a2>
   11ce8:	00028f63          	beqz	t0,11d06 <_vfprintf_r+0x1d8>
   11cec:	472e                	lw	a4,200(sp)
   11cee:	4589                	li	a1,2
   11cf0:	0609                	addi	a2,a2,2
   11cf2:	0705                	addi	a4,a4,1
   11cf4:	113c                	addi	a5,sp,168
   11cf6:	c04c                	sw	a1,4(s0)
   11cf8:	c01c                	sw	a5,0(s0)
   11cfa:	c7b2                	sw	a2,204(sp)
   11cfc:	c5ba                	sw	a4,200(sp)
   11cfe:	459d                	li	a1,7
   11d00:	0421                	addi	s0,s0,8
   11d02:	12e5c9e3          	blt	a1,a4,12634 <_vfprintf_r+0xb06>
   11d06:	08000713          	li	a4,128
   11d0a:	72ef8d63          	beq	t6,a4,12444 <_vfprintf_r+0x916>
   11d0e:	416a8ab3          	sub	s5,s5,s6
   11d12:	7d504963          	bgtz	s5,124e4 <_vfprintf_r+0x9b6>
   11d16:	100cf713          	andi	a4,s9,256
   11d1a:	60071d63          	bnez	a4,12334 <_vfprintf_r+0x806>
   11d1e:	47ae                	lw	a5,200(sp)
   11d20:	965a                	add	a2,a2,s6
   11d22:	01a42023          	sw	s10,0(s0)
   11d26:	0785                	addi	a5,a5,1
   11d28:	01642223          	sw	s6,4(s0)
   11d2c:	c7b2                	sw	a2,204(sp)
   11d2e:	c5be                	sw	a5,200(sp)
   11d30:	471d                	li	a4,7
   11d32:	36f74463          	blt	a4,a5,1209a <_vfprintf_r+0x56c>
   11d36:	0421                	addi	s0,s0,8
   11d38:	004cfe13          	andi	t3,s9,4
   11d3c:	000e0663          	beqz	t3,11d48 <_vfprintf_r+0x21a>
   11d40:	41bb8ab3          	sub	s5,s7,s11
   11d44:	115046e3          	bgtz	s5,12650 <_vfprintf_r+0xb22>
   11d48:	835e                	mv	t1,s7
   11d4a:	01bbd363          	bge	s7,s11,11d50 <_vfprintf_r+0x222>
   11d4e:	836e                	mv	t1,s11
   11d50:	47b2                	lw	a5,12(sp)
   11d52:	979a                	add	a5,a5,t1
   11d54:	c63e                	sw	a5,12(sp)
   11d56:	00061be3          	bnez	a2,1256c <_vfprintf_r+0xa3e>
   11d5a:	47c2                	lw	a5,16(sp)
   11d5c:	c582                	sw	zero,200(sp)
   11d5e:	c781                	beqz	a5,11d66 <_vfprintf_r+0x238>
   11d60:	45c2                	lw	a1,16(sp)
   11d62:	4522                	lw	a0,8(sp)
   11d64:	3655                	jal	11908 <_free_r>
   11d66:	844e                	mv	s0,s3
   11d68:	8d4a                	mv	s10,s2
   11d6a:	000d4703          	lbu	a4,0(s10)
   11d6e:	e80715e3          	bnez	a4,11bf8 <_vfprintf_r+0xca>
   11d72:	47be                	lw	a5,204(sp)
   11d74:	c399                	beqz	a5,11d7a <_vfprintf_r+0x24c>
   11d76:	3200106f          	j	13096 <_vfprintf_r+0x1568>
   11d7a:	00c4d783          	lhu	a5,12(s1)
   11d7e:	1c012903          	lw	s2,448(sp)
   11d82:	1bc12983          	lw	s3,444(sp)
   11d86:	0407f793          	andi	a5,a5,64
   11d8a:	1b812a03          	lw	s4,440(sp)
   11d8e:	1b412a83          	lw	s5,436(sp)
   11d92:	1ac12b83          	lw	s7,428(sp)
   11d96:	1a812c03          	lw	s8,424(sp)
   11d9a:	1a412c83          	lw	s9,420(sp)
   11d9e:	1a012d03          	lw	s10,416(sp)
   11da2:	19c12d83          	lw	s11,412(sp)
   11da6:	c399                	beqz	a5,11dac <_vfprintf_r+0x27e>
   11da8:	6ae0106f          	j	13456 <_vfprintf_r+0x1928>
   11dac:	1cc12083          	lw	ra,460(sp)
   11db0:	1c812403          	lw	s0,456(sp)
   11db4:	4532                	lw	a0,12(sp)
   11db6:	1c412483          	lw	s1,452(sp)
   11dba:	1b012b03          	lw	s6,432(sp)
   11dbe:	6179                	addi	sp,sp,464
   11dc0:	8082                	ret
   11dc2:	4522                	lw	a0,8(sp)
   11dc4:	85a6                	mv	a1,s1
   11dc6:	092030ef          	jal	14e58 <__swsetup_r>
   11dca:	c119                	beqz	a0,11dd0 <_vfprintf_r+0x2a2>
   11dcc:	68a0106f          	j	13456 <_vfprintf_r+0x1928>
   11dd0:	00c49703          	lh	a4,12(s1)
   11dd4:	46a9                	li	a3,10
   11dd6:	8b69                	andi	a4,a4,26
   11dd8:	dcd715e3          	bne	a4,a3,11ba2 <_vfprintf_r+0x74>
   11ddc:	00e49703          	lh	a4,14(s1)
   11de0:	dc0741e3          	bltz	a4,11ba2 <_vfprintf_r+0x74>
   11de4:	46d2                	lw	a3,20(sp)
   11de6:	4522                	lw	a0,8(sp)
   11de8:	865a                	mv	a2,s6
   11dea:	85a6                	mv	a1,s1
   11dec:	0ed010ef          	jal	136d8 <__sbprintf>
   11df0:	c62a                	sw	a0,12(sp)
   11df2:	bf6d                	j	11dac <_vfprintf_r+0x27e>
   11df4:	4c22                	lw	s8,8(sp)
   11df6:	8562                	mv	a0,s8
   11df8:	3e6030ef          	jal	151de <_localeconv_r>
   11dfc:	415c                	lw	a5,4(a0)
   11dfe:	853e                	mv	a0,a5
   11e00:	c2be                	sw	a5,68(sp)
   11e02:	903ff0ef          	jal	11704 <strlen>
   11e06:	87aa                	mv	a5,a0
   11e08:	8562                	mv	a0,s8
   11e0a:	c4be                	sw	a5,72(sp)
   11e0c:	8c3e                	mv	s8,a5
   11e0e:	3d0030ef          	jal	151de <_localeconv_r>
   11e12:	451c                	lw	a5,8(a0)
   11e14:	de3e                	sw	a5,60(sp)
   11e16:	2a0c10e3          	bnez	s8,128b6 <_vfprintf_r+0xd88>
   11e1a:	00094883          	lbu	a7,0(s2)
   11e1e:	bd0d                	j	11c50 <_vfprintf_r+0x122>
   11e20:	00094883          	lbu	a7,0(s2)
   11e24:	020cec93          	ori	s9,s9,32
   11e28:	b525                	j	11c50 <_vfprintf_r+0x122>
   11e2a:	010cec93          	ori	s9,s9,16
   11e2e:	020cf793          	andi	a5,s9,32
   11e32:	2a078063          	beqz	a5,120d2 <_vfprintf_r+0x5a4>
   11e36:	47d2                	lw	a5,20(sp)
   11e38:	00778c13          	addi	s8,a5,7
   11e3c:	ff8c7c13          	andi	s8,s8,-8
   11e40:	004c2783          	lw	a5,4(s8)
   11e44:	000c2b03          	lw	s6,0(s8)
   11e48:	008c0713          	addi	a4,s8,8
   11e4c:	ca3a                	sw	a4,20(sp)
   11e4e:	8dbe                	mv	s11,a5
   11e50:	2a07c663          	bltz	a5,120fc <_vfprintf_r+0x5ce>
   11e54:	8ee6                	mv	t4,s9
   11e56:	380ac563          	bltz	s5,121e0 <_vfprintf_r+0x6b2>
   11e5a:	01bb67b3          	or	a5,s6,s11
   11e5e:	f7fcfe93          	andi	t4,s9,-129
   11e62:	36079f63          	bnez	a5,121e0 <_vfprintf_r+0x6b2>
   11e66:	380a9263          	bnez	s5,121ea <_vfprintf_r+0x6bc>
   11e6a:	4b01                	li	s6,0
   11e6c:	8cf6                	mv	s9,t4
   11e6e:	19010d13          	addi	s10,sp,400
   11e72:	0a714703          	lbu	a4,167(sp)
   11e76:	8dd6                	mv	s11,s5
   11e78:	016ad363          	bge	s5,s6,11e7e <_vfprintf_r+0x350>
   11e7c:	8dda                	mv	s11,s6
   11e7e:	c802                	sw	zero,16(sp)
   11e80:	d402                	sw	zero,40(sp)
   11e82:	d202                	sw	zero,36(sp)
   11e84:	ce02                	sw	zero,28(sp)
   11e86:	e20702e3          	beqz	a4,11caa <_vfprintf_r+0x17c>
   11e8a:	0d85                	addi	s11,s11,1
   11e8c:	bd39                	j	11caa <_vfprintf_r+0x17c>
   11e8e:	010cec93          	ori	s9,s9,16
   11e92:	020cf793          	andi	a5,s9,32
   11e96:	20078c63          	beqz	a5,120ae <_vfprintf_r+0x580>
   11e9a:	47d2                	lw	a5,20(sp)
   11e9c:	00778c13          	addi	s8,a5,7
   11ea0:	ff8c7c13          	andi	s8,s8,-8
   11ea4:	000c2b03          	lw	s6,0(s8)
   11ea8:	004c2d83          	lw	s11,4(s8)
   11eac:	008c0793          	addi	a5,s8,8
   11eb0:	ca3e                	sw	a5,20(sp)
   11eb2:	bffcfe93          	andi	t4,s9,-1025
   11eb6:	4781                	li	a5,0
   11eb8:	4701                	li	a4,0
   11eba:	0ae103a3          	sb	a4,167(sp)
   11ebe:	240acf63          	bltz	s5,1211c <_vfprintf_r+0x5ee>
   11ec2:	01bb6733          	or	a4,s6,s11
   11ec6:	f7fefc93          	andi	s9,t4,-129
   11eca:	6c071063          	bnez	a4,1258a <_vfprintf_r+0xa5c>
   11ece:	520a9763          	bnez	s5,123fc <_vfprintf_r+0x8ce>
   11ed2:	180790e3          	bnez	a5,12852 <_vfprintf_r+0xd24>
   11ed6:	001efb13          	andi	s6,t4,1
   11eda:	19010d13          	addi	s10,sp,400
   11ede:	f80b0ae3          	beqz	s6,11e72 <_vfprintf_r+0x344>
   11ee2:	03000793          	li	a5,48
   11ee6:	18f107a3          	sb	a5,399(sp)
   11eea:	18f10d13          	addi	s10,sp,399
   11eee:	b751                	j	11e72 <_vfprintf_r+0x344>
   11ef0:	41a90ab3          	sub	s5,s2,s10
   11ef4:	d1a91fe3          	bne	s2,s10,11c12 <_vfprintf_r+0xe4>
   11ef8:	00094703          	lbu	a4,0(s2)
   11efc:	bb35                	j	11c38 <_vfprintf_r+0x10a>
   11efe:	4522                	lw	a0,8(sp)
   11f00:	01d0                	addi	a2,sp,196
   11f02:	85a6                	mv	a1,s1
   11f04:	123010ef          	jal	13826 <__sprint_r>
   11f08:	e60519e3          	bnez	a0,11d7a <_vfprintf_r+0x24c>
   11f0c:	844e                	mv	s0,s3
   11f0e:	b305                	j	11c2e <_vfprintf_r+0x100>
   11f10:	008cf713          	andi	a4,s9,8
   11f14:	180717e3          	bnez	a4,128a2 <_vfprintf_r+0xd74>
   11f18:	47d2                	lw	a5,20(sp)
   11f1a:	0908                	addi	a0,sp,144
   11f1c:	c846                	sw	a7,16(sp)
   11f1e:	00778c13          	addi	s8,a5,7
   11f22:	ff8c7c13          	andi	s8,s8,-8
   11f26:	000c2583          	lw	a1,0(s8)
   11f2a:	004c2603          	lw	a2,4(s8)
   11f2e:	008c0793          	addi	a5,s8,8
   11f32:	ca3e                	sw	a5,20(sp)
   11f34:	0db080ef          	jal	1a80e <__extenddftf2>
   11f38:	45ca                	lw	a1,144(sp)
   11f3a:	465a                	lw	a2,148(sp)
   11f3c:	46ea                	lw	a3,152(sp)
   11f3e:	477a                	lw	a4,156(sp)
   11f40:	48c2                	lw	a7,16(sp)
   11f42:	0988                	addi	a0,sp,208
   11f44:	c846                	sw	a7,16(sp)
   11f46:	cfba                	sw	a4,220(sp)
   11f48:	c9ae                	sw	a1,208(sp)
   11f4a:	cbb2                	sw	a2,212(sp)
   11f4c:	cdb6                	sw	a3,216(sp)
   11f4e:	10d030ef          	jal	1585a <_ldcheck>
   11f52:	d72a                	sw	a0,172(sp)
   11f54:	4709                	li	a4,2
   11f56:	48c2                	lw	a7,16(sp)
   11f58:	5ce50be3          	beq	a0,a4,12d2e <_vfprintf_r+0x1200>
   11f5c:	4705                	li	a4,1
   11f5e:	6ae505e3          	beq	a0,a4,12e08 <_vfprintf_r+0x12da>
   11f62:	06100713          	li	a4,97
   11f66:	2ae88ce3          	beq	a7,a4,12a1e <_vfprintf_r+0xef0>
   11f6a:	04100713          	li	a4,65
   11f6e:	05800793          	li	a5,88
   11f72:	2ae888e3          	beq	a7,a4,12a22 <_vfprintf_r+0xef4>
   11f76:	577d                	li	a4,-1
   11f78:	00ea9463          	bne	s5,a4,11f80 <_vfprintf_r+0x452>
   11f7c:	62a0106f          	j	135a6 <_vfprintf_r+0x1a78>
   11f80:	fdf8f713          	andi	a4,a7,-33
   11f84:	04700693          	li	a3,71
   11f88:	c802                	sw	zero,16(sp)
   11f8a:	00d71563          	bne	a4,a3,11f94 <_vfprintf_r+0x466>
   11f8e:	000a9363          	bnez	s5,11f94 <_vfprintf_r+0x466>
   11f92:	4a85                	li	s5,1
   11f94:	4c7e                	lw	s8,220(sp)
   11f96:	100ce793          	ori	a5,s9,256
   11f9a:	c6be                	sw	a5,76(sp)
   11f9c:	dc02                	sw	zero,56(sp)
   11f9e:	4fce                	lw	t6,208(sp)
   11fa0:	4f5e                	lw	t5,212(sp)
   11fa2:	4eee                	lw	t4,216(sp)
   11fa4:	000c5963          	bgez	s8,11fb6 <_vfprintf_r+0x488>
   11fa8:	80000737          	lui	a4,0x80000
   11fac:	02d00793          	li	a5,45
   11fb0:	01874c33          	xor	s8,a4,s8
   11fb4:	dc3e                	sw	a5,56(sp)
   11fb6:	fbf88713          	addi	a4,a7,-65
   11fba:	02500693          	li	a3,37
   11fbe:	28e6eee3          	bltu	a3,a4,12a5a <_vfprintf_r+0xf2c>
   11fc2:	66ed                	lui	a3,0x1b
   11fc4:	070a                	slli	a4,a4,0x2
   11fc6:	ce068693          	addi	a3,a3,-800 # 1ace0 <__clzsi2+0x346>
   11fca:	9736                	add	a4,a4,a3
   11fcc:	4318                	lw	a4,0(a4)
   11fce:	8702                	jr	a4
   11fd0:	4522                	lw	a0,8(sp)
   11fd2:	01d0                	addi	a2,sp,196
   11fd4:	85a6                	mv	a1,s1
   11fd6:	c8c6                	sw	a7,80(sp)
   11fd8:	c6fe                	sw	t6,76(sp)
   11fda:	dc16                	sw	t0,56(sp)
   11fdc:	04b010ef          	jal	13826 <__sprint_r>
   11fe0:	58051d63          	bnez	a0,1257a <_vfprintf_r+0xa4c>
   11fe4:	463e                	lw	a2,204(sp)
   11fe6:	48c6                	lw	a7,80(sp)
   11fe8:	4fb6                	lw	t6,76(sp)
   11fea:	52e2                	lw	t0,56(sp)
   11fec:	844e                	mv	s0,s3
   11fee:	b9ed                	j	11ce8 <_vfprintf_r+0x1ba>
   11ff0:	4aae                	lw	s5,200(sp)
   11ff2:	5782                	lw	a5,32(sp)
   11ff4:	4705                	li	a4,1
   11ff6:	01a42023          	sw	s10,0(s0)
   11ffa:	00160c13          	addi	s8,a2,1
   11ffe:	0a85                	addi	s5,s5,1
   12000:	00840b13          	addi	s6,s0,8
   12004:	7af75763          	bge	a4,a5,127b2 <_vfprintf_r+0xc84>
   12008:	4705                	li	a4,1
   1200a:	c058                	sw	a4,4(s0)
   1200c:	c7e2                	sw	s8,204(sp)
   1200e:	c5d6                	sw	s5,200(sp)
   12010:	471d                	li	a4,7
   12012:	395741e3          	blt	a4,s5,12b94 <_vfprintf_r+0x1066>
   12016:	57b2                	lw	a5,44(sp)
   12018:	5742                	lw	a4,48(sp)
   1201a:	0a85                	addi	s5,s5,1
   1201c:	9c3e                	add	s8,s8,a5
   1201e:	00eb2023          	sw	a4,0(s6)
   12022:	00fb2223          	sw	a5,4(s6)
   12026:	c7e2                	sw	s8,204(sp)
   12028:	c5d6                	sw	s5,200(sp)
   1202a:	471d                	li	a4,7
   1202c:	0b21                	addi	s6,s6,8
   1202e:	37574fe3          	blt	a4,s5,12bac <_vfprintf_r+0x107e>
   12032:	474e                	lw	a4,208(sp)
   12034:	5782                	lw	a5,32(sp)
   12036:	010c                	addi	a1,sp,128
   12038:	c93a                	sw	a4,144(sp)
   1203a:	475e                	lw	a4,212(sp)
   1203c:	0908                	addi	a0,sp,144
   1203e:	c102                	sw	zero,128(sp)
   12040:	cb3a                	sw	a4,148(sp)
   12042:	476e                	lw	a4,216(sp)
   12044:	c302                	sw	zero,132(sp)
   12046:	c502                	sw	zero,136(sp)
   12048:	cd3a                	sw	a4,152(sp)
   1204a:	477e                	lw	a4,220(sp)
   1204c:	c702                	sw	zero,140(sp)
   1204e:	fff78413          	addi	s0,a5,-1
   12052:	cf3a                	sw	a4,156(sp)
   12054:	4d6060ef          	jal	1852a <__eqtf2>
   12058:	78050263          	beqz	a0,127dc <_vfprintf_r+0xcae>
   1205c:	001d0793          	addi	a5,s10,1
   12060:	0a85                	addi	s5,s5,1
   12062:	9c22                	add	s8,s8,s0
   12064:	00fb2023          	sw	a5,0(s6)
   12068:	008b2223          	sw	s0,4(s6)
   1206c:	c7e2                	sw	s8,204(sp)
   1206e:	c5d6                	sw	s5,200(sp)
   12070:	479d                	li	a5,7
   12072:	0b21                	addi	s6,s6,8
   12074:	7557c963          	blt	a5,s5,127c6 <_vfprintf_r+0xc98>
   12078:	4686                	lw	a3,64(sp)
   1207a:	1958                	addi	a4,sp,180
   1207c:	001a8793          	addi	a5,s5,1
   12080:	01868633          	add	a2,a3,s8
   12084:	00eb2023          	sw	a4,0(s6)
   12088:	00db2223          	sw	a3,4(s6)
   1208c:	c7b2                	sw	a2,204(sp)
   1208e:	c5be                	sw	a5,200(sp)
   12090:	471d                	li	a4,7
   12092:	008b0413          	addi	s0,s6,8
   12096:	caf751e3          	bge	a4,a5,11d38 <_vfprintf_r+0x20a>
   1209a:	4522                	lw	a0,8(sp)
   1209c:	01d0                	addi	a2,sp,196
   1209e:	85a6                	mv	a1,s1
   120a0:	786010ef          	jal	13826 <__sprint_r>
   120a4:	4c051b63          	bnez	a0,1257a <_vfprintf_r+0xa4c>
   120a8:	463e                	lw	a2,204(sp)
   120aa:	844e                	mv	s0,s3
   120ac:	b171                	j	11d38 <_vfprintf_r+0x20a>
   120ae:	4752                	lw	a4,20(sp)
   120b0:	010cf793          	andi	a5,s9,16
   120b4:	00072b03          	lw	s6,0(a4) # 80000000 <__BSS_END__+0x7ffe3334>
   120b8:	0711                	addi	a4,a4,4
   120ba:	ca3a                	sw	a4,20(sp)
   120bc:	7e079063          	bnez	a5,1289c <_vfprintf_r+0xd6e>
   120c0:	040cf793          	andi	a5,s9,64
   120c4:	7c078863          	beqz	a5,12894 <_vfprintf_r+0xd66>
   120c8:	0b42                	slli	s6,s6,0x10
   120ca:	010b5b13          	srli	s6,s6,0x10
   120ce:	4d81                	li	s11,0
   120d0:	b3cd                	j	11eb2 <_vfprintf_r+0x384>
   120d2:	4752                	lw	a4,20(sp)
   120d4:	010cf793          	andi	a5,s9,16
   120d8:	00072b03          	lw	s6,0(a4)
   120dc:	0711                	addi	a4,a4,4
   120de:	ca3a                	sw	a4,20(sp)
   120e0:	7a079563          	bnez	a5,1288a <_vfprintf_r+0xd5c>
   120e4:	040cf793          	andi	a5,s9,64
   120e8:	78078d63          	beqz	a5,12882 <_vfprintf_r+0xd54>
   120ec:	0b42                	slli	s6,s6,0x10
   120ee:	410b5b13          	srai	s6,s6,0x10
   120f2:	41fb5d93          	srai	s11,s6,0x1f
   120f6:	87ee                	mv	a5,s11
   120f8:	d407dee3          	bgez	a5,11e54 <_vfprintf_r+0x326>
   120fc:	02d00713          	li	a4,45
   12100:	016037b3          	snez	a5,s6
   12104:	41b00db3          	neg	s11,s11
   12108:	0ae103a3          	sb	a4,167(sp)
   1210c:	40fd8db3          	sub	s11,s11,a5
   12110:	41600b33          	neg	s6,s6
   12114:	8ee6                	mv	t4,s9
   12116:	4785                	li	a5,1
   12118:	da0ad5e3          	bgez	s5,11ec2 <_vfprintf_r+0x394>
   1211c:	4705                	li	a4,1
   1211e:	0ce78163          	beq	a5,a4,121e0 <_vfprintf_r+0x6b2>
   12122:	4709                	li	a4,2
   12124:	2ee78563          	beq	a5,a4,1240e <_vfprintf_r+0x8e0>
   12128:	19010d13          	addi	s10,sp,400
   1212c:	01dd9793          	slli	a5,s11,0x1d
   12130:	007b7713          	andi	a4,s6,7
   12134:	003b5b13          	srli	s6,s6,0x3
   12138:	03070713          	addi	a4,a4,48
   1213c:	0167eb33          	or	s6,a5,s6
   12140:	003ddd93          	srli	s11,s11,0x3
   12144:	feed0fa3          	sb	a4,-1(s10)
   12148:	01bb67b3          	or	a5,s6,s11
   1214c:	866a                	mv	a2,s10
   1214e:	1d7d                	addi	s10,s10,-1
   12150:	fff1                	bnez	a5,1212c <_vfprintf_r+0x5fe>
   12152:	001ef693          	andi	a3,t4,1
   12156:	2e068263          	beqz	a3,1243a <_vfprintf_r+0x90c>
   1215a:	03000693          	li	a3,48
   1215e:	2cd70e63          	beq	a4,a3,1243a <_vfprintf_r+0x90c>
   12162:	1679                	addi	a2,a2,-2
   12164:	0b1c                	addi	a5,sp,400
   12166:	fedd0fa3          	sb	a3,-1(s10)
   1216a:	40c78b33          	sub	s6,a5,a2
   1216e:	8cf6                	mv	s9,t4
   12170:	8d32                	mv	s10,a2
   12172:	b301                	j	11e72 <_vfprintf_r+0x344>
   12174:	4752                	lw	a4,20(sp)
   12176:	0a0103a3          	sb	zero,167(sp)
   1217a:	4d85                	li	s11,1
   1217c:	431c                	lw	a5,0(a4)
   1217e:	0711                	addi	a4,a4,4
   12180:	ca3a                	sw	a4,20(sp)
   12182:	12f10623          	sb	a5,300(sp)
   12186:	4b05                	li	s6,1
   12188:	12c10d13          	addi	s10,sp,300
   1218c:	be11                	j	11ca0 <_vfprintf_r+0x172>
   1218e:	47d2                	lw	a5,20(sp)
   12190:	0a0103a3          	sb	zero,167(sp)
   12194:	0007ad03          	lw	s10,0(a5)
   12198:	00478c13          	addi	s8,a5,4
   1219c:	7e0d0a63          	beqz	s10,12990 <_vfprintf_r+0xe62>
   121a0:	420ac4e3          	bltz	s5,12dc8 <_vfprintf_r+0x129a>
   121a4:	8656                	mv	a2,s5
   121a6:	4581                	li	a1,0
   121a8:	856a                	mv	a0,s10
   121aa:	ca46                	sw	a7,20(sp)
   121ac:	68f020ef          	jal	1503a <memchr>
   121b0:	c82a                	sw	a0,16(sp)
   121b2:	48d2                	lw	a7,20(sp)
   121b4:	e119                	bnez	a0,121ba <_vfprintf_r+0x68c>
   121b6:	2580106f          	j	1340e <_vfprintf_r+0x18e0>
   121ba:	47c2                	lw	a5,16(sp)
   121bc:	0a714703          	lbu	a4,167(sp)
   121c0:	ca62                	sw	s8,20(sp)
   121c2:	41a78b33          	sub	s6,a5,s10
   121c6:	fffb4693          	not	a3,s6
   121ca:	86fd                	srai	a3,a3,0x1f
   121cc:	c802                	sw	zero,16(sp)
   121ce:	d402                	sw	zero,40(sp)
   121d0:	d202                	sw	zero,36(sp)
   121d2:	ce02                	sw	zero,28(sp)
   121d4:	00db7db3          	and	s11,s6,a3
   121d8:	4a81                	li	s5,0
   121da:	ca0718e3          	bnez	a4,11e8a <_vfprintf_r+0x35c>
   121de:	b4f1                	j	11caa <_vfprintf_r+0x17c>
   121e0:	1e0d98e3          	bnez	s11,12bd0 <_vfprintf_r+0x10a2>
   121e4:	47a5                	li	a5,9
   121e6:	1f67e5e3          	bltu	a5,s6,12bd0 <_vfprintf_r+0x10a2>
   121ea:	030b0b13          	addi	s6,s6,48
   121ee:	196107a3          	sb	s6,399(sp)
   121f2:	8cf6                	mv	s9,t4
   121f4:	4b05                	li	s6,1
   121f6:	18f10d13          	addi	s10,sp,399
   121fa:	b9a5                	j	11e72 <_vfprintf_r+0x344>
   121fc:	47d2                	lw	a5,20(sp)
   121fe:	0007ab83          	lw	s7,0(a5)
   12202:	0791                	addi	a5,a5,4
   12204:	660bd163          	bgez	s7,12866 <_vfprintf_r+0xd38>
   12208:	41700bb3          	neg	s7,s7
   1220c:	ca3e                	sw	a5,20(sp)
   1220e:	00094883          	lbu	a7,0(s2)
   12212:	004cec93          	ori	s9,s9,4
   12216:	bc2d                	j	11c50 <_vfprintf_r+0x122>
   12218:	010cee93          	ori	t4,s9,16
   1221c:	020ef793          	andi	a5,t4,32
   12220:	60078763          	beqz	a5,1282e <_vfprintf_r+0xd00>
   12224:	47d2                	lw	a5,20(sp)
   12226:	00778c13          	addi	s8,a5,7
   1222a:	ff8c7c13          	andi	s8,s8,-8
   1222e:	008c0793          	addi	a5,s8,8
   12232:	ca3e                	sw	a5,20(sp)
   12234:	000c2b03          	lw	s6,0(s8)
   12238:	004c2d83          	lw	s11,4(s8)
   1223c:	4785                	li	a5,1
   1223e:	b9ad                	j	11eb8 <_vfprintf_r+0x38a>
   12240:	02b00793          	li	a5,43
   12244:	00094883          	lbu	a7,0(s2)
   12248:	0af103a3          	sb	a5,167(sp)
   1224c:	b411                	j	11c50 <_vfprintf_r+0x122>
   1224e:	4752                	lw	a4,20(sp)
   12250:	67a1                	lui	a5,0x8
   12252:	83078793          	addi	a5,a5,-2000 # 7830 <exit-0x8864>
   12256:	0af11423          	sh	a5,168(sp)
   1225a:	00470793          	addi	a5,a4,4
   1225e:	ca3e                	sw	a5,20(sp)
   12260:	67ed                	lui	a5,0x1b
   12262:	a8478793          	addi	a5,a5,-1404 # 1aa84 <__clzsi2+0xea>
   12266:	da3e                	sw	a5,52(sp)
   12268:	00072b03          	lw	s6,0(a4)
   1226c:	4d81                	li	s11,0
   1226e:	002cee93          	ori	t4,s9,2
   12272:	4789                	li	a5,2
   12274:	07800893          	li	a7,120
   12278:	b181                	j	11eb8 <_vfprintf_r+0x38a>
   1227a:	020cf793          	andi	a5,s9,32
   1227e:	64078963          	beqz	a5,128d0 <_vfprintf_r+0xda2>
   12282:	47d2                	lw	a5,20(sp)
   12284:	46b2                	lw	a3,12(sp)
   12286:	439c                	lw	a5,0(a5)
   12288:	41f6d713          	srai	a4,a3,0x1f
   1228c:	c394                	sw	a3,0(a5)
   1228e:	c3d8                	sw	a4,4(a5)
   12290:	47d2                	lw	a5,20(sp)
   12292:	8d4a                	mv	s10,s2
   12294:	0791                	addi	a5,a5,4
   12296:	ca3e                	sw	a5,20(sp)
   12298:	bcc9                	j	11d6a <_vfprintf_r+0x23c>
   1229a:	00094883          	lbu	a7,0(s2)
   1229e:	06c00793          	li	a5,108
   122a2:	6ef88063          	beq	a7,a5,12982 <_vfprintf_r+0xe54>
   122a6:	010cec93          	ori	s9,s9,16
   122aa:	b25d                	j	11c50 <_vfprintf_r+0x122>
   122ac:	00094883          	lbu	a7,0(s2)
   122b0:	06800793          	li	a5,104
   122b4:	6cf88063          	beq	a7,a5,12974 <_vfprintf_r+0xe46>
   122b8:	040cec93          	ori	s9,s9,64
   122bc:	ba51                	j	11c50 <_vfprintf_r+0x122>
   122be:	00094883          	lbu	a7,0(s2)
   122c2:	008cec93          	ori	s9,s9,8
   122c6:	b269                	j	11c50 <_vfprintf_r+0x122>
   122c8:	00094883          	lbu	a7,0(s2)
   122cc:	001cec93          	ori	s9,s9,1
   122d0:	b241                	j	11c50 <_vfprintf_r+0x122>
   122d2:	0a714783          	lbu	a5,167(sp)
   122d6:	00094883          	lbu	a7,0(s2)
   122da:	96079be3          	bnez	a5,11c50 <_vfprintf_r+0x122>
   122de:	02000793          	li	a5,32
   122e2:	0af103a3          	sb	a5,167(sp)
   122e6:	b2ad                	j	11c50 <_vfprintf_r+0x122>
   122e8:	00094883          	lbu	a7,0(s2)
   122ec:	080cec93          	ori	s9,s9,128
   122f0:	b285                	j	11c50 <_vfprintf_r+0x122>
   122f2:	00094883          	lbu	a7,0(s2)
   122f6:	02a00793          	li	a5,42
   122fa:	00190693          	addi	a3,s2,1
   122fe:	00f89463          	bne	a7,a5,12306 <_vfprintf_r+0x7d8>
   12302:	38e0106f          	j	13690 <_vfprintf_r+0x1b62>
   12306:	fd088793          	addi	a5,a7,-48
   1230a:	4725                	li	a4,9
   1230c:	4a81                	li	s5,0
   1230e:	4625                	li	a2,9
   12310:	02f76063          	bltu	a4,a5,12330 <_vfprintf_r+0x802>
   12314:	0006c883          	lbu	a7,0(a3)
   12318:	002a9713          	slli	a4,s5,0x2
   1231c:	9aba                	add	s5,s5,a4
   1231e:	0a86                	slli	s5,s5,0x1
   12320:	9abe                	add	s5,s5,a5
   12322:	fd088793          	addi	a5,a7,-48
   12326:	0685                	addi	a3,a3,1
   12328:	fef676e3          	bgeu	a2,a5,12314 <_vfprintf_r+0x7e6>
   1232c:	5c0ac863          	bltz	s5,128fc <_vfprintf_r+0xdce>
   12330:	8936                	mv	s2,a3
   12332:	b205                	j	11c52 <_vfprintf_r+0x124>
   12334:	06500713          	li	a4,101
   12338:	cb175ce3          	bge	a4,a7,11ff0 <_vfprintf_r+0x4c2>
   1233c:	474e                	lw	a4,208(sp)
   1233e:	010c                	addi	a1,sp,128
   12340:	0908                	addi	a0,sp,144
   12342:	c93a                	sw	a4,144(sp)
   12344:	475e                	lw	a4,212(sp)
   12346:	dc32                	sw	a2,56(sp)
   12348:	c102                	sw	zero,128(sp)
   1234a:	cb3a                	sw	a4,148(sp)
   1234c:	476e                	lw	a4,216(sp)
   1234e:	c302                	sw	zero,132(sp)
   12350:	c502                	sw	zero,136(sp)
   12352:	cd3a                	sw	a4,152(sp)
   12354:	477e                	lw	a4,220(sp)
   12356:	c702                	sw	zero,140(sp)
   12358:	cf3a                	sw	a4,156(sp)
   1235a:	1d0060ef          	jal	1852a <__eqtf2>
   1235e:	5662                	lw	a2,56(sp)
   12360:	36051363          	bnez	a0,126c6 <_vfprintf_r+0xb98>
   12364:	47ae                	lw	a5,200(sp)
   12366:	676d                	lui	a4,0x1b
   12368:	ab470713          	addi	a4,a4,-1356 # 1aab4 <__clzsi2+0x11a>
   1236c:	c018                	sw	a4,0(s0)
   1236e:	0605                	addi	a2,a2,1
   12370:	4705                	li	a4,1
   12372:	0785                	addi	a5,a5,1
   12374:	c058                	sw	a4,4(s0)
   12376:	c7b2                	sw	a2,204(sp)
   12378:	c5be                	sw	a5,200(sp)
   1237a:	471d                	li	a4,7
   1237c:	0421                	addi	s0,s0,8
   1237e:	16f74de3          	blt	a4,a5,12cf8 <_vfprintf_r+0x11ca>
   12382:	57ba                	lw	a5,172(sp)
   12384:	5702                	lw	a4,32(sp)
   12386:	4ce7db63          	bge	a5,a4,1285c <_vfprintf_r+0xd2e>
   1238a:	57c2                	lw	a5,48(sp)
   1238c:	5732                	lw	a4,44(sp)
   1238e:	0421                	addi	s0,s0,8
   12390:	fef42c23          	sw	a5,-8(s0)
   12394:	47ae                	lw	a5,200(sp)
   12396:	963a                	add	a2,a2,a4
   12398:	fee42e23          	sw	a4,-4(s0)
   1239c:	0785                	addi	a5,a5,1
   1239e:	c7b2                	sw	a2,204(sp)
   123a0:	c5be                	sw	a5,200(sp)
   123a2:	471d                	li	a4,7
   123a4:	5af74e63          	blt	a4,a5,12960 <_vfprintf_r+0xe32>
   123a8:	5782                	lw	a5,32(sp)
   123aa:	fff78a93          	addi	s5,a5,-1
   123ae:	995055e3          	blez	s5,11d38 <_vfprintf_r+0x20a>
   123b2:	686d                	lui	a6,0x1b
   123b4:	d7880813          	addi	a6,a6,-648 # 1ad78 <zeroes.0>
   123b8:	4741                	li	a4,16
   123ba:	47ae                	lw	a5,200(sp)
   123bc:	4b41                	li	s6,16
   123be:	4c1d                	li	s8,7
   123c0:	8d42                	mv	s10,a6
   123c2:	01574763          	blt	a4,s5,123d0 <_vfprintf_r+0x8a2>
   123c6:	14b0006f          	j	12d10 <_vfprintf_r+0x11e2>
   123ca:	1ac1                	addi	s5,s5,-16
   123cc:	155b51e3          	bge	s6,s5,12d0e <_vfprintf_r+0x11e0>
   123d0:	0641                	addi	a2,a2,16
   123d2:	0785                	addi	a5,a5,1
   123d4:	01a42023          	sw	s10,0(s0)
   123d8:	01642223          	sw	s6,4(s0)
   123dc:	c7b2                	sw	a2,204(sp)
   123de:	c5be                	sw	a5,200(sp)
   123e0:	0421                	addi	s0,s0,8
   123e2:	fefc54e3          	bge	s8,a5,123ca <_vfprintf_r+0x89c>
   123e6:	4522                	lw	a0,8(sp)
   123e8:	01d0                	addi	a2,sp,196
   123ea:	85a6                	mv	a1,s1
   123ec:	43a010ef          	jal	13826 <__sprint_r>
   123f0:	18051563          	bnez	a0,1257a <_vfprintf_r+0xa4c>
   123f4:	463e                	lw	a2,204(sp)
   123f6:	47ae                	lw	a5,200(sp)
   123f8:	844e                	mv	s0,s3
   123fa:	bfc1                	j	123ca <_vfprintf_r+0x89c>
   123fc:	4705                	li	a4,1
   123fe:	00e79463          	bne	a5,a4,12406 <_vfprintf_r+0x8d8>
   12402:	1420106f          	j	13544 <_vfprintf_r+0x1a16>
   12406:	4709                	li	a4,2
   12408:	8ee6                	mv	t4,s9
   1240a:	d0e79fe3          	bne	a5,a4,12128 <_vfprintf_r+0x5fa>
   1240e:	56d2                	lw	a3,52(sp)
   12410:	19010d13          	addi	s10,sp,400
   12414:	00fb7793          	andi	a5,s6,15
   12418:	97b6                	add	a5,a5,a3
   1241a:	0007c703          	lbu	a4,0(a5)
   1241e:	004b5b13          	srli	s6,s6,0x4
   12422:	01cd9793          	slli	a5,s11,0x1c
   12426:	0167eb33          	or	s6,a5,s6
   1242a:	004ddd93          	srli	s11,s11,0x4
   1242e:	feed0fa3          	sb	a4,-1(s10)
   12432:	01bb67b3          	or	a5,s6,s11
   12436:	1d7d                	addi	s10,s10,-1
   12438:	fff1                	bnez	a5,12414 <_vfprintf_r+0x8e6>
   1243a:	0b1c                	addi	a5,sp,400
   1243c:	41a78b33          	sub	s6,a5,s10
   12440:	8cf6                	mv	s9,t4
   12442:	bc05                	j	11e72 <_vfprintf_r+0x344>
   12444:	41bb8c33          	sub	s8,s7,s11
   12448:	8d8053e3          	blez	s8,11d0e <_vfprintf_r+0x1e0>
   1244c:	686d                	lui	a6,0x1b
   1244e:	4541                	li	a0,16
   12450:	45ae                	lw	a1,200(sp)
   12452:	d7880813          	addi	a6,a6,-648 # 1ad78 <zeroes.0>
   12456:	05855f63          	bge	a0,s8,124b4 <_vfprintf_r+0x986>
   1245a:	dc4a                	sw	s2,56(sp)
   1245c:	87a2                	mv	a5,s0
   1245e:	4ec1                	li	t4,16
   12460:	8462                	mv	s0,s8
   12462:	4f9d                	li	t6,7
   12464:	8c5a                	mv	s8,s6
   12466:	8942                	mv	s2,a6
   12468:	8b56                	mv	s6,s5
   1246a:	8ac6                	mv	s5,a7
   1246c:	a021                	j	12474 <_vfprintf_r+0x946>
   1246e:	1441                	addi	s0,s0,-16
   12470:	028edb63          	bge	t4,s0,124a6 <_vfprintf_r+0x978>
   12474:	0641                	addi	a2,a2,16
   12476:	0585                	addi	a1,a1,1 # 2001 <exit-0xe093>
   12478:	0127a023          	sw	s2,0(a5)
   1247c:	01d7a223          	sw	t4,4(a5)
   12480:	c7b2                	sw	a2,204(sp)
   12482:	c5ae                	sw	a1,200(sp)
   12484:	07a1                	addi	a5,a5,8
   12486:	febfd4e3          	bge	t6,a1,1246e <_vfprintf_r+0x940>
   1248a:	4522                	lw	a0,8(sp)
   1248c:	01d0                	addi	a2,sp,196
   1248e:	85a6                	mv	a1,s1
   12490:	396010ef          	jal	13826 <__sprint_r>
   12494:	e17d                	bnez	a0,1257a <_vfprintf_r+0xa4c>
   12496:	4ec1                	li	t4,16
   12498:	1441                	addi	s0,s0,-16
   1249a:	463e                	lw	a2,204(sp)
   1249c:	45ae                	lw	a1,200(sp)
   1249e:	87ce                	mv	a5,s3
   124a0:	4f9d                	li	t6,7
   124a2:	fc8ec9e3          	blt	t4,s0,12474 <_vfprintf_r+0x946>
   124a6:	884a                	mv	a6,s2
   124a8:	5962                	lw	s2,56(sp)
   124aa:	88d6                	mv	a7,s5
   124ac:	8ada                	mv	s5,s6
   124ae:	8b62                	mv	s6,s8
   124b0:	8c22                	mv	s8,s0
   124b2:	843e                	mv	s0,a5
   124b4:	9662                	add	a2,a2,s8
   124b6:	0585                	addi	a1,a1,1
   124b8:	01042023          	sw	a6,0(s0)
   124bc:	01842223          	sw	s8,4(s0)
   124c0:	c7b2                	sw	a2,204(sp)
   124c2:	c5ae                	sw	a1,200(sp)
   124c4:	471d                	li	a4,7
   124c6:	0421                	addi	s0,s0,8
   124c8:	84b753e3          	bge	a4,a1,11d0e <_vfprintf_r+0x1e0>
   124cc:	4522                	lw	a0,8(sp)
   124ce:	01d0                	addi	a2,sp,196
   124d0:	85a6                	mv	a1,s1
   124d2:	dc46                	sw	a7,56(sp)
   124d4:	352010ef          	jal	13826 <__sprint_r>
   124d8:	e14d                	bnez	a0,1257a <_vfprintf_r+0xa4c>
   124da:	463e                	lw	a2,204(sp)
   124dc:	58e2                	lw	a7,56(sp)
   124de:	844e                	mv	s0,s3
   124e0:	82fff06f          	j	11d0e <_vfprintf_r+0x1e0>
   124e4:	686d                	lui	a6,0x1b
   124e6:	4741                	li	a4,16
   124e8:	45ae                	lw	a1,200(sp)
   124ea:	d7880813          	addi	a6,a6,-648 # 1ad78 <zeroes.0>
   124ee:	05575763          	bge	a4,s5,1253c <_vfprintf_r+0xa0e>
   124f2:	87a2                	mv	a5,s0
   124f4:	4741                	li	a4,16
   124f6:	8456                	mv	s0,s5
   124f8:	4c1d                	li	s8,7
   124fa:	dc46                	sw	a7,56(sp)
   124fc:	8ad2                	mv	s5,s4
   124fe:	a021                	j	12506 <_vfprintf_r+0x9d8>
   12500:	1441                	addi	s0,s0,-16
   12502:	02875963          	bge	a4,s0,12534 <_vfprintf_r+0xa06>
   12506:	0641                	addi	a2,a2,16
   12508:	0585                	addi	a1,a1,1
   1250a:	0147a023          	sw	s4,0(a5)
   1250e:	c3d8                	sw	a4,4(a5)
   12510:	c7b2                	sw	a2,204(sp)
   12512:	c5ae                	sw	a1,200(sp)
   12514:	07a1                	addi	a5,a5,8
   12516:	febc55e3          	bge	s8,a1,12500 <_vfprintf_r+0x9d2>
   1251a:	4522                	lw	a0,8(sp)
   1251c:	01d0                	addi	a2,sp,196
   1251e:	85a6                	mv	a1,s1
   12520:	306010ef          	jal	13826 <__sprint_r>
   12524:	e939                	bnez	a0,1257a <_vfprintf_r+0xa4c>
   12526:	4741                	li	a4,16
   12528:	1441                	addi	s0,s0,-16
   1252a:	463e                	lw	a2,204(sp)
   1252c:	45ae                	lw	a1,200(sp)
   1252e:	87ce                	mv	a5,s3
   12530:	fc874be3          	blt	a4,s0,12506 <_vfprintf_r+0x9d8>
   12534:	58e2                	lw	a7,56(sp)
   12536:	8856                	mv	a6,s5
   12538:	8aa2                	mv	s5,s0
   1253a:	843e                	mv	s0,a5
   1253c:	9656                	add	a2,a2,s5
   1253e:	0585                	addi	a1,a1,1
   12540:	01042023          	sw	a6,0(s0)
   12544:	01542223          	sw	s5,4(s0)
   12548:	c7b2                	sw	a2,204(sp)
   1254a:	c5ae                	sw	a1,200(sp)
   1254c:	471d                	li	a4,7
   1254e:	0421                	addi	s0,s0,8
   12550:	fcb75363          	bge	a4,a1,11d16 <_vfprintf_r+0x1e8>
   12554:	4522                	lw	a0,8(sp)
   12556:	01d0                	addi	a2,sp,196
   12558:	85a6                	mv	a1,s1
   1255a:	dc46                	sw	a7,56(sp)
   1255c:	2ca010ef          	jal	13826 <__sprint_r>
   12560:	ed09                	bnez	a0,1257a <_vfprintf_r+0xa4c>
   12562:	463e                	lw	a2,204(sp)
   12564:	58e2                	lw	a7,56(sp)
   12566:	844e                	mv	s0,s3
   12568:	faeff06f          	j	11d16 <_vfprintf_r+0x1e8>
   1256c:	4522                	lw	a0,8(sp)
   1256e:	01d0                	addi	a2,sp,196
   12570:	85a6                	mv	a1,s1
   12572:	2b4010ef          	jal	13826 <__sprint_r>
   12576:	fe050263          	beqz	a0,11d5a <_vfprintf_r+0x22c>
   1257a:	45c2                	lw	a1,16(sp)
   1257c:	fe058f63          	beqz	a1,11d7a <_vfprintf_r+0x24c>
   12580:	4522                	lw	a0,8(sp)
   12582:	b86ff0ef          	jal	11908 <_free_r>
   12586:	ff4ff06f          	j	11d7a <_vfprintf_r+0x24c>
   1258a:	8ee6                	mv	t4,s9
   1258c:	be41                	j	1211c <_vfprintf_r+0x5ee>
   1258e:	686d                	lui	a6,0x1b
   12590:	4541                	li	a0,16
   12592:	45ae                	lw	a1,200(sp)
   12594:	d8880c13          	addi	s8,a6,-632 # 1ad88 <blanks.1>
   12598:	06e55363          	bge	a0,a4,125fe <_vfprintf_r+0xad0>
   1259c:	c8ca                	sw	s2,80(sp)
   1259e:	87a2                	mv	a5,s0
   125a0:	8962                	mv	s2,s8
   125a2:	4ec1                	li	t4,16
   125a4:	8c5a                	mv	s8,s6
   125a6:	439d                	li	t2,7
   125a8:	8b56                	mv	s6,s5
   125aa:	dc16                	sw	t0,56(sp)
   125ac:	c6fe                	sw	t6,76(sp)
   125ae:	843a                	mv	s0,a4
   125b0:	8ac6                	mv	s5,a7
   125b2:	a021                	j	125ba <_vfprintf_r+0xa8c>
   125b4:	1441                	addi	s0,s0,-16
   125b6:	028edb63          	bge	t4,s0,125ec <_vfprintf_r+0xabe>
   125ba:	0641                	addi	a2,a2,16
   125bc:	0585                	addi	a1,a1,1
   125be:	0127a023          	sw	s2,0(a5)
   125c2:	01d7a223          	sw	t4,4(a5)
   125c6:	c7b2                	sw	a2,204(sp)
   125c8:	c5ae                	sw	a1,200(sp)
   125ca:	07a1                	addi	a5,a5,8
   125cc:	feb3d4e3          	bge	t2,a1,125b4 <_vfprintf_r+0xa86>
   125d0:	4522                	lw	a0,8(sp)
   125d2:	01d0                	addi	a2,sp,196
   125d4:	85a6                	mv	a1,s1
   125d6:	250010ef          	jal	13826 <__sprint_r>
   125da:	f145                	bnez	a0,1257a <_vfprintf_r+0xa4c>
   125dc:	4ec1                	li	t4,16
   125de:	1441                	addi	s0,s0,-16
   125e0:	463e                	lw	a2,204(sp)
   125e2:	45ae                	lw	a1,200(sp)
   125e4:	87ce                	mv	a5,s3
   125e6:	439d                	li	t2,7
   125e8:	fc8ec9e3          	blt	t4,s0,125ba <_vfprintf_r+0xa8c>
   125ec:	88d6                	mv	a7,s5
   125ee:	52e2                	lw	t0,56(sp)
   125f0:	8ada                	mv	s5,s6
   125f2:	4fb6                	lw	t6,76(sp)
   125f4:	8b62                	mv	s6,s8
   125f6:	8c4a                	mv	s8,s2
   125f8:	4946                	lw	s2,80(sp)
   125fa:	8722                	mv	a4,s0
   125fc:	843e                	mv	s0,a5
   125fe:	963a                	add	a2,a2,a4
   12600:	0585                	addi	a1,a1,1
   12602:	c058                	sw	a4,4(s0)
   12604:	01842023          	sw	s8,0(s0)
   12608:	c7b2                	sw	a2,204(sp)
   1260a:	c5ae                	sw	a1,200(sp)
   1260c:	471d                	li	a4,7
   1260e:	0421                	addi	s0,s0,8
   12610:	eab75b63          	bge	a4,a1,11cc6 <_vfprintf_r+0x198>
   12614:	4522                	lw	a0,8(sp)
   12616:	01d0                	addi	a2,sp,196
   12618:	85a6                	mv	a1,s1
   1261a:	c8c6                	sw	a7,80(sp)
   1261c:	c6fe                	sw	t6,76(sp)
   1261e:	dc16                	sw	t0,56(sp)
   12620:	206010ef          	jal	13826 <__sprint_r>
   12624:	f939                	bnez	a0,1257a <_vfprintf_r+0xa4c>
   12626:	463e                	lw	a2,204(sp)
   12628:	48c6                	lw	a7,80(sp)
   1262a:	4fb6                	lw	t6,76(sp)
   1262c:	52e2                	lw	t0,56(sp)
   1262e:	844e                	mv	s0,s3
   12630:	e96ff06f          	j	11cc6 <_vfprintf_r+0x198>
   12634:	4522                	lw	a0,8(sp)
   12636:	01d0                	addi	a2,sp,196
   12638:	85a6                	mv	a1,s1
   1263a:	c6c6                	sw	a7,76(sp)
   1263c:	dc7e                	sw	t6,56(sp)
   1263e:	1e8010ef          	jal	13826 <__sprint_r>
   12642:	fd05                	bnez	a0,1257a <_vfprintf_r+0xa4c>
   12644:	463e                	lw	a2,204(sp)
   12646:	48b6                	lw	a7,76(sp)
   12648:	5fe2                	lw	t6,56(sp)
   1264a:	844e                	mv	s0,s3
   1264c:	ebaff06f          	j	11d06 <_vfprintf_r+0x1d8>
   12650:	686d                	lui	a6,0x1b
   12652:	4741                	li	a4,16
   12654:	47ae                	lw	a5,200(sp)
   12656:	d8880c13          	addi	s8,a6,-632 # 1ad88 <blanks.1>
   1265a:	05575163          	bge	a4,s5,1269c <_vfprintf_r+0xb6e>
   1265e:	4d22                	lw	s10,8(sp)
   12660:	4b41                	li	s6,16
   12662:	4c9d                	li	s9,7
   12664:	a021                	j	1266c <_vfprintf_r+0xb3e>
   12666:	1ac1                	addi	s5,s5,-16
   12668:	035b5a63          	bge	s6,s5,1269c <_vfprintf_r+0xb6e>
   1266c:	0641                	addi	a2,a2,16
   1266e:	0785                	addi	a5,a5,1
   12670:	01842023          	sw	s8,0(s0)
   12674:	01642223          	sw	s6,4(s0)
   12678:	c7b2                	sw	a2,204(sp)
   1267a:	c5be                	sw	a5,200(sp)
   1267c:	0421                	addi	s0,s0,8
   1267e:	fefcd4e3          	bge	s9,a5,12666 <_vfprintf_r+0xb38>
   12682:	01d0                	addi	a2,sp,196
   12684:	85a6                	mv	a1,s1
   12686:	856a                	mv	a0,s10
   12688:	19e010ef          	jal	13826 <__sprint_r>
   1268c:	ee0517e3          	bnez	a0,1257a <_vfprintf_r+0xa4c>
   12690:	1ac1                	addi	s5,s5,-16
   12692:	463e                	lw	a2,204(sp)
   12694:	47ae                	lw	a5,200(sp)
   12696:	844e                	mv	s0,s3
   12698:	fd5b4ae3          	blt	s6,s5,1266c <_vfprintf_r+0xb3e>
   1269c:	9656                	add	a2,a2,s5
   1269e:	0785                	addi	a5,a5,1
   126a0:	01842023          	sw	s8,0(s0)
   126a4:	01542223          	sw	s5,4(s0)
   126a8:	c7b2                	sw	a2,204(sp)
   126aa:	c5be                	sw	a5,200(sp)
   126ac:	471d                	li	a4,7
   126ae:	e8f75d63          	bge	a4,a5,11d48 <_vfprintf_r+0x21a>
   126b2:	4522                	lw	a0,8(sp)
   126b4:	01d0                	addi	a2,sp,196
   126b6:	85a6                	mv	a1,s1
   126b8:	16e010ef          	jal	13826 <__sprint_r>
   126bc:	ea051fe3          	bnez	a0,1257a <_vfprintf_r+0xa4c>
   126c0:	463e                	lw	a2,204(sp)
   126c2:	e86ff06f          	j	11d48 <_vfprintf_r+0x21a>
   126c6:	553a                	lw	a0,172(sp)
   126c8:	5ca05e63          	blez	a0,12ca4 <_vfprintf_r+0x1176>
   126cc:	47f2                	lw	a5,28(sp)
   126ce:	5702                	lw	a4,32(sp)
   126d0:	8abe                	mv	s5,a5
   126d2:	22f74163          	blt	a4,a5,128f4 <_vfprintf_r+0xdc6>
   126d6:	01505f63          	blez	s5,126f4 <_vfprintf_r+0xbc6>
   126da:	472e                	lw	a4,200(sp)
   126dc:	9656                	add	a2,a2,s5
   126de:	01a42023          	sw	s10,0(s0)
   126e2:	0705                	addi	a4,a4,1
   126e4:	01542223          	sw	s5,4(s0)
   126e8:	c7b2                	sw	a2,204(sp)
   126ea:	c5ba                	sw	a4,200(sp)
   126ec:	459d                	li	a1,7
   126ee:	0421                	addi	s0,s0,8
   126f0:	14e5c7e3          	blt	a1,a4,1303e <_vfprintf_r+0x1510>
   126f4:	fffac713          	not	a4,s5
   126f8:	47f2                	lw	a5,28(sp)
   126fa:	877d                	srai	a4,a4,0x1f
   126fc:	00eafab3          	and	s5,s5,a4
   12700:	41578ab3          	sub	s5,a5,s5
   12704:	2b504163          	bgtz	s5,129a6 <_vfprintf_r+0xe78>
   12708:	47f2                	lw	a5,28(sp)
   1270a:	400cf713          	andi	a4,s9,1024
   1270e:	00fd0c33          	add	s8,s10,a5
   12712:	74071063          	bnez	a4,12e52 <_vfprintf_r+0x1324>
   12716:	5aba                	lw	s5,172(sp)
   12718:	5782                	lw	a5,32(sp)
   1271a:	2cfaca63          	blt	s5,a5,129ee <_vfprintf_r+0xec0>
   1271e:	001cf713          	andi	a4,s9,1
   12722:	2c071663          	bnez	a4,129ee <_vfprintf_r+0xec0>
   12726:	5702                	lw	a4,32(sp)
   12728:	00ed07b3          	add	a5,s10,a4
   1272c:	41570ab3          	sub	s5,a4,s5
   12730:	41878b33          	sub	s6,a5,s8
   12734:	016ad363          	bge	s5,s6,1273a <_vfprintf_r+0xc0c>
   12738:	8b56                	mv	s6,s5
   1273a:	01605f63          	blez	s6,12758 <_vfprintf_r+0xc2a>
   1273e:	47ae                	lw	a5,200(sp)
   12740:	965a                	add	a2,a2,s6
   12742:	01842023          	sw	s8,0(s0)
   12746:	0785                	addi	a5,a5,1
   12748:	01642223          	sw	s6,4(s0)
   1274c:	c7b2                	sw	a2,204(sp)
   1274e:	c5be                	sw	a5,200(sp)
   12750:	471d                	li	a4,7
   12752:	0421                	addi	s0,s0,8
   12754:	4cf74fe3          	blt	a4,a5,13432 <_vfprintf_r+0x1904>
   12758:	fffb4793          	not	a5,s6
   1275c:	87fd                	srai	a5,a5,0x1f
   1275e:	00fb7b33          	and	s6,s6,a5
   12762:	416a8ab3          	sub	s5,s5,s6
   12766:	dd505963          	blez	s5,11d38 <_vfprintf_r+0x20a>
   1276a:	686d                	lui	a6,0x1b
   1276c:	d7880813          	addi	a6,a6,-648 # 1ad78 <zeroes.0>
   12770:	4741                	li	a4,16
   12772:	47ae                	lw	a5,200(sp)
   12774:	4b41                	li	s6,16
   12776:	4c1d                	li	s8,7
   12778:	8d42                	mv	s10,a6
   1277a:	01574663          	blt	a4,s5,12786 <_vfprintf_r+0xc58>
   1277e:	ab49                	j	12d10 <_vfprintf_r+0x11e2>
   12780:	1ac1                	addi	s5,s5,-16
   12782:	595b5663          	bge	s6,s5,12d0e <_vfprintf_r+0x11e0>
   12786:	0641                	addi	a2,a2,16
   12788:	0785                	addi	a5,a5,1
   1278a:	01a42023          	sw	s10,0(s0)
   1278e:	01642223          	sw	s6,4(s0)
   12792:	c7b2                	sw	a2,204(sp)
   12794:	c5be                	sw	a5,200(sp)
   12796:	0421                	addi	s0,s0,8
   12798:	fefc54e3          	bge	s8,a5,12780 <_vfprintf_r+0xc52>
   1279c:	4522                	lw	a0,8(sp)
   1279e:	01d0                	addi	a2,sp,196
   127a0:	85a6                	mv	a1,s1
   127a2:	084010ef          	jal	13826 <__sprint_r>
   127a6:	dc051ae3          	bnez	a0,1257a <_vfprintf_r+0xa4c>
   127aa:	463e                	lw	a2,204(sp)
   127ac:	47ae                	lw	a5,200(sp)
   127ae:	844e                	mv	s0,s3
   127b0:	bfc1                	j	12780 <_vfprintf_r+0xc52>
   127b2:	001cf593          	andi	a1,s9,1
   127b6:	840599e3          	bnez	a1,12008 <_vfprintf_r+0x4da>
   127ba:	c058                	sw	a4,4(s0)
   127bc:	c7e2                	sw	s8,204(sp)
   127be:	c5d6                	sw	s5,200(sp)
   127c0:	479d                	li	a5,7
   127c2:	8b57dbe3          	bge	a5,s5,12078 <_vfprintf_r+0x54a>
   127c6:	4522                	lw	a0,8(sp)
   127c8:	01d0                	addi	a2,sp,196
   127ca:	85a6                	mv	a1,s1
   127cc:	05a010ef          	jal	13826 <__sprint_r>
   127d0:	da0515e3          	bnez	a0,1257a <_vfprintf_r+0xa4c>
   127d4:	4c3e                	lw	s8,204(sp)
   127d6:	4aae                	lw	s5,200(sp)
   127d8:	8b4e                	mv	s6,s3
   127da:	b879                	j	12078 <_vfprintf_r+0x54a>
   127dc:	5702                	lw	a4,32(sp)
   127de:	4785                	li	a5,1
   127e0:	88e7dce3          	bge	a5,a4,12078 <_vfprintf_r+0x54a>
   127e4:	686d                	lui	a6,0x1b
   127e6:	47c5                	li	a5,17
   127e8:	d7880813          	addi	a6,a6,-648 # 1ad78 <zeroes.0>
   127ec:	60e7d863          	bge	a5,a4,12dfc <_vfprintf_r+0x12ce>
   127f0:	ce4a                	sw	s2,28(sp)
   127f2:	47c1                	li	a5,16
   127f4:	4d1d                	li	s10,7
   127f6:	8942                	mv	s2,a6
   127f8:	a021                	j	12800 <_vfprintf_r+0xcd2>
   127fa:	1441                	addi	s0,s0,-16
   127fc:	5e87de63          	bge	a5,s0,12df8 <_vfprintf_r+0x12ca>
   12800:	0c41                	addi	s8,s8,16
   12802:	0a85                	addi	s5,s5,1
   12804:	012b2023          	sw	s2,0(s6)
   12808:	00fb2223          	sw	a5,4(s6)
   1280c:	c7e2                	sw	s8,204(sp)
   1280e:	c5d6                	sw	s5,200(sp)
   12810:	0b21                	addi	s6,s6,8
   12812:	ff5d54e3          	bge	s10,s5,127fa <_vfprintf_r+0xccc>
   12816:	4522                	lw	a0,8(sp)
   12818:	01d0                	addi	a2,sp,196
   1281a:	85a6                	mv	a1,s1
   1281c:	00a010ef          	jal	13826 <__sprint_r>
   12820:	d4051de3          	bnez	a0,1257a <_vfprintf_r+0xa4c>
   12824:	4c3e                	lw	s8,204(sp)
   12826:	4aae                	lw	s5,200(sp)
   12828:	8b4e                	mv	s6,s3
   1282a:	47c1                	li	a5,16
   1282c:	b7f9                	j	127fa <_vfprintf_r+0xccc>
   1282e:	4752                	lw	a4,20(sp)
   12830:	010ef793          	andi	a5,t4,16
   12834:	00072b03          	lw	s6,0(a4)
   12838:	0711                	addi	a4,a4,4
   1283a:	ca3a                	sw	a4,20(sp)
   1283c:	ef9d                	bnez	a5,1287a <_vfprintf_r+0xd4c>
   1283e:	040ef793          	andi	a5,t4,64
   12842:	c79d                	beqz	a5,12870 <_vfprintf_r+0xd42>
   12844:	0b42                	slli	s6,s6,0x10
   12846:	010b5b13          	srli	s6,s6,0x10
   1284a:	4d81                	li	s11,0
   1284c:	4785                	li	a5,1
   1284e:	e6aff06f          	j	11eb8 <_vfprintf_r+0x38a>
   12852:	4b01                	li	s6,0
   12854:	19010d13          	addi	s10,sp,400
   12858:	e1aff06f          	j	11e72 <_vfprintf_r+0x344>
   1285c:	001cf793          	andi	a5,s9,1
   12860:	cc078c63          	beqz	a5,11d38 <_vfprintf_r+0x20a>
   12864:	b61d                	j	1238a <_vfprintf_r+0x85c>
   12866:	00094883          	lbu	a7,0(s2)
   1286a:	ca3e                	sw	a5,20(sp)
   1286c:	be4ff06f          	j	11c50 <_vfprintf_r+0x122>
   12870:	200ef793          	andi	a5,t4,512
   12874:	c399                	beqz	a5,1287a <_vfprintf_r+0xd4c>
   12876:	0ffb7b13          	zext.b	s6,s6
   1287a:	4d81                	li	s11,0
   1287c:	4785                	li	a5,1
   1287e:	e3aff06f          	j	11eb8 <_vfprintf_r+0x38a>
   12882:	200cf793          	andi	a5,s9,512
   12886:	7e079063          	bnez	a5,13066 <_vfprintf_r+0x1538>
   1288a:	41fb5d93          	srai	s11,s6,0x1f
   1288e:	87ee                	mv	a5,s11
   12890:	dc0ff06f          	j	11e50 <_vfprintf_r+0x322>
   12894:	200cf793          	andi	a5,s9,512
   12898:	7e079363          	bnez	a5,1307e <_vfprintf_r+0x1550>
   1289c:	4d81                	li	s11,0
   1289e:	e14ff06f          	j	11eb2 <_vfprintf_r+0x384>
   128a2:	47d2                	lw	a5,20(sp)
   128a4:	4398                	lw	a4,0(a5)
   128a6:	0791                	addi	a5,a5,4
   128a8:	ca3e                	sw	a5,20(sp)
   128aa:	430c                	lw	a1,0(a4)
   128ac:	4350                	lw	a2,4(a4)
   128ae:	4714                	lw	a3,8(a4)
   128b0:	4758                	lw	a4,12(a4)
   128b2:	e90ff06f          	j	11f42 <_vfprintf_r+0x414>
   128b6:	57f2                	lw	a5,60(sp)
   128b8:	00094883          	lbu	a7,0(s2)
   128bc:	b8078a63          	beqz	a5,11c50 <_vfprintf_r+0x122>
   128c0:	0007c783          	lbu	a5,0(a5)
   128c4:	b8078663          	beqz	a5,11c50 <_vfprintf_r+0x122>
   128c8:	400cec93          	ori	s9,s9,1024
   128cc:	b84ff06f          	j	11c50 <_vfprintf_r+0x122>
   128d0:	010cf793          	andi	a5,s9,16
   128d4:	4a079663          	bnez	a5,12d80 <_vfprintf_r+0x1252>
   128d8:	040cf793          	andi	a5,s9,64
   128dc:	76079e63          	bnez	a5,13058 <_vfprintf_r+0x152a>
   128e0:	200cfe13          	andi	t3,s9,512
   128e4:	480e0e63          	beqz	t3,12d80 <_vfprintf_r+0x1252>
   128e8:	47d2                	lw	a5,20(sp)
   128ea:	4732                	lw	a4,12(sp)
   128ec:	439c                	lw	a5,0(a5)
   128ee:	00e78023          	sb	a4,0(a5)
   128f2:	ba79                	j	12290 <_vfprintf_r+0x762>
   128f4:	8aba                	mv	s5,a4
   128f6:	df5042e3          	bgtz	s5,126da <_vfprintf_r+0xbac>
   128fa:	bbed                	j	126f4 <_vfprintf_r+0xbc6>
   128fc:	5afd                	li	s5,-1
   128fe:	8936                	mv	s2,a3
   12900:	b52ff06f          	j	11c52 <_vfprintf_r+0x124>
   12904:	67ed                	lui	a5,0x1b
   12906:	a9878793          	addi	a5,a5,-1384 # 1aa98 <__clzsi2+0xfe>
   1290a:	da3e                	sw	a5,52(sp)
   1290c:	020cf793          	andi	a5,s9,32
   12910:	26078263          	beqz	a5,12b74 <_vfprintf_r+0x1046>
   12914:	47d2                	lw	a5,20(sp)
   12916:	00778c13          	addi	s8,a5,7
   1291a:	ff8c7c13          	andi	s8,s8,-8
   1291e:	000c2b03          	lw	s6,0(s8)
   12922:	004c2d83          	lw	s11,4(s8)
   12926:	008c0793          	addi	a5,s8,8
   1292a:	ca3e                	sw	a5,20(sp)
   1292c:	001cf793          	andi	a5,s9,1
   12930:	cf81                	beqz	a5,12948 <_vfprintf_r+0xe1a>
   12932:	01bb67b3          	or	a5,s6,s11
   12936:	cb89                	beqz	a5,12948 <_vfprintf_r+0xe1a>
   12938:	03000793          	li	a5,48
   1293c:	0af10423          	sb	a5,168(sp)
   12940:	0b1104a3          	sb	a7,169(sp)
   12944:	002cec93          	ori	s9,s9,2
   12948:	bffcfe93          	andi	t4,s9,-1025
   1294c:	4789                	li	a5,2
   1294e:	d6aff06f          	j	11eb8 <_vfprintf_r+0x38a>
   12952:	8ee6                	mv	t4,s9
   12954:	b0e1                	j	1221c <_vfprintf_r+0x6ee>
   12956:	67ed                	lui	a5,0x1b
   12958:	a8478793          	addi	a5,a5,-1404 # 1aa84 <__clzsi2+0xea>
   1295c:	da3e                	sw	a5,52(sp)
   1295e:	b77d                	j	1290c <_vfprintf_r+0xdde>
   12960:	4522                	lw	a0,8(sp)
   12962:	01d0                	addi	a2,sp,196
   12964:	85a6                	mv	a1,s1
   12966:	6c1000ef          	jal	13826 <__sprint_r>
   1296a:	c00518e3          	bnez	a0,1257a <_vfprintf_r+0xa4c>
   1296e:	463e                	lw	a2,204(sp)
   12970:	844e                	mv	s0,s3
   12972:	bc1d                	j	123a8 <_vfprintf_r+0x87a>
   12974:	00194883          	lbu	a7,1(s2)
   12978:	200cec93          	ori	s9,s9,512
   1297c:	0905                	addi	s2,s2,1
   1297e:	ad2ff06f          	j	11c50 <_vfprintf_r+0x122>
   12982:	00194883          	lbu	a7,1(s2)
   12986:	020cec93          	ori	s9,s9,32
   1298a:	0905                	addi	s2,s2,1
   1298c:	ac4ff06f          	j	11c50 <_vfprintf_r+0x122>
   12990:	4799                	li	a5,6
   12992:	8b56                	mv	s6,s5
   12994:	6d57e063          	bltu	a5,s5,13054 <_vfprintf_r+0x1526>
   12998:	67ed                	lui	a5,0x1b
   1299a:	8dda                	mv	s11,s6
   1299c:	ca62                	sw	s8,20(sp)
   1299e:	aac78d13          	addi	s10,a5,-1364 # 1aaac <__clzsi2+0x112>
   129a2:	afeff06f          	j	11ca0 <_vfprintf_r+0x172>
   129a6:	686d                	lui	a6,0x1b
   129a8:	45c1                	li	a1,16
   129aa:	472e                	lw	a4,200(sp)
   129ac:	d7880813          	addi	a6,a6,-648 # 1ad78 <zeroes.0>
   129b0:	4755db63          	bge	a1,s5,12e26 <_vfprintf_r+0x12f8>
   129b4:	87a2                	mv	a5,s0
   129b6:	4c41                	li	s8,16
   129b8:	4b1d                	li	s6,7
   129ba:	8442                	mv	s0,a6
   129bc:	a021                	j	129c4 <_vfprintf_r+0xe96>
   129be:	1ac1                	addi	s5,s5,-16
   129c0:	475c5163          	bge	s8,s5,12e22 <_vfprintf_r+0x12f4>
   129c4:	0641                	addi	a2,a2,16
   129c6:	0705                	addi	a4,a4,1
   129c8:	c380                	sw	s0,0(a5)
   129ca:	0187a223          	sw	s8,4(a5)
   129ce:	c7b2                	sw	a2,204(sp)
   129d0:	c5ba                	sw	a4,200(sp)
   129d2:	07a1                	addi	a5,a5,8
   129d4:	feeb55e3          	bge	s6,a4,129be <_vfprintf_r+0xe90>
   129d8:	4522                	lw	a0,8(sp)
   129da:	01d0                	addi	a2,sp,196
   129dc:	85a6                	mv	a1,s1
   129de:	649000ef          	jal	13826 <__sprint_r>
   129e2:	b8051ce3          	bnez	a0,1257a <_vfprintf_r+0xa4c>
   129e6:	463e                	lw	a2,204(sp)
   129e8:	472e                	lw	a4,200(sp)
   129ea:	87ce                	mv	a5,s3
   129ec:	bfc9                	j	129be <_vfprintf_r+0xe90>
   129ee:	5742                	lw	a4,48(sp)
   129f0:	57b2                	lw	a5,44(sp)
   129f2:	459d                	li	a1,7
   129f4:	c018                	sw	a4,0(s0)
   129f6:	472e                	lw	a4,200(sp)
   129f8:	963e                	add	a2,a2,a5
   129fa:	c05c                	sw	a5,4(s0)
   129fc:	0705                	addi	a4,a4,1
   129fe:	c7b2                	sw	a2,204(sp)
   12a00:	c5ba                	sw	a4,200(sp)
   12a02:	0421                	addi	s0,s0,8
   12a04:	d2e5d1e3          	bge	a1,a4,12726 <_vfprintf_r+0xbf8>
   12a08:	4522                	lw	a0,8(sp)
   12a0a:	01d0                	addi	a2,sp,196
   12a0c:	85a6                	mv	a1,s1
   12a0e:	619000ef          	jal	13826 <__sprint_r>
   12a12:	b60514e3          	bnez	a0,1257a <_vfprintf_r+0xa4c>
   12a16:	5aba                	lw	s5,172(sp)
   12a18:	463e                	lw	a2,204(sp)
   12a1a:	844e                	mv	s0,s3
   12a1c:	b329                	j	12726 <_vfprintf_r+0xbf8>
   12a1e:	07800793          	li	a5,120
   12a22:	03000713          	li	a4,48
   12a26:	0ae10423          	sb	a4,168(sp)
   12a2a:	0af104a3          	sb	a5,169(sp)
   12a2e:	06300713          	li	a4,99
   12a32:	c802                	sw	zero,16(sp)
   12a34:	002cec93          	ori	s9,s9,2
   12a38:	12c10d13          	addi	s10,sp,300
   12a3c:	d5575c63          	bge	a4,s5,11f94 <_vfprintf_r+0x466>
   12a40:	4522                	lw	a0,8(sp)
   12a42:	001a8593          	addi	a1,s5,1
   12a46:	c846                	sw	a7,16(sp)
   12a48:	f8bfd0ef          	jal	109d2 <_malloc_r>
   12a4c:	48c2                	lw	a7,16(sp)
   12a4e:	8d2a                	mv	s10,a0
   12a50:	460504e3          	beqz	a0,136b8 <_vfprintf_r+0x1b8a>
   12a54:	c82a                	sw	a0,16(sp)
   12a56:	d3eff06f          	j	11f94 <_vfprintf_r+0x466>
   12a5a:	4522                	lw	a0,8(sp)
   12a5c:	09010b13          	addi	s6,sp,144
   12a60:	1178                	addi	a4,sp,172
   12a62:	0bc10813          	addi	a6,sp,188
   12a66:	191c                	addi	a5,sp,176
   12a68:	86d6                	mv	a3,s5
   12a6a:	4609                	li	a2,2
   12a6c:	85da                	mv	a1,s6
   12a6e:	d446                	sw	a7,40(sp)
   12a70:	c97e                	sw	t6,144(sp)
   12a72:	d27e                	sw	t6,36(sp)
   12a74:	cb7a                	sw	t5,148(sp)
   12a76:	d07a                	sw	t5,32(sp)
   12a78:	cd76                	sw	t4,152(sp)
   12a7a:	ce76                	sw	t4,28(sp)
   12a7c:	cf62                	sw	s8,156(sp)
   12a7e:	42d020ef          	jal	156aa <_ldtoa_r>
   12a82:	001cf713          	andi	a4,s9,1
   12a86:	4ef2                	lw	t4,28(sp)
   12a88:	5f02                	lw	t5,32(sp)
   12a8a:	5f92                	lw	t6,36(sp)
   12a8c:	58a2                	lw	a7,40(sp)
   12a8e:	8d2a                	mv	s10,a0
   12a90:	62071563          	bnez	a4,130ba <_vfprintf_r+0x158c>
   12a94:	57ba                	lw	a5,172(sp)
   12a96:	ce3e                	sw	a5,28(sp)
   12a98:	57fa                	lw	a5,188(sp)
   12a9a:	8f89                	sub	a5,a5,a0
   12a9c:	d03e                	sw	a5,32(sp)
   12a9e:	47f2                	lw	a5,28(sp)
   12aa0:	5775                	li	a4,-3
   12aa2:	00e7c463          	blt	a5,a4,12aaa <_vfprintf_r+0xf7c>
   12aa6:	0efadde3          	bge	s5,a5,133a0 <_vfprintf_r+0x1872>
   12aaa:	47f2                	lw	a5,28(sp)
   12aac:	18f9                	addi	a7,a7,-2
   12aae:	fff78713          	addi	a4,a5,-1
   12ab2:	d73a                	sw	a4,172(sp)
   12ab4:	0ff8f693          	zext.b	a3,a7
   12ab8:	4601                	li	a2,0
   12aba:	0ad10a23          	sb	a3,180(sp)
   12abe:	02b00693          	li	a3,43
   12ac2:	00075763          	bgez	a4,12ad0 <_vfprintf_r+0xfa2>
   12ac6:	47f2                	lw	a5,28(sp)
   12ac8:	4705                	li	a4,1
   12aca:	02d00693          	li	a3,45
   12ace:	8f1d                	sub	a4,a4,a5
   12ad0:	0ad10aa3          	sb	a3,181(sp)
   12ad4:	46a5                	li	a3,9
   12ad6:	2ae6d3e3          	bge	a3,a4,1357c <_vfprintf_r+0x1a4e>
   12ada:	0c310813          	addi	a6,sp,195
   12ade:	85c2                	mv	a1,a6
   12ae0:	4529                	li	a0,10
   12ae2:	06300f13          	li	t5,99
   12ae6:	02a767b3          	rem	a5,a4,a0
   12aea:	862e                	mv	a2,a1
   12aec:	86ba                	mv	a3,a4
   12aee:	15fd                	addi	a1,a1,-1
   12af0:	03078793          	addi	a5,a5,48
   12af4:	fef60fa3          	sb	a5,-1(a2)
   12af8:	02a74733          	div	a4,a4,a0
   12afc:	fedf45e3          	blt	t5,a3,12ae6 <_vfprintf_r+0xfb8>
   12b00:	03070713          	addi	a4,a4,48
   12b04:	ffe60693          	addi	a3,a2,-2
   12b08:	fee58fa3          	sb	a4,-1(a1)
   12b0c:	3706fee3          	bgeu	a3,a6,13688 <_vfprintf_r+0x1b5a>
   12b10:	0b610713          	addi	a4,sp,182
   12b14:	0006c783          	lbu	a5,0(a3)
   12b18:	0685                	addi	a3,a3,1
   12b1a:	0705                	addi	a4,a4,1
   12b1c:	fef70fa3          	sb	a5,-1(a4)
   12b20:	ff069ae3          	bne	a3,a6,12b14 <_vfprintf_r+0xfe6>
   12b24:	0b1c                	addi	a5,sp,400
   12b26:	40c78733          	sub	a4,a5,a2
   12b2a:	f3770793          	addi	a5,a4,-201
   12b2e:	c0be                	sw	a5,64(sp)
   12b30:	5782                	lw	a5,32(sp)
   12b32:	4686                	lw	a3,64(sp)
   12b34:	4705                	li	a4,1
   12b36:	00d78b33          	add	s6,a5,a3
   12b3a:	26f75ae3          	bge	a4,a5,135ae <_vfprintf_r+0x1a80>
   12b3e:	57b2                	lw	a5,44(sp)
   12b40:	9b3e                	add	s6,s6,a5
   12b42:	fffb4693          	not	a3,s6
   12b46:	bffcfe13          	andi	t3,s9,-1025
   12b4a:	86fd                	srai	a3,a3,0x1f
   12b4c:	100e6793          	ori	a5,t3,256
   12b50:	c6be                	sw	a5,76(sp)
   12b52:	00db7db3          	and	s11,s6,a3
   12b56:	d402                	sw	zero,40(sp)
   12b58:	d202                	sw	zero,36(sp)
   12b5a:	ce02                	sw	zero,28(sp)
   12b5c:	57e2                	lw	a5,56(sp)
   12b5e:	020788e3          	beqz	a5,1338e <_vfprintf_r+0x1860>
   12b62:	02d00713          	li	a4,45
   12b66:	4cb6                	lw	s9,76(sp)
   12b68:	0ae103a3          	sb	a4,167(sp)
   12b6c:	4a81                	li	s5,0
   12b6e:	0d85                	addi	s11,s11,1
   12b70:	93aff06f          	j	11caa <_vfprintf_r+0x17c>
   12b74:	4752                	lw	a4,20(sp)
   12b76:	010cf793          	andi	a5,s9,16
   12b7a:	00072b03          	lw	s6,0(a4)
   12b7e:	0711                	addi	a4,a4,4
   12b80:	ca3a                	sw	a4,20(sp)
   12b82:	e7a9                	bnez	a5,12bcc <_vfprintf_r+0x109e>
   12b84:	040cf793          	andi	a5,s9,64
   12b88:	cf95                	beqz	a5,12bc4 <_vfprintf_r+0x1096>
   12b8a:	0b42                	slli	s6,s6,0x10
   12b8c:	010b5b13          	srli	s6,s6,0x10
   12b90:	4d81                	li	s11,0
   12b92:	bb69                	j	1292c <_vfprintf_r+0xdfe>
   12b94:	4522                	lw	a0,8(sp)
   12b96:	01d0                	addi	a2,sp,196
   12b98:	85a6                	mv	a1,s1
   12b9a:	48d000ef          	jal	13826 <__sprint_r>
   12b9e:	9c051ee3          	bnez	a0,1257a <_vfprintf_r+0xa4c>
   12ba2:	4c3e                	lw	s8,204(sp)
   12ba4:	4aae                	lw	s5,200(sp)
   12ba6:	8b4e                	mv	s6,s3
   12ba8:	c6eff06f          	j	12016 <_vfprintf_r+0x4e8>
   12bac:	4522                	lw	a0,8(sp)
   12bae:	01d0                	addi	a2,sp,196
   12bb0:	85a6                	mv	a1,s1
   12bb2:	475000ef          	jal	13826 <__sprint_r>
   12bb6:	9c0512e3          	bnez	a0,1257a <_vfprintf_r+0xa4c>
   12bba:	4c3e                	lw	s8,204(sp)
   12bbc:	4aae                	lw	s5,200(sp)
   12bbe:	8b4e                	mv	s6,s3
   12bc0:	c72ff06f          	j	12032 <_vfprintf_r+0x504>
   12bc4:	200cf793          	andi	a5,s9,512
   12bc8:	4a079763          	bnez	a5,13076 <_vfprintf_r+0x1548>
   12bcc:	4d81                	li	s11,0
   12bce:	bbb9                	j	1292c <_vfprintf_r+0xdfe>
   12bd0:	ccccd837          	lui	a6,0xccccd
   12bd4:	ccccdcb7          	lui	s9,0xccccd
   12bd8:	5772                	lw	a4,60(sp)
   12bda:	400eff13          	andi	t5,t4,1024
   12bde:	4601                	li	a2,0
   12be0:	0b0c                	addi	a1,sp,400
   12be2:	4e15                	li	t3,5
   12be4:	ccd80813          	addi	a6,a6,-819 # cccccccd <__BSS_END__+0xcccb0001>
   12be8:	cccc8c93          	addi	s9,s9,-820 # cccccccc <__BSS_END__+0xcccb0000>
   12bec:	0ff00c13          	li	s8,255
   12bf0:	a081                	j	12c30 <_vfprintf_r+0x1102>
   12bf2:	016d37b3          	sltu	a5,s10,s6
   12bf6:	97ea                	add	a5,a5,s10
   12bf8:	03c7f7b3          	remu	a5,a5,t3
   12bfc:	40fb07b3          	sub	a5,s6,a5
   12c00:	00fb35b3          	sltu	a1,s6,a5
   12c04:	40bd85b3          	sub	a1,s11,a1
   12c08:	03978333          	mul	t1,a5,s9
   12c0c:	030585b3          	mul	a1,a1,a6
   12c10:	0307b533          	mulhu	a0,a5,a6
   12c14:	959a                	add	a1,a1,t1
   12c16:	030787b3          	mul	a5,a5,a6
   12c1a:	95aa                	add	a1,a1,a0
   12c1c:	01f59513          	slli	a0,a1,0x1f
   12c20:	8185                	srli	a1,a1,0x1
   12c22:	8385                	srli	a5,a5,0x1
   12c24:	8fc9                	or	a5,a5,a0
   12c26:	7c0d8963          	beqz	s11,133f8 <_vfprintf_r+0x18ca>
   12c2a:	8dae                	mv	s11,a1
   12c2c:	8b3e                	mv	s6,a5
   12c2e:	85b6                	mv	a1,a3
   12c30:	01bb0d33          	add	s10,s6,s11
   12c34:	016d37b3          	sltu	a5,s10,s6
   12c38:	97ea                	add	a5,a5,s10
   12c3a:	03c7f7b3          	remu	a5,a5,t3
   12c3e:	fff58693          	addi	a3,a1,-1
   12c42:	0605                	addi	a2,a2,1
   12c44:	40fb07b3          	sub	a5,s6,a5
   12c48:	00fb3533          	sltu	a0,s6,a5
   12c4c:	40ad8533          	sub	a0,s11,a0
   12c50:	0307b333          	mulhu	t1,a5,a6
   12c54:	03050533          	mul	a0,a0,a6
   12c58:	030787b3          	mul	a5,a5,a6
   12c5c:	951a                	add	a0,a0,t1
   12c5e:	057e                	slli	a0,a0,0x1f
   12c60:	8385                	srli	a5,a5,0x1
   12c62:	8fc9                	or	a5,a5,a0
   12c64:	00279513          	slli	a0,a5,0x2
   12c68:	97aa                	add	a5,a5,a0
   12c6a:	0786                	slli	a5,a5,0x1
   12c6c:	40fb07b3          	sub	a5,s6,a5
   12c70:	03078793          	addi	a5,a5,48
   12c74:	fef58fa3          	sb	a5,-1(a1)
   12c78:	f60f0de3          	beqz	t5,12bf2 <_vfprintf_r+0x10c4>
   12c7c:	00074783          	lbu	a5,0(a4)
   12c80:	f6f619e3          	bne	a2,a5,12bf2 <_vfprintf_r+0x10c4>
   12c84:	f78607e3          	beq	a2,s8,12bf2 <_vfprintf_r+0x10c4>
   12c88:	300d9e63          	bnez	s11,12fa4 <_vfprintf_r+0x1476>
   12c8c:	47a5                	li	a5,9
   12c8e:	3167eb63          	bltu	a5,s6,12fa4 <_vfprintf_r+0x1476>
   12c92:	8d36                	mv	s10,a3
   12c94:	0b1c                	addi	a5,sp,400
   12c96:	d032                	sw	a2,32(sp)
   12c98:	de3a                	sw	a4,60(sp)
   12c9a:	41a78b33          	sub	s6,a5,s10
   12c9e:	8cf6                	mv	s9,t4
   12ca0:	9d2ff06f          	j	11e72 <_vfprintf_r+0x344>
   12ca4:	472e                	lw	a4,200(sp)
   12ca6:	65ed                	lui	a1,0x1b
   12ca8:	ab458593          	addi	a1,a1,-1356 # 1aab4 <__clzsi2+0x11a>
   12cac:	c00c                	sw	a1,0(s0)
   12cae:	0605                	addi	a2,a2,1
   12cb0:	4585                	li	a1,1
   12cb2:	0705                	addi	a4,a4,1
   12cb4:	c04c                	sw	a1,4(s0)
   12cb6:	c7b2                	sw	a2,204(sp)
   12cb8:	c5ba                	sw	a4,200(sp)
   12cba:	459d                	li	a1,7
   12cbc:	0421                	addi	s0,s0,8
   12cbe:	36e5c163          	blt	a1,a4,13020 <_vfprintf_r+0x14f2>
   12cc2:	e569                	bnez	a0,12d8c <_vfprintf_r+0x125e>
   12cc4:	5782                	lw	a5,32(sp)
   12cc6:	001cf713          	andi	a4,s9,1
   12cca:	8f5d                	or	a4,a4,a5
   12ccc:	e319                	bnez	a4,12cd2 <_vfprintf_r+0x11a4>
   12cce:	86aff06f          	j	11d38 <_vfprintf_r+0x20a>
   12cd2:	5742                	lw	a4,48(sp)
   12cd4:	57b2                	lw	a5,44(sp)
   12cd6:	459d                	li	a1,7
   12cd8:	c018                	sw	a4,0(s0)
   12cda:	472e                	lw	a4,200(sp)
   12cdc:	963e                	add	a2,a2,a5
   12cde:	c05c                	sw	a5,4(s0)
   12ce0:	0705                	addi	a4,a4,1
   12ce2:	c7b2                	sw	a2,204(sp)
   12ce4:	c5ba                	sw	a4,200(sp)
   12ce6:	3ae5cf63          	blt	a1,a4,130a4 <_vfprintf_r+0x1576>
   12cea:	0421                	addi	s0,s0,8
   12cec:	a87d                	j	12daa <_vfprintf_r+0x127c>
   12cee:	4522                	lw	a0,8(sp)
   12cf0:	d12fe0ef          	jal	11202 <__sinit>
   12cf4:	e77fe06f          	j	11b6a <_vfprintf_r+0x3c>
   12cf8:	4522                	lw	a0,8(sp)
   12cfa:	01d0                	addi	a2,sp,196
   12cfc:	85a6                	mv	a1,s1
   12cfe:	329000ef          	jal	13826 <__sprint_r>
   12d02:	86051ce3          	bnez	a0,1257a <_vfprintf_r+0xa4c>
   12d06:	463e                	lw	a2,204(sp)
   12d08:	844e                	mv	s0,s3
   12d0a:	e78ff06f          	j	12382 <_vfprintf_r+0x854>
   12d0e:	886a                	mv	a6,s10
   12d10:	01042023          	sw	a6,0(s0)
   12d14:	01542223          	sw	s5,4(s0)
   12d18:	9656                	add	a2,a2,s5
   12d1a:	0785                	addi	a5,a5,1
   12d1c:	c7b2                	sw	a2,204(sp)
   12d1e:	c5be                	sw	a5,200(sp)
   12d20:	471d                	li	a4,7
   12d22:	00f74463          	blt	a4,a5,12d2a <_vfprintf_r+0x11fc>
   12d26:	810ff06f          	j	11d36 <_vfprintf_r+0x208>
   12d2a:	b70ff06f          	j	1209a <_vfprintf_r+0x56c>
   12d2e:	47ce                	lw	a5,208(sp)
   12d30:	010c                	addi	a1,sp,128
   12d32:	0908                	addi	a0,sp,144
   12d34:	c93e                	sw	a5,144(sp)
   12d36:	47de                	lw	a5,212(sp)
   12d38:	c102                	sw	zero,128(sp)
   12d3a:	c302                	sw	zero,132(sp)
   12d3c:	cb3e                	sw	a5,148(sp)
   12d3e:	47ee                	lw	a5,216(sp)
   12d40:	c502                	sw	zero,136(sp)
   12d42:	c702                	sw	zero,140(sp)
   12d44:	cd3e                	sw	a5,152(sp)
   12d46:	47fe                	lw	a5,220(sp)
   12d48:	cf3e                	sw	a5,156(sp)
   12d4a:	1b9050ef          	jal	18702 <__letf2>
   12d4e:	48c2                	lw	a7,16(sp)
   12d50:	6a054863          	bltz	a0,13400 <_vfprintf_r+0x18d2>
   12d54:	0a714703          	lbu	a4,167(sp)
   12d58:	04700793          	li	a5,71
   12d5c:	2d17dd63          	bge	a5,a7,13036 <_vfprintf_r+0x1508>
   12d60:	67ed                	lui	a5,0x1b
   12d62:	a7878d13          	addi	s10,a5,-1416 # 1aa78 <__clzsi2+0xde>
   12d66:	c802                	sw	zero,16(sp)
   12d68:	d402                	sw	zero,40(sp)
   12d6a:	d202                	sw	zero,36(sp)
   12d6c:	ce02                	sw	zero,28(sp)
   12d6e:	f7fcfc93          	andi	s9,s9,-129
   12d72:	4d8d                	li	s11,3
   12d74:	4b0d                	li	s6,3
   12d76:	4a81                	li	s5,0
   12d78:	90071963          	bnez	a4,11e8a <_vfprintf_r+0x35c>
   12d7c:	f2ffe06f          	j	11caa <_vfprintf_r+0x17c>
   12d80:	47d2                	lw	a5,20(sp)
   12d82:	4732                	lw	a4,12(sp)
   12d84:	439c                	lw	a5,0(a5)
   12d86:	c398                	sw	a4,0(a5)
   12d88:	d08ff06f          	j	12290 <_vfprintf_r+0x762>
   12d8c:	5742                	lw	a4,48(sp)
   12d8e:	57b2                	lw	a5,44(sp)
   12d90:	459d                	li	a1,7
   12d92:	c018                	sw	a4,0(s0)
   12d94:	472e                	lw	a4,200(sp)
   12d96:	963e                	add	a2,a2,a5
   12d98:	c05c                	sw	a5,4(s0)
   12d9a:	0705                	addi	a4,a4,1
   12d9c:	c7b2                	sw	a2,204(sp)
   12d9e:	c5ba                	sw	a4,200(sp)
   12da0:	0421                	addi	s0,s0,8
   12da2:	30e5c163          	blt	a1,a4,130a4 <_vfprintf_r+0x1576>
   12da6:	74054963          	bltz	a0,134f8 <_vfprintf_r+0x19ca>
   12daa:	5782                	lw	a5,32(sp)
   12dac:	0705                	addi	a4,a4,1
   12dae:	01a42023          	sw	s10,0(s0)
   12db2:	963e                	add	a2,a2,a5
   12db4:	c05c                	sw	a5,4(s0)
   12db6:	c7b2                	sw	a2,204(sp)
   12db8:	c5ba                	sw	a4,200(sp)
   12dba:	479d                	li	a5,7
   12dbc:	00e7c463          	blt	a5,a4,12dc4 <_vfprintf_r+0x1296>
   12dc0:	f77fe06f          	j	11d36 <_vfprintf_r+0x208>
   12dc4:	ad6ff06f          	j	1209a <_vfprintf_r+0x56c>
   12dc8:	856a                	mv	a0,s10
   12dca:	dc46                	sw	a7,56(sp)
   12dcc:	939fe0ef          	jal	11704 <strlen>
   12dd0:	0a714703          	lbu	a4,167(sp)
   12dd4:	fff54693          	not	a3,a0
   12dd8:	86fd                	srai	a3,a3,0x1f
   12dda:	ca62                	sw	s8,20(sp)
   12ddc:	c802                	sw	zero,16(sp)
   12dde:	d402                	sw	zero,40(sp)
   12de0:	d202                	sw	zero,36(sp)
   12de2:	ce02                	sw	zero,28(sp)
   12de4:	58e2                	lw	a7,56(sp)
   12de6:	8b2a                	mv	s6,a0
   12de8:	00d57db3          	and	s11,a0,a3
   12dec:	4a81                	li	s5,0
   12dee:	c319                	beqz	a4,12df4 <_vfprintf_r+0x12c6>
   12df0:	89aff06f          	j	11e8a <_vfprintf_r+0x35c>
   12df4:	eb7fe06f          	j	11caa <_vfprintf_r+0x17c>
   12df8:	884a                	mv	a6,s2
   12dfa:	4972                	lw	s2,28(sp)
   12dfc:	9c22                	add	s8,s8,s0
   12dfe:	0a85                	addi	s5,s5,1
   12e00:	010b2023          	sw	a6,0(s6)
   12e04:	a64ff06f          	j	12068 <_vfprintf_r+0x53a>
   12e08:	47fe                	lw	a5,220(sp)
   12e0a:	2607cf63          	bltz	a5,13088 <_vfprintf_r+0x155a>
   12e0e:	0a714703          	lbu	a4,167(sp)
   12e12:	04700793          	li	a5,71
   12e16:	6117ca63          	blt	a5,a7,1342a <_vfprintf_r+0x18fc>
   12e1a:	67ed                	lui	a5,0x1b
   12e1c:	a7c78d13          	addi	s10,a5,-1412 # 1aa7c <__clzsi2+0xe2>
   12e20:	b799                	j	12d66 <_vfprintf_r+0x1238>
   12e22:	8822                	mv	a6,s0
   12e24:	843e                	mv	s0,a5
   12e26:	9656                	add	a2,a2,s5
   12e28:	0705                	addi	a4,a4,1
   12e2a:	01042023          	sw	a6,0(s0)
   12e2e:	01542223          	sw	s5,4(s0)
   12e32:	c7b2                	sw	a2,204(sp)
   12e34:	c5ba                	sw	a4,200(sp)
   12e36:	459d                	li	a1,7
   12e38:	0421                	addi	s0,s0,8
   12e3a:	8ce5d7e3          	bge	a1,a4,12708 <_vfprintf_r+0xbda>
   12e3e:	4522                	lw	a0,8(sp)
   12e40:	01d0                	addi	a2,sp,196
   12e42:	85a6                	mv	a1,s1
   12e44:	1e3000ef          	jal	13826 <__sprint_r>
   12e48:	f2051963          	bnez	a0,1257a <_vfprintf_r+0xa4c>
   12e4c:	463e                	lw	a2,204(sp)
   12e4e:	844e                	mv	s0,s3
   12e50:	b865                	j	12708 <_vfprintf_r+0xbda>
   12e52:	5782                	lw	a5,32(sp)
   12e54:	5b12                	lw	s6,36(sp)
   12e56:	68ed                	lui	a7,0x1b
   12e58:	97ea                	add	a5,a5,s10
   12e5a:	dc4a                	sw	s2,56(sp)
   12e5c:	c6e6                	sw	s9,76(sp)
   12e5e:	c8de                	sw	s7,80(sp)
   12e60:	d26e                	sw	s11,36(sp)
   12e62:	5da2                	lw	s11,40(sp)
   12e64:	d46a                	sw	s10,40(sp)
   12e66:	5cf2                	lw	s9,60(sp)
   12e68:	8d62                	mv	s10,s8
   12e6a:	4922                	lw	s2,8(sp)
   12e6c:	4c26                	lw	s8,72(sp)
   12e6e:	481d                	li	a6,7
   12e70:	4741                	li	a4,16
   12e72:	d7888a93          	addi	s5,a7,-648 # 1ad78 <zeroes.0>
   12e76:	85a2                	mv	a1,s0
   12e78:	8bbe                	mv	s7,a5
   12e7a:	07605363          	blez	s6,12ee0 <_vfprintf_r+0x13b2>
   12e7e:	0fb05663          	blez	s11,12f6a <_vfprintf_r+0x143c>
   12e82:	1dfd                	addi	s11,s11,-1
   12e84:	4796                	lw	a5,68(sp)
   12e86:	9662                	add	a2,a2,s8
   12e88:	0185a223          	sw	s8,4(a1)
   12e8c:	c19c                	sw	a5,0(a1)
   12e8e:	47ae                	lw	a5,200(sp)
   12e90:	c7b2                	sw	a2,204(sp)
   12e92:	05a1                	addi	a1,a1,8
   12e94:	0785                	addi	a5,a5,1
   12e96:	c5be                	sw	a5,200(sp)
   12e98:	0cf84c63          	blt	a6,a5,12f70 <_vfprintf_r+0x1442>
   12e9c:	000cc683          	lbu	a3,0(s9)
   12ea0:	41ab8433          	sub	s0,s7,s10
   12ea4:	0086d363          	bge	a3,s0,12eaa <_vfprintf_r+0x137c>
   12ea8:	8436                	mv	s0,a3
   12eaa:	00805f63          	blez	s0,12ec8 <_vfprintf_r+0x139a>
   12eae:	46ae                	lw	a3,200(sp)
   12eb0:	9622                	add	a2,a2,s0
   12eb2:	01a5a023          	sw	s10,0(a1)
   12eb6:	0685                	addi	a3,a3,1
   12eb8:	c1c0                	sw	s0,4(a1)
   12eba:	c7b2                	sw	a2,204(sp)
   12ebc:	c5b6                	sw	a3,200(sp)
   12ebe:	0cd84563          	blt	a6,a3,12f88 <_vfprintf_r+0x145a>
   12ec2:	000cc683          	lbu	a3,0(s9)
   12ec6:	05a1                	addi	a1,a1,8
   12ec8:	fff44513          	not	a0,s0
   12ecc:	857d                	srai	a0,a0,0x1f
   12ece:	00a477b3          	and	a5,s0,a0
   12ed2:	40f68433          	sub	s0,a3,a5
   12ed6:	02804763          	bgtz	s0,12f04 <_vfprintf_r+0x13d6>
   12eda:	9d36                	add	s10,s10,a3
   12edc:	fb6041e3          	bgtz	s6,12e7e <_vfprintf_r+0x1350>
   12ee0:	fbb041e3          	bgtz	s11,12e82 <_vfprintf_r+0x1354>
   12ee4:	5782                	lw	a5,32(sp)
   12ee6:	8c6a                	mv	s8,s10
   12ee8:	5d22                	lw	s10,40(sp)
   12eea:	de66                	sw	s9,60(sp)
   12eec:	5962                	lw	s2,56(sp)
   12eee:	00fd0733          	add	a4,s10,a5
   12ef2:	4cb6                	lw	s9,76(sp)
   12ef4:	4bc6                	lw	s7,80(sp)
   12ef6:	5d92                	lw	s11,36(sp)
   12ef8:	842e                	mv	s0,a1
   12efa:	81877ee3          	bgeu	a4,s8,12716 <_vfprintf_r+0xbe8>
   12efe:	8c3a                	mv	s8,a4
   12f00:	817ff06f          	j	12716 <_vfprintf_r+0xbe8>
   12f04:	6f6d                	lui	t5,0x1b
   12f06:	46ae                	lw	a3,200(sp)
   12f08:	d78f0f13          	addi	t5,t5,-648 # 1ad78 <zeroes.0>
   12f0c:	04875163          	bge	a4,s0,12f4e <_vfprintf_r+0x1420>
   12f10:	ce56                	sw	s5,28(sp)
   12f12:	a021                	j	12f1a <_vfprintf_r+0x13ec>
   12f14:	1441                	addi	s0,s0,-16
   12f16:	02875b63          	bge	a4,s0,12f4c <_vfprintf_r+0x141e>
   12f1a:	0641                	addi	a2,a2,16
   12f1c:	0685                	addi	a3,a3,1
   12f1e:	0155a023          	sw	s5,0(a1)
   12f22:	c1d8                	sw	a4,4(a1)
   12f24:	c7b2                	sw	a2,204(sp)
   12f26:	c5b6                	sw	a3,200(sp)
   12f28:	05a1                	addi	a1,a1,8
   12f2a:	fed855e3          	bge	a6,a3,12f14 <_vfprintf_r+0x13e6>
   12f2e:	01d0                	addi	a2,sp,196
   12f30:	85a6                	mv	a1,s1
   12f32:	854a                	mv	a0,s2
   12f34:	0f3000ef          	jal	13826 <__sprint_r>
   12f38:	e4051163          	bnez	a0,1257a <_vfprintf_r+0xa4c>
   12f3c:	4741                	li	a4,16
   12f3e:	1441                	addi	s0,s0,-16
   12f40:	463e                	lw	a2,204(sp)
   12f42:	46ae                	lw	a3,200(sp)
   12f44:	85ce                	mv	a1,s3
   12f46:	481d                	li	a6,7
   12f48:	fc8749e3          	blt	a4,s0,12f1a <_vfprintf_r+0x13ec>
   12f4c:	4f72                	lw	t5,28(sp)
   12f4e:	9622                	add	a2,a2,s0
   12f50:	0685                	addi	a3,a3,1
   12f52:	01e5a023          	sw	t5,0(a1)
   12f56:	c1c0                	sw	s0,4(a1)
   12f58:	c7b2                	sw	a2,204(sp)
   12f5a:	c5b6                	sw	a3,200(sp)
   12f5c:	48d84063          	blt	a6,a3,133dc <_vfprintf_r+0x18ae>
   12f60:	000cc683          	lbu	a3,0(s9)
   12f64:	05a1                	addi	a1,a1,8
   12f66:	9d36                	add	s10,s10,a3
   12f68:	bf95                	j	12edc <_vfprintf_r+0x13ae>
   12f6a:	1cfd                	addi	s9,s9,-1
   12f6c:	1b7d                	addi	s6,s6,-1
   12f6e:	bf19                	j	12e84 <_vfprintf_r+0x1356>
   12f70:	01d0                	addi	a2,sp,196
   12f72:	85a6                	mv	a1,s1
   12f74:	854a                	mv	a0,s2
   12f76:	0b1000ef          	jal	13826 <__sprint_r>
   12f7a:	e0051063          	bnez	a0,1257a <_vfprintf_r+0xa4c>
   12f7e:	463e                	lw	a2,204(sp)
   12f80:	85ce                	mv	a1,s3
   12f82:	4741                	li	a4,16
   12f84:	481d                	li	a6,7
   12f86:	bf19                	j	12e9c <_vfprintf_r+0x136e>
   12f88:	01d0                	addi	a2,sp,196
   12f8a:	85a6                	mv	a1,s1
   12f8c:	854a                	mv	a0,s2
   12f8e:	099000ef          	jal	13826 <__sprint_r>
   12f92:	de051463          	bnez	a0,1257a <_vfprintf_r+0xa4c>
   12f96:	000cc683          	lbu	a3,0(s9)
   12f9a:	463e                	lw	a2,204(sp)
   12f9c:	85ce                	mv	a1,s3
   12f9e:	4741                	li	a4,16
   12fa0:	481d                	li	a6,7
   12fa2:	b71d                	j	12ec8 <_vfprintf_r+0x139a>
   12fa4:	47a6                	lw	a5,72(sp)
   12fa6:	4596                	lw	a1,68(sp)
   12fa8:	dc42                	sw	a6,56(sp)
   12faa:	8e9d                	sub	a3,a3,a5
   12fac:	863e                	mv	a2,a5
   12fae:	8536                	mv	a0,a3
   12fb0:	d47a                	sw	t5,40(sp)
   12fb2:	d276                	sw	t4,36(sp)
   12fb4:	d046                	sw	a7,32(sp)
   12fb6:	ce3a                	sw	a4,28(sp)
   12fb8:	c836                	sw	a3,16(sp)
   12fba:	10e020ef          	jal	150c8 <strncpy>
   12fbe:	016d37b3          	sltu	a5,s10,s6
   12fc2:	4615                	li	a2,5
   12fc4:	97ea                	add	a5,a5,s10
   12fc6:	02c7f7b3          	remu	a5,a5,a2
   12fca:	4772                	lw	a4,28(sp)
   12fcc:	ccccd337          	lui	t1,0xccccd
   12fd0:	ccccd537          	lui	a0,0xccccd
   12fd4:	00174583          	lbu	a1,1(a4)
   12fd8:	ccd30313          	addi	t1,t1,-819 # cccccccd <__BSS_END__+0xcccb0001>
   12fdc:	ccc50513          	addi	a0,a0,-820 # cccccccc <__BSS_END__+0xcccb0000>
   12fe0:	00b035b3          	snez	a1,a1
   12fe4:	972e                	add	a4,a4,a1
   12fe6:	46c2                	lw	a3,16(sp)
   12fe8:	5882                	lw	a7,32(sp)
   12fea:	5e92                	lw	t4,36(sp)
   12fec:	5f22                	lw	t5,40(sp)
   12fee:	5862                	lw	a6,56(sp)
   12ff0:	4601                	li	a2,0
   12ff2:	4e15                	li	t3,5
   12ff4:	40fb07b3          	sub	a5,s6,a5
   12ff8:	00fb35b3          	sltu	a1,s6,a5
   12ffc:	40bd85b3          	sub	a1,s11,a1
   13000:	02a78533          	mul	a0,a5,a0
   13004:	026585b3          	mul	a1,a1,t1
   13008:	0267bfb3          	mulhu	t6,a5,t1
   1300c:	95aa                	add	a1,a1,a0
   1300e:	02678533          	mul	a0,a5,t1
   13012:	95fe                	add	a1,a1,t6
   13014:	01f59793          	slli	a5,a1,0x1f
   13018:	8185                	srli	a1,a1,0x1
   1301a:	8105                	srli	a0,a0,0x1
   1301c:	8fc9                	or	a5,a5,a0
   1301e:	b131                	j	12c2a <_vfprintf_r+0x10fc>
   13020:	4522                	lw	a0,8(sp)
   13022:	01d0                	addi	a2,sp,196
   13024:	85a6                	mv	a1,s1
   13026:	001000ef          	jal	13826 <__sprint_r>
   1302a:	d4051863          	bnez	a0,1257a <_vfprintf_r+0xa4c>
   1302e:	553a                	lw	a0,172(sp)
   13030:	463e                	lw	a2,204(sp)
   13032:	844e                	mv	s0,s3
   13034:	b179                	j	12cc2 <_vfprintf_r+0x1194>
   13036:	67ed                	lui	a5,0x1b
   13038:	a7478d13          	addi	s10,a5,-1420 # 1aa74 <__clzsi2+0xda>
   1303c:	b32d                	j	12d66 <_vfprintf_r+0x1238>
   1303e:	4522                	lw	a0,8(sp)
   13040:	01d0                	addi	a2,sp,196
   13042:	85a6                	mv	a1,s1
   13044:	7e2000ef          	jal	13826 <__sprint_r>
   13048:	d2051963          	bnez	a0,1257a <_vfprintf_r+0xa4c>
   1304c:	463e                	lw	a2,204(sp)
   1304e:	844e                	mv	s0,s3
   13050:	ea4ff06f          	j	126f4 <_vfprintf_r+0xbc6>
   13054:	4b19                	li	s6,6
   13056:	b289                	j	12998 <_vfprintf_r+0xe6a>
   13058:	47d2                	lw	a5,20(sp)
   1305a:	4732                	lw	a4,12(sp)
   1305c:	439c                	lw	a5,0(a5)
   1305e:	00e79023          	sh	a4,0(a5)
   13062:	a2eff06f          	j	12290 <_vfprintf_r+0x762>
   13066:	0b62                	slli	s6,s6,0x18
   13068:	418b5b13          	srai	s6,s6,0x18
   1306c:	41fb5d93          	srai	s11,s6,0x1f
   13070:	87ee                	mv	a5,s11
   13072:	ddffe06f          	j	11e50 <_vfprintf_r+0x322>
   13076:	0ffb7b13          	zext.b	s6,s6
   1307a:	4d81                	li	s11,0
   1307c:	b845                	j	1292c <_vfprintf_r+0xdfe>
   1307e:	0ffb7b13          	zext.b	s6,s6
   13082:	4d81                	li	s11,0
   13084:	e2ffe06f          	j	11eb2 <_vfprintf_r+0x384>
   13088:	02d00793          	li	a5,45
   1308c:	0af103a3          	sb	a5,167(sp)
   13090:	02d00713          	li	a4,45
   13094:	bbbd                	j	12e12 <_vfprintf_r+0x12e4>
   13096:	4522                	lw	a0,8(sp)
   13098:	01d0                	addi	a2,sp,196
   1309a:	85a6                	mv	a1,s1
   1309c:	78a000ef          	jal	13826 <__sprint_r>
   130a0:	cdbfe06f          	j	11d7a <_vfprintf_r+0x24c>
   130a4:	4522                	lw	a0,8(sp)
   130a6:	01d0                	addi	a2,sp,196
   130a8:	85a6                	mv	a1,s1
   130aa:	2fb5                	jal	13826 <__sprint_r>
   130ac:	cc051763          	bnez	a0,1257a <_vfprintf_r+0xa4c>
   130b0:	553a                	lw	a0,172(sp)
   130b2:	463e                	lw	a2,204(sp)
   130b4:	472e                	lw	a4,200(sp)
   130b6:	844e                	mv	s0,s3
   130b8:	b1fd                	j	12da6 <_vfprintf_r+0x1278>
   130ba:	01550733          	add	a4,a0,s5
   130be:	04700613          	li	a2,71
   130c2:	010c                	addi	a1,sp,128
   130c4:	855a                	mv	a0,s6
   130c6:	d23a                	sw	a4,36(sp)
   130c8:	d032                	sw	a2,32(sp)
   130ca:	ce46                	sw	a7,28(sp)
   130cc:	c97e                	sw	t6,144(sp)
   130ce:	cb7a                	sw	t5,148(sp)
   130d0:	cd76                	sw	t4,152(sp)
   130d2:	cf62                	sw	s8,156(sp)
   130d4:	c102                	sw	zero,128(sp)
   130d6:	c302                	sw	zero,132(sp)
   130d8:	c502                	sw	zero,136(sp)
   130da:	c702                	sw	zero,140(sp)
   130dc:	44e050ef          	jal	1852a <__eqtf2>
   130e0:	48f2                	lw	a7,28(sp)
   130e2:	5602                	lw	a2,32(sp)
   130e4:	5712                	lw	a4,36(sp)
   130e6:	36050463          	beqz	a0,1344e <_vfprintf_r+0x1920>
   130ea:	57fa                	lw	a5,188(sp)
   130ec:	00e7fc63          	bgeu	a5,a4,13104 <_vfprintf_r+0x15d6>
   130f0:	03000593          	li	a1,48
   130f4:	00178693          	addi	a3,a5,1
   130f8:	df36                	sw	a3,188(sp)
   130fa:	00b78023          	sb	a1,0(a5)
   130fe:	57fa                	lw	a5,188(sp)
   13100:	fee7eae3          	bltu	a5,a4,130f4 <_vfprintf_r+0x15c6>
   13104:	573a                	lw	a4,172(sp)
   13106:	ce3a                	sw	a4,28(sp)
   13108:	41a787b3          	sub	a5,a5,s10
   1310c:	04700713          	li	a4,71
   13110:	d03e                	sw	a5,32(sp)
   13112:	98e606e3          	beq	a2,a4,12a9e <_vfprintf_r+0xf70>
   13116:	04600713          	li	a4,70
   1311a:	38e60663          	beq	a2,a4,134a6 <_vfprintf_r+0x1978>
   1311e:	47f2                	lw	a5,28(sp)
   13120:	fff78713          	addi	a4,a5,-1
   13124:	b279                	j	12ab2 <_vfprintf_r+0xf84>
   13126:	001a8693          	addi	a3,s5,1
   1312a:	4609                	li	a2,2
   1312c:	4522                	lw	a0,8(sp)
   1312e:	09010b13          	addi	s6,sp,144
   13132:	1178                	addi	a4,sp,172
   13134:	85da                	mv	a1,s6
   13136:	0bc10813          	addi	a6,sp,188
   1313a:	191c                	addi	a5,sp,176
   1313c:	c8c6                	sw	a7,80(sp)
   1313e:	d436                	sw	a3,40(sp)
   13140:	c97e                	sw	t6,144(sp)
   13142:	d27e                	sw	t6,36(sp)
   13144:	cb7a                	sw	t5,148(sp)
   13146:	d07a                	sw	t5,32(sp)
   13148:	cd76                	sw	t4,152(sp)
   1314a:	ce76                	sw	t4,28(sp)
   1314c:	cf62                	sw	s8,156(sp)
   1314e:	55c020ef          	jal	156aa <_ldtoa_r>
   13152:	48c6                	lw	a7,80(sp)
   13154:	56a2                	lw	a3,40(sp)
   13156:	04600593          	li	a1,70
   1315a:	fdf8f613          	andi	a2,a7,-33
   1315e:	4ef2                	lw	t4,28(sp)
   13160:	5f02                	lw	t5,32(sp)
   13162:	5f92                	lw	t6,36(sp)
   13164:	8d2a                	mv	s10,a0
   13166:	00d50733          	add	a4,a0,a3
   1316a:	54b61363          	bne	a2,a1,136b0 <_vfprintf_r+0x1b82>
   1316e:	000d4503          	lbu	a0,0(s10)
   13172:	03000593          	li	a1,48
   13176:	2eb50463          	beq	a0,a1,1345e <_vfprintf_r+0x1930>
   1317a:	56ba                	lw	a3,172(sp)
   1317c:	010c                	addi	a1,sp,128
   1317e:	9736                	add	a4,a4,a3
   13180:	b791                	j	130c4 <_vfprintf_r+0x1596>
   13182:	09010b13          	addi	s6,sp,144
   13186:	010c                	addi	a1,sp,128
   13188:	1170                	addi	a2,sp,172
   1318a:	855a                	mv	a0,s6
   1318c:	c0c6                	sw	a7,64(sp)
   1318e:	c17e                	sw	t6,128(sp)
   13190:	c37a                	sw	t5,132(sp)
   13192:	c576                	sw	t4,136(sp)
   13194:	ce2e                	sw	a1,28(sp)
   13196:	c762                	sw	s8,140(sp)
   13198:	3b6020ef          	jal	1554e <frexpl>
   1319c:	474a                	lw	a4,144(sp)
   1319e:	45f2                	lw	a1,28(sp)
   131a0:	1890                	addi	a2,sp,112
   131a2:	c13a                	sw	a4,128(sp)
   131a4:	475a                	lw	a4,148(sp)
   131a6:	855a                	mv	a0,s6
   131a8:	d882                	sw	zero,112(sp)
   131aa:	c33a                	sw	a4,132(sp)
   131ac:	476a                	lw	a4,152(sp)
   131ae:	da82                	sw	zero,116(sp)
   131b0:	dc82                	sw	zero,120(sp)
   131b2:	c53a                	sw	a4,136(sp)
   131b4:	477a                	lw	a4,156(sp)
   131b6:	c73a                	sw	a4,140(sp)
   131b8:	3ffc0737          	lui	a4,0x3ffc0
   131bc:	deba                	sw	a4,124(sp)
   131be:	630050ef          	jal	187ee <__multf3>
   131c2:	45f2                	lw	a1,28(sp)
   131c4:	4f4a                	lw	t5,144(sp)
   131c6:	4eda                	lw	t4,148(sp)
   131c8:	486a                	lw	a6,152(sp)
   131ca:	855a                	mv	a0,s6
   131cc:	d42e                	sw	a1,40(sp)
   131ce:	d27a                	sw	t5,36(sp)
   131d0:	d076                	sw	t4,32(sp)
   131d2:	ce42                	sw	a6,28(sp)
   131d4:	c102                	sw	zero,128(sp)
   131d6:	c302                	sw	zero,132(sp)
   131d8:	c502                	sw	zero,136(sp)
   131da:	c702                	sw	zero,140(sp)
   131dc:	34e050ef          	jal	1852a <__eqtf2>
   131e0:	4dfa                	lw	s11,156(sp)
   131e2:	4872                	lw	a6,28(sp)
   131e4:	5e82                	lw	t4,32(sp)
   131e6:	5f12                	lw	t5,36(sp)
   131e8:	55a2                	lw	a1,40(sp)
   131ea:	4886                	lw	a7,64(sp)
   131ec:	e119                	bnez	a0,131f2 <_vfprintf_r+0x16c4>
   131ee:	4705                	li	a4,1
   131f0:	d73a                	sw	a4,172(sp)
   131f2:	06100713          	li	a4,97
   131f6:	44e88b63          	beq	a7,a4,1364c <_vfprintf_r+0x1b1e>
   131fa:	676d                	lui	a4,0x1b
   131fc:	a9870793          	addi	a5,a4,-1384 # 1aa98 <__clzsi2+0xfe>
   13200:	ce3e                	sw	a5,28(sp)
   13202:	d04a                	sw	s2,32(sp)
   13204:	d466                	sw	s9,40(sp)
   13206:	c0de                	sw	s7,64(sp)
   13208:	c6a2                	sw	s0,76(sp)
   1320a:	896a                	mv	s2,s10
   1320c:	c8a6                	sw	s1,80(sp)
   1320e:	caea                	sw	s10,84(sp)
   13210:	44f2                	lw	s1,28(sp)
   13212:	1afd                	addi	s5,s5,-1
   13214:	d246                	sw	a7,36(sp)
   13216:	8bfa                	mv	s7,t5
   13218:	8c76                	mv	s8,t4
   1321a:	8cc2                	mv	s9,a6
   1321c:	8d6e                	mv	s10,s11
   1321e:	842e                	mv	s0,a1
   13220:	a015                	j	13244 <_vfprintf_r+0x1716>
   13222:	85a2                	mv	a1,s0
   13224:	855a                	mv	a0,s6
   13226:	c95e                	sw	s7,144(sp)
   13228:	cb62                	sw	s8,148(sp)
   1322a:	cd66                	sw	s9,152(sp)
   1322c:	cf6a                	sw	s10,156(sp)
   1322e:	c102                	sw	zero,128(sp)
   13230:	c302                	sw	zero,132(sp)
   13232:	c502                	sw	zero,136(sp)
   13234:	c702                	sw	zero,140(sp)
   13236:	fffa8d93          	addi	s11,s5,-1
   1323a:	2f0050ef          	jal	1852a <__eqtf2>
   1323e:	3c050a63          	beqz	a0,13612 <_vfprintf_r+0x1ae4>
   13242:	8aee                	mv	s5,s11
   13244:	400307b7          	lui	a5,0x40030
   13248:	1890                	addi	a2,sp,112
   1324a:	85a2                	mv	a1,s0
   1324c:	855a                	mv	a0,s6
   1324e:	debe                	sw	a5,124(sp)
   13250:	c15e                	sw	s7,128(sp)
   13252:	c362                	sw	s8,132(sp)
   13254:	c566                	sw	s9,136(sp)
   13256:	c76a                	sw	s10,140(sp)
   13258:	d882                	sw	zero,112(sp)
   1325a:	da82                	sw	zero,116(sp)
   1325c:	dc82                	sw	zero,120(sp)
   1325e:	590050ef          	jal	187ee <__multf3>
   13262:	855a                	mv	a0,s6
   13264:	3b4070ef          	jal	1a618 <__fixtfsi>
   13268:	85aa                	mv	a1,a0
   1326a:	8daa                	mv	s11,a0
   1326c:	855a                	mv	a0,s6
   1326e:	4d4a                	lw	s10,144(sp)
   13270:	4cda                	lw	s9,148(sp)
   13272:	4c6a                	lw	s8,152(sp)
   13274:	4bfa                	lw	s7,156(sp)
   13276:	4c6070ef          	jal	1a73c <__floatsitf>
   1327a:	46ca                	lw	a3,144(sp)
   1327c:	1090                	addi	a2,sp,96
   1327e:	188c                	addi	a1,sp,112
   13280:	d0b6                	sw	a3,96(sp)
   13282:	46da                	lw	a3,148(sp)
   13284:	8522                	mv	a0,s0
   13286:	d8ea                	sw	s10,112(sp)
   13288:	d2b6                	sw	a3,100(sp)
   1328a:	46ea                	lw	a3,152(sp)
   1328c:	dae6                	sw	s9,116(sp)
   1328e:	dce2                	sw	s8,120(sp)
   13290:	d4b6                	sw	a3,104(sp)
   13292:	46fa                	lw	a3,156(sp)
   13294:	dede                	sw	s7,124(sp)
   13296:	d6b6                	sw	a3,108(sp)
   13298:	1f2060ef          	jal	1948a <__subtf3>
   1329c:	01b486b3          	add	a3,s1,s11
   132a0:	0006c603          	lbu	a2,0(a3)
   132a4:	8fca                	mv	t6,s2
   132a6:	0905                	addi	s2,s2,1
   132a8:	4b8a                	lw	s7,128(sp)
   132aa:	4c1a                	lw	s8,132(sp)
   132ac:	4caa                	lw	s9,136(sp)
   132ae:	4d3a                	lw	s10,140(sp)
   132b0:	57fd                	li	a5,-1
   132b2:	fec90fa3          	sb	a2,-1(s2)
   132b6:	f6fa96e3          	bne	s5,a5,13222 <_vfprintf_r+0x16f4>
   132ba:	8f5e                	mv	t5,s7
   132bc:	8ee2                	mv	t4,s8
   132be:	8866                	mv	a6,s9
   132c0:	85a2                	mv	a1,s0
   132c2:	ccee                	sw	s11,88(sp)
   132c4:	3ffe0ab7          	lui	s5,0x3ffe0
   132c8:	8dea                	mv	s11,s10
   132ca:	855a                	mv	a0,s6
   132cc:	cefe                	sw	t6,92(sp)
   132ce:	44c6                	lw	s1,80(sp)
   132d0:	4b86                	lw	s7,64(sp)
   132d2:	5ca2                	lw	s9,40(sp)
   132d4:	4436                	lw	s0,76(sp)
   132d6:	c97a                	sw	t5,144(sp)
   132d8:	c8fa                	sw	t5,80(sp)
   132da:	cb76                	sw	t4,148(sp)
   132dc:	c6f6                	sw	t4,76(sp)
   132de:	cd42                	sw	a6,152(sp)
   132e0:	c0c2                	sw	a6,64(sp)
   132e2:	cf6e                	sw	s11,156(sp)
   132e4:	c102                	sw	zero,128(sp)
   132e6:	c302                	sw	zero,132(sp)
   132e8:	c502                	sw	zero,136(sp)
   132ea:	c756                	sw	s5,140(sp)
   132ec:	d42e                	sw	a1,40(sp)
   132ee:	328050ef          	jal	18616 <__getf2>
   132f2:	8c4a                	mv	s8,s2
   132f4:	4d56                	lw	s10,84(sp)
   132f6:	5902                	lw	s2,32(sp)
   132f8:	5892                	lw	a7,36(sp)
   132fa:	4ff6                	lw	t6,92(sp)
   132fc:	00a04e63          	bgtz	a0,13318 <_vfprintf_r+0x17ea>
   13300:	55a2                	lw	a1,40(sp)
   13302:	855a                	mv	a0,s6
   13304:	d07e                	sw	t6,32(sp)
   13306:	224050ef          	jal	1852a <__eqtf2>
   1330a:	5892                	lw	a7,36(sp)
   1330c:	e529                	bnez	a0,13356 <_vfprintf_r+0x1828>
   1330e:	47e6                	lw	a5,88(sp)
   13310:	5f82                	lw	t6,32(sp)
   13312:	0017f693          	andi	a3,a5,1
   13316:	c2a1                	beqz	a3,13356 <_vfprintf_r+0x1828>
   13318:	47f2                	lw	a5,28(sp)
   1331a:	df7e                	sw	t6,188(sp)
   1331c:	fffc4603          	lbu	a2,-1(s8)
   13320:	00f7c583          	lbu	a1,15(a5) # 4003000f <__BSS_END__+0x40013343>
   13324:	86e2                	mv	a3,s8
   13326:	00b61e63          	bne	a2,a1,13342 <_vfprintf_r+0x1814>
   1332a:	03000513          	li	a0,48
   1332e:	fea68fa3          	sb	a0,-1(a3)
   13332:	56fa                	lw	a3,188(sp)
   13334:	fff68793          	addi	a5,a3,-1
   13338:	df3e                	sw	a5,188(sp)
   1333a:	fff6c603          	lbu	a2,-1(a3)
   1333e:	fec588e3          	beq	a1,a2,1332e <_vfprintf_r+0x1800>
   13342:	00160593          	addi	a1,a2,1
   13346:	03900513          	li	a0,57
   1334a:	0ff5f593          	zext.b	a1,a1
   1334e:	02a60c63          	beq	a2,a0,13386 <_vfprintf_r+0x1858>
   13352:	feb68fa3          	sb	a1,-1(a3)
   13356:	57ba                	lw	a5,172(sp)
   13358:	41ac0733          	sub	a4,s8,s10
   1335c:	d03a                	sw	a4,32(sp)
   1335e:	fff78713          	addi	a4,a5,-1
   13362:	ce3e                	sw	a5,28(sp)
   13364:	06100613          	li	a2,97
   13368:	d73a                	sw	a4,172(sp)
   1336a:	07000693          	li	a3,112
   1336e:	00c88663          	beq	a7,a2,1337a <_vfprintf_r+0x184c>
   13372:	05000693          	li	a3,80
   13376:	04100893          	li	a7,65
   1337a:	4605                	li	a2,1
   1337c:	f3eff06f          	j	12aba <_vfprintf_r+0xf8c>
   13380:	86d6                	mv	a3,s5
   13382:	460d                	li	a2,3
   13384:	b365                	j	1312c <_vfprintf_r+0x15fe>
   13386:	47f2                	lw	a5,28(sp)
   13388:	00a7c583          	lbu	a1,10(a5)
   1338c:	b7d9                	j	13352 <_vfprintf_r+0x1824>
   1338e:	0a714703          	lbu	a4,167(sp)
   13392:	4cb6                	lw	s9,76(sp)
   13394:	4a81                	li	s5,0
   13396:	c319                	beqz	a4,1339c <_vfprintf_r+0x186e>
   13398:	af3fe06f          	j	11e8a <_vfprintf_r+0x35c>
   1339c:	90ffe06f          	j	11caa <_vfprintf_r+0x17c>
   133a0:	5782                	lw	a5,32(sp)
   133a2:	4772                	lw	a4,28(sp)
   133a4:	12f74763          	blt	a4,a5,134d2 <_vfprintf_r+0x19a4>
   133a8:	47f2                	lw	a5,28(sp)
   133aa:	001cf713          	andi	a4,s9,1
   133ae:	8b3e                	mv	s6,a5
   133b0:	c701                	beqz	a4,133b8 <_vfprintf_r+0x188a>
   133b2:	5732                	lw	a4,44(sp)
   133b4:	00e78b33          	add	s6,a5,a4
   133b8:	400cfe13          	andi	t3,s9,1024
   133bc:	000e0563          	beqz	t3,133c6 <_vfprintf_r+0x1898>
   133c0:	47f2                	lw	a5,28(sp)
   133c2:	1ef04c63          	bgtz	a5,135ba <_vfprintf_r+0x1a8c>
   133c6:	fffb4693          	not	a3,s6
   133ca:	86fd                	srai	a3,a3,0x1f
   133cc:	00db7db3          	and	s11,s6,a3
   133d0:	06700893          	li	a7,103
   133d4:	d402                	sw	zero,40(sp)
   133d6:	d202                	sw	zero,36(sp)
   133d8:	f84ff06f          	j	12b5c <_vfprintf_r+0x102e>
   133dc:	01d0                	addi	a2,sp,196
   133de:	85a6                	mv	a1,s1
   133e0:	854a                	mv	a0,s2
   133e2:	2191                	jal	13826 <__sprint_r>
   133e4:	98051b63          	bnez	a0,1257a <_vfprintf_r+0xa4c>
   133e8:	000cc683          	lbu	a3,0(s9)
   133ec:	463e                	lw	a2,204(sp)
   133ee:	85ce                	mv	a1,s3
   133f0:	4741                	li	a4,16
   133f2:	481d                	li	a6,7
   133f4:	9d36                	add	s10,s10,a3
   133f6:	b4dd                	j	12edc <_vfprintf_r+0x13ae>
   133f8:	4525                	li	a0,9
   133fa:	836568e3          	bltu	a0,s6,12c2a <_vfprintf_r+0x10fc>
   133fe:	b851                	j	12c92 <_vfprintf_r+0x1164>
   13400:	02d00793          	li	a5,45
   13404:	0af103a3          	sb	a5,167(sp)
   13408:	02d00713          	li	a4,45
   1340c:	b2b1                	j	12d58 <_vfprintf_r+0x122a>
   1340e:	0a714703          	lbu	a4,167(sp)
   13412:	ca62                	sw	s8,20(sp)
   13414:	d402                	sw	zero,40(sp)
   13416:	d202                	sw	zero,36(sp)
   13418:	ce02                	sw	zero,28(sp)
   1341a:	8dd6                	mv	s11,s5
   1341c:	8b56                	mv	s6,s5
   1341e:	4a81                	li	s5,0
   13420:	c319                	beqz	a4,13426 <_vfprintf_r+0x18f8>
   13422:	a69fe06f          	j	11e8a <_vfprintf_r+0x35c>
   13426:	885fe06f          	j	11caa <_vfprintf_r+0x17c>
   1342a:	67ed                	lui	a5,0x1b
   1342c:	a8078d13          	addi	s10,a5,-1408 # 1aa80 <__clzsi2+0xe6>
   13430:	ba1d                	j	12d66 <_vfprintf_r+0x1238>
   13432:	4522                	lw	a0,8(sp)
   13434:	01d0                	addi	a2,sp,196
   13436:	85a6                	mv	a1,s1
   13438:	26fd                	jal	13826 <__sprint_r>
   1343a:	94051063          	bnez	a0,1257a <_vfprintf_r+0xa4c>
   1343e:	5aba                	lw	s5,172(sp)
   13440:	5782                	lw	a5,32(sp)
   13442:	463e                	lw	a2,204(sp)
   13444:	844e                	mv	s0,s3
   13446:	41578ab3          	sub	s5,a5,s5
   1344a:	b0eff06f          	j	12758 <_vfprintf_r+0xc2a>
   1344e:	57ba                	lw	a5,172(sp)
   13450:	ce3e                	sw	a5,28(sp)
   13452:	87ba                	mv	a5,a4
   13454:	b955                	j	13108 <_vfprintf_r+0x15da>
   13456:	57fd                	li	a5,-1
   13458:	c63e                	sw	a5,12(sp)
   1345a:	953fe06f          	j	11dac <_vfprintf_r+0x27e>
   1345e:	010c                	addi	a1,sp,128
   13460:	855a                	mv	a0,s6
   13462:	ceba                	sw	a4,92(sp)
   13464:	ccb2                	sw	a2,88(sp)
   13466:	cac6                	sw	a7,84(sp)
   13468:	c8b6                	sw	a3,80(sp)
   1346a:	c97e                	sw	t6,144(sp)
   1346c:	d47e                	sw	t6,40(sp)
   1346e:	cb7a                	sw	t5,148(sp)
   13470:	d27a                	sw	t5,36(sp)
   13472:	cd76                	sw	t4,152(sp)
   13474:	d076                	sw	t4,32(sp)
   13476:	ce2e                	sw	a1,28(sp)
   13478:	cf62                	sw	s8,156(sp)
   1347a:	c102                	sw	zero,128(sp)
   1347c:	c302                	sw	zero,132(sp)
   1347e:	c502                	sw	zero,136(sp)
   13480:	c702                	sw	zero,140(sp)
   13482:	0a8050ef          	jal	1852a <__eqtf2>
   13486:	45f2                	lw	a1,28(sp)
   13488:	5e82                	lw	t4,32(sp)
   1348a:	5f12                	lw	t5,36(sp)
   1348c:	5fa2                	lw	t6,40(sp)
   1348e:	46c6                	lw	a3,80(sp)
   13490:	48d6                	lw	a7,84(sp)
   13492:	4666                	lw	a2,88(sp)
   13494:	4776                	lw	a4,92(sp)
   13496:	1c051063          	bnez	a0,13656 <_vfprintf_r+0x1b28>
   1349a:	57ba                	lw	a5,172(sp)
   1349c:	973e                	add	a4,a4,a5
   1349e:	ce3e                	sw	a5,28(sp)
   134a0:	41a707b3          	sub	a5,a4,s10
   134a4:	d03e                	sw	a5,32(sp)
   134a6:	47f2                	lw	a5,28(sp)
   134a8:	001cf713          	andi	a4,s9,1
   134ac:	01576733          	or	a4,a4,s5
   134b0:	1af05963          	blez	a5,13662 <_vfprintf_r+0x1b34>
   134b4:	18071463          	bnez	a4,1363c <_vfprintf_r+0x1b0e>
   134b8:	4b72                	lw	s6,28(sp)
   134ba:	06600893          	li	a7,102
   134be:	400cfe13          	andi	t3,s9,1024
   134c2:	0e0e1e63          	bnez	t3,135be <_vfprintf_r+0x1a90>
   134c6:	fffb4693          	not	a3,s6
   134ca:	86fd                	srai	a3,a3,0x1f
   134cc:	00db7db3          	and	s11,s6,a3
   134d0:	b711                	j	133d4 <_vfprintf_r+0x18a6>
   134d2:	5782                	lw	a5,32(sp)
   134d4:	5732                	lw	a4,44(sp)
   134d6:	06700893          	li	a7,103
   134da:	00e78b33          	add	s6,a5,a4
   134de:	47f2                	lw	a5,28(sp)
   134e0:	fcf04fe3          	bgtz	a5,134be <_vfprintf_r+0x1990>
   134e4:	40fb0f33          	sub	t5,s6,a5
   134e8:	001f0b13          	addi	s6,t5,1
   134ec:	fffb4693          	not	a3,s6
   134f0:	86fd                	srai	a3,a3,0x1f
   134f2:	00db7db3          	and	s11,s6,a3
   134f6:	bdf9                	j	133d4 <_vfprintf_r+0x18a6>
   134f8:	686d                	lui	a6,0x1b
   134fa:	55c1                	li	a1,-16
   134fc:	40a00ab3          	neg	s5,a0
   13500:	d7880813          	addi	a6,a6,-648 # 1ad78 <zeroes.0>
   13504:	04b55563          	bge	a0,a1,1354e <_vfprintf_r+0x1a20>
   13508:	ce4a                	sw	s2,28(sp)
   1350a:	4b41                	li	s6,16
   1350c:	4c1d                	li	s8,7
   1350e:	8942                	mv	s2,a6
   13510:	a021                	j	13518 <_vfprintf_r+0x19ea>
   13512:	1ac1                	addi	s5,s5,-16 # 3ffdfff0 <__BSS_END__+0x3ffc3324>
   13514:	035b5b63          	bge	s6,s5,1354a <_vfprintf_r+0x1a1c>
   13518:	0641                	addi	a2,a2,16
   1351a:	0705                	addi	a4,a4,1
   1351c:	01242023          	sw	s2,0(s0)
   13520:	01642223          	sw	s6,4(s0)
   13524:	c7b2                	sw	a2,204(sp)
   13526:	c5ba                	sw	a4,200(sp)
   13528:	0421                	addi	s0,s0,8
   1352a:	feec54e3          	bge	s8,a4,13512 <_vfprintf_r+0x19e4>
   1352e:	4522                	lw	a0,8(sp)
   13530:	01d0                	addi	a2,sp,196
   13532:	85a6                	mv	a1,s1
   13534:	2ccd                	jal	13826 <__sprint_r>
   13536:	c119                	beqz	a0,1353c <_vfprintf_r+0x1a0e>
   13538:	842ff06f          	j	1257a <_vfprintf_r+0xa4c>
   1353c:	463e                	lw	a2,204(sp)
   1353e:	472e                	lw	a4,200(sp)
   13540:	844e                	mv	s0,s3
   13542:	bfc1                	j	13512 <_vfprintf_r+0x19e4>
   13544:	8ee6                	mv	t4,s9
   13546:	ca5fe06f          	j	121ea <_vfprintf_r+0x6bc>
   1354a:	884a                	mv	a6,s2
   1354c:	4972                	lw	s2,28(sp)
   1354e:	9656                	add	a2,a2,s5
   13550:	0705                	addi	a4,a4,1
   13552:	01042023          	sw	a6,0(s0)
   13556:	01542223          	sw	s5,4(s0)
   1355a:	c7b2                	sw	a2,204(sp)
   1355c:	c5ba                	sw	a4,200(sp)
   1355e:	459d                	li	a1,7
   13560:	f8e5d563          	bge	a1,a4,12cea <_vfprintf_r+0x11bc>
   13564:	4522                	lw	a0,8(sp)
   13566:	01d0                	addi	a2,sp,196
   13568:	85a6                	mv	a1,s1
   1356a:	2c75                	jal	13826 <__sprint_r>
   1356c:	c119                	beqz	a0,13572 <_vfprintf_r+0x1a44>
   1356e:	80cff06f          	j	1257a <_vfprintf_r+0xa4c>
   13572:	463e                	lw	a2,204(sp)
   13574:	472e                	lw	a4,200(sp)
   13576:	844e                	mv	s0,s3
   13578:	833ff06f          	j	12daa <_vfprintf_r+0x127c>
   1357c:	0b610693          	addi	a3,sp,182
   13580:	e619                	bnez	a2,1358e <_vfprintf_r+0x1a60>
   13582:	03000693          	li	a3,48
   13586:	0ad10b23          	sb	a3,182(sp)
   1358a:	0b710693          	addi	a3,sp,183
   1358e:	0b1c                	addi	a5,sp,400
   13590:	40f68633          	sub	a2,a3,a5
   13594:	03070713          	addi	a4,a4,48
   13598:	0dd60793          	addi	a5,a2,221
   1359c:	00e68023          	sb	a4,0(a3)
   135a0:	c0be                	sw	a5,64(sp)
   135a2:	d8eff06f          	j	12b30 <_vfprintf_r+0x1002>
   135a6:	c802                	sw	zero,16(sp)
   135a8:	4a99                	li	s5,6
   135aa:	9ebfe06f          	j	11f94 <_vfprintf_r+0x466>
   135ae:	001cf713          	andi	a4,s9,1
   135b2:	d8070863          	beqz	a4,12b42 <_vfprintf_r+0x1014>
   135b6:	d88ff06f          	j	12b3e <_vfprintf_r+0x1010>
   135ba:	06700893          	li	a7,103
   135be:	5672                	lw	a2,60(sp)
   135c0:	0ff00693          	li	a3,255
   135c4:	00064703          	lbu	a4,0(a2)
   135c8:	0ed70163          	beq	a4,a3,136aa <_vfprintf_r+0x1b7c>
   135cc:	47f2                	lw	a5,28(sp)
   135ce:	4501                	li	a0,0
   135d0:	4581                	li	a1,0
   135d2:	00f75a63          	bge	a4,a5,135e6 <_vfprintf_r+0x1ab8>
   135d6:	8f99                	sub	a5,a5,a4
   135d8:	00164703          	lbu	a4,1(a2)
   135dc:	c71d                	beqz	a4,1360a <_vfprintf_r+0x1adc>
   135de:	0585                	addi	a1,a1,1
   135e0:	0605                	addi	a2,a2,1
   135e2:	fed718e3          	bne	a4,a3,135d2 <_vfprintf_r+0x1aa4>
   135e6:	de32                	sw	a2,60(sp)
   135e8:	d22e                	sw	a1,36(sp)
   135ea:	d42a                	sw	a0,40(sp)
   135ec:	ce3e                	sw	a5,28(sp)
   135ee:	57a2                	lw	a5,40(sp)
   135f0:	5712                	lw	a4,36(sp)
   135f2:	973e                	add	a4,a4,a5
   135f4:	47a6                	lw	a5,72(sp)
   135f6:	02f70733          	mul	a4,a4,a5
   135fa:	9b3a                	add	s6,s6,a4
   135fc:	fffb4693          	not	a3,s6
   13600:	86fd                	srai	a3,a3,0x1f
   13602:	00db7db3          	and	s11,s6,a3
   13606:	d56ff06f          	j	12b5c <_vfprintf_r+0x102e>
   1360a:	00064703          	lbu	a4,0(a2)
   1360e:	0505                	addi	a0,a0,1
   13610:	bfc9                	j	135e2 <_vfprintf_r+0x1ab4>
   13612:	8c4a                	mv	s8,s2
   13614:	001a8693          	addi	a3,s5,1
   13618:	5892                	lw	a7,36(sp)
   1361a:	5ca2                	lw	s9,40(sp)
   1361c:	4b86                	lw	s7,64(sp)
   1361e:	4436                	lw	s0,76(sp)
   13620:	5902                	lw	s2,32(sp)
   13622:	44c6                	lw	s1,80(sp)
   13624:	4d56                	lw	s10,84(sp)
   13626:	96e2                	add	a3,a3,s8
   13628:	03000613          	li	a2,48
   1362c:	d20ac5e3          	bltz	s5,13356 <_vfprintf_r+0x1828>
   13630:	0c05                	addi	s8,s8,1
   13632:	fecc0fa3          	sb	a2,-1(s8)
   13636:	ff869de3          	bne	a3,s8,13630 <_vfprintf_r+0x1b02>
   1363a:	bb31                	j	13356 <_vfprintf_r+0x1828>
   1363c:	5732                	lw	a4,44(sp)
   1363e:	06600893          	li	a7,102
   13642:	00ea8f33          	add	t5,s5,a4
   13646:	00ff0b33          	add	s6,t5,a5
   1364a:	bd95                	j	134be <_vfprintf_r+0x1990>
   1364c:	676d                	lui	a4,0x1b
   1364e:	a8470793          	addi	a5,a4,-1404 # 1aa84 <__clzsi2+0xea>
   13652:	ce3e                	sw	a5,28(sp)
   13654:	b67d                	j	13202 <_vfprintf_r+0x16d4>
   13656:	4505                	li	a0,1
   13658:	40d506b3          	sub	a3,a0,a3
   1365c:	d736                	sw	a3,172(sp)
   1365e:	9736                	add	a4,a4,a3
   13660:	b495                	j	130c4 <_vfprintf_r+0x1596>
   13662:	e711                	bnez	a4,1366e <_vfprintf_r+0x1b40>
   13664:	4d85                	li	s11,1
   13666:	06600893          	li	a7,102
   1366a:	4b05                	li	s6,1
   1366c:	b3a5                	j	133d4 <_vfprintf_r+0x18a6>
   1366e:	57b2                	lw	a5,44(sp)
   13670:	06600893          	li	a7,102
   13674:	00178f13          	addi	t5,a5,1
   13678:	015f0b33          	add	s6,t5,s5
   1367c:	fffb4693          	not	a3,s6
   13680:	86fd                	srai	a3,a3,0x1f
   13682:	00db7db3          	and	s11,s6,a3
   13686:	b3b9                	j	133d4 <_vfprintf_r+0x18a6>
   13688:	4789                	li	a5,2
   1368a:	c0be                	sw	a5,64(sp)
   1368c:	ca4ff06f          	j	12b30 <_vfprintf_r+0x1002>
   13690:	47d2                	lw	a5,20(sp)
   13692:	0007aa83          	lw	s5,0(a5)
   13696:	0791                	addi	a5,a5,4
   13698:	000ad363          	bgez	s5,1369e <_vfprintf_r+0x1b70>
   1369c:	5afd                	li	s5,-1
   1369e:	00194883          	lbu	a7,1(s2)
   136a2:	ca3e                	sw	a5,20(sp)
   136a4:	8936                	mv	s2,a3
   136a6:	daafe06f          	j	11c50 <_vfprintf_r+0x122>
   136aa:	d402                	sw	zero,40(sp)
   136ac:	d202                	sw	zero,36(sp)
   136ae:	b781                	j	135ee <_vfprintf_r+0x1ac0>
   136b0:	04500613          	li	a2,69
   136b4:	010c                	addi	a1,sp,128
   136b6:	b439                	j	130c4 <_vfprintf_r+0x1596>
   136b8:	00c4d783          	lhu	a5,12(s1)
   136bc:	0407e793          	ori	a5,a5,64
   136c0:	00f49623          	sh	a5,12(s1)
   136c4:	eb6fe06f          	j	11d7a <_vfprintf_r+0x24c>

000136c8 <vfprintf>:
   136c8:	87aa                	mv	a5,a0
   136ca:	f241a503          	lw	a0,-220(gp) # 1c99c <_impure_ptr>
   136ce:	86b2                	mv	a3,a2
   136d0:	862e                	mv	a2,a1
   136d2:	85be                	mv	a1,a5
   136d4:	c5afe06f          	j	11b2e <_vfprintf_r>

000136d8 <__sbprintf>:
   136d8:	b8010113          	addi	sp,sp,-1152
   136dc:	00c59783          	lh	a5,12(a1)
   136e0:	00e5d703          	lhu	a4,14(a1)
   136e4:	46812c23          	sw	s0,1144(sp)
   136e8:	842e                	mv	s0,a1
   136ea:	65c1                	lui	a1,0x10
   136ec:	15f5                	addi	a1,a1,-3 # fffd <exit-0x97>
   136ee:	06442e03          	lw	t3,100(s0)
   136f2:	01c42303          	lw	t1,28(s0)
   136f6:	02442883          	lw	a7,36(s0)
   136fa:	0742                	slli	a4,a4,0x10
   136fc:	8fed                	and	a5,a5,a1
   136fe:	8fd9                	or	a5,a5,a4
   13700:	40000813          	li	a6,1024
   13704:	ca3e                	sw	a5,20(sp)
   13706:	002c                	addi	a1,sp,8
   13708:	189c                	addi	a5,sp,112
   1370a:	46912a23          	sw	s1,1140(sp)
   1370e:	47212823          	sw	s2,1136(sp)
   13712:	46112e23          	sw	ra,1148(sp)
   13716:	892a                	mv	s2,a0
   13718:	d6f2                	sw	t3,108(sp)
   1371a:	d21a                	sw	t1,36(sp)
   1371c:	d646                	sw	a7,44(sp)
   1371e:	c43e                	sw	a5,8(sp)
   13720:	cc3e                	sw	a5,24(sp)
   13722:	c842                	sw	a6,16(sp)
   13724:	ce42                	sw	a6,28(sp)
   13726:	d002                	sw	zero,32(sp)
   13728:	c06fe0ef          	jal	11b2e <_vfprintf_r>
   1372c:	84aa                	mv	s1,a0
   1372e:	02055963          	bgez	a0,13760 <__sbprintf+0x88>
   13732:	01415783          	lhu	a5,20(sp)
   13736:	0407f793          	andi	a5,a5,64
   1373a:	c799                	beqz	a5,13748 <__sbprintf+0x70>
   1373c:	00c45783          	lhu	a5,12(s0)
   13740:	0407e793          	ori	a5,a5,64
   13744:	00f41623          	sh	a5,12(s0)
   13748:	47c12083          	lw	ra,1148(sp)
   1374c:	47812403          	lw	s0,1144(sp)
   13750:	47012903          	lw	s2,1136(sp)
   13754:	8526                	mv	a0,s1
   13756:	47412483          	lw	s1,1140(sp)
   1375a:	48010113          	addi	sp,sp,1152
   1375e:	8082                	ret
   13760:	002c                	addi	a1,sp,8
   13762:	854a                	mv	a0,s2
   13764:	156010ef          	jal	148ba <_fflush_r>
   13768:	d569                	beqz	a0,13732 <__sbprintf+0x5a>
   1376a:	54fd                	li	s1,-1
   1376c:	b7d9                	j	13732 <__sbprintf+0x5a>

0001376e <__sprint_r.part.0>:
   1376e:	51fc                	lw	a5,100(a1)
   13770:	7179                	addi	sp,sp,-48
   13772:	c85a                	sw	s6,16(sp)
   13774:	d606                	sw	ra,44(sp)
   13776:	01279713          	slli	a4,a5,0x12
   1377a:	8b32                	mv	s6,a2
   1377c:	08075b63          	bgez	a4,13812 <__sprint_r.part.0+0xa4>
   13780:	461c                	lw	a5,8(a2)
   13782:	d04a                	sw	s2,32(sp)
   13784:	ce4e                	sw	s3,28(sp)
   13786:	ca56                	sw	s5,20(sp)
   13788:	c65e                	sw	s7,12(sp)
   1378a:	892e                	mv	s2,a1
   1378c:	00062b83          	lw	s7,0(a2)
   13790:	89aa                	mv	s3,a0
   13792:	5afd                	li	s5,-1
   13794:	cbad                	beqz	a5,13806 <__sprint_r.part.0+0x98>
   13796:	d422                	sw	s0,40(sp)
   13798:	d226                	sw	s1,36(sp)
   1379a:	cc52                	sw	s4,24(sp)
   1379c:	c462                	sw	s8,8(sp)
   1379e:	004bac03          	lw	s8,4(s7)
   137a2:	000ba403          	lw	s0,0(s7)
   137a6:	002c5a13          	srli	s4,s8,0x2
   137aa:	040a0263          	beqz	s4,137ee <__sprint_r.part.0+0x80>
   137ae:	4481                	li	s1,0
   137b0:	a021                	j	137b8 <__sprint_r.part.0+0x4a>
   137b2:	0411                	addi	s0,s0,4
   137b4:	029a0b63          	beq	s4,s1,137ea <__sprint_r.part.0+0x7c>
   137b8:	400c                	lw	a1,0(s0)
   137ba:	864a                	mv	a2,s2
   137bc:	854e                	mv	a0,s3
   137be:	015010ef          	jal	14fd2 <_fputwc_r>
   137c2:	0485                	addi	s1,s1,1
   137c4:	ff5517e3          	bne	a0,s5,137b2 <__sprint_r.part.0+0x44>
   137c8:	5422                	lw	s0,40(sp)
   137ca:	5492                	lw	s1,36(sp)
   137cc:	5902                	lw	s2,32(sp)
   137ce:	49f2                	lw	s3,28(sp)
   137d0:	4a62                	lw	s4,24(sp)
   137d2:	4ad2                	lw	s5,20(sp)
   137d4:	4bb2                	lw	s7,12(sp)
   137d6:	4c22                	lw	s8,8(sp)
   137d8:	557d                	li	a0,-1
   137da:	50b2                	lw	ra,44(sp)
   137dc:	000b2423          	sw	zero,8(s6)
   137e0:	000b2223          	sw	zero,4(s6)
   137e4:	4b42                	lw	s6,16(sp)
   137e6:	6145                	addi	sp,sp,48
   137e8:	8082                	ret
   137ea:	008b2783          	lw	a5,8(s6)
   137ee:	ffcc7c13          	andi	s8,s8,-4
   137f2:	418787b3          	sub	a5,a5,s8
   137f6:	00fb2423          	sw	a5,8(s6)
   137fa:	0ba1                	addi	s7,s7,8
   137fc:	f3cd                	bnez	a5,1379e <__sprint_r.part.0+0x30>
   137fe:	5422                	lw	s0,40(sp)
   13800:	5492                	lw	s1,36(sp)
   13802:	4a62                	lw	s4,24(sp)
   13804:	4c22                	lw	s8,8(sp)
   13806:	5902                	lw	s2,32(sp)
   13808:	49f2                	lw	s3,28(sp)
   1380a:	4ad2                	lw	s5,20(sp)
   1380c:	4bb2                	lw	s7,12(sp)
   1380e:	4501                	li	a0,0
   13810:	b7e9                	j	137da <__sprint_r.part.0+0x6c>
   13812:	12a010ef          	jal	1493c <__sfvwrite_r>
   13816:	50b2                	lw	ra,44(sp)
   13818:	000b2423          	sw	zero,8(s6)
   1381c:	000b2223          	sw	zero,4(s6)
   13820:	4b42                	lw	s6,16(sp)
   13822:	6145                	addi	sp,sp,48
   13824:	8082                	ret

00013826 <__sprint_r>:
   13826:	4618                	lw	a4,8(a2)
   13828:	c311                	beqz	a4,1382c <__sprint_r+0x6>
   1382a:	b791                	j	1376e <__sprint_r.part.0>
   1382c:	00062223          	sw	zero,4(a2)
   13830:	4501                	li	a0,0
   13832:	8082                	ret

00013834 <_vfiprintf_r>:
   13834:	7169                	addi	sp,sp,-304
   13836:	11312e23          	sw	s3,284(sp)
   1383a:	11612823          	sw	s6,272(sp)
   1383e:	11712623          	sw	s7,268(sp)
   13842:	11812423          	sw	s8,264(sp)
   13846:	12112623          	sw	ra,300(sp)
   1384a:	11a12023          	sw	s10,256(sp)
   1384e:	8c2a                	mv	s8,a0
   13850:	8b2e                	mv	s6,a1
   13852:	89b2                	mv	s3,a2
   13854:	8bb6                	mv	s7,a3
   13856:	c501                	beqz	a0,1385e <_vfiprintf_r+0x2a>
   13858:	595c                	lw	a5,52(a0)
   1385a:	480787e3          	beqz	a5,144e8 <_vfiprintf_r+0xcb4>
   1385e:	00cb1783          	lh	a5,12(s6)
   13862:	01279713          	slli	a4,a5,0x12
   13866:	00074f63          	bltz	a4,13884 <_vfiprintf_r+0x50>
   1386a:	064b2703          	lw	a4,100(s6)
   1386e:	6609                	lui	a2,0x2
   13870:	76f9                	lui	a3,0xffffe
   13872:	8fd1                	or	a5,a5,a2
   13874:	16fd                	addi	a3,a3,-1 # ffffdfff <__BSS_END__+0xfffe1333>
   13876:	07c2                	slli	a5,a5,0x10
   13878:	87c1                	srai	a5,a5,0x10
   1387a:	8f75                	and	a4,a4,a3
   1387c:	00fb1623          	sh	a5,12(s6)
   13880:	06eb2223          	sw	a4,100(s6)
   13884:	0087f713          	andi	a4,a5,8
   13888:	cf61                	beqz	a4,13960 <_vfiprintf_r+0x12c>
   1388a:	010b2703          	lw	a4,16(s6)
   1388e:	cb69                	beqz	a4,13960 <_vfiprintf_r+0x12c>
   13890:	8be9                	andi	a5,a5,26
   13892:	4729                	li	a4,10
   13894:	0ee78263          	beq	a5,a4,13978 <_vfiprintf_r+0x144>
   13898:	67ed                	lui	a5,0x1b
   1389a:	4d01                	li	s10,0
   1389c:	11512a23          	sw	s5,276(sp)
   138a0:	11912223          	sw	s9,260(sp)
   138a4:	04c10a93          	addi	s5,sp,76
   138a8:	d9878793          	addi	a5,a5,-616 # 1ad98 <blanks.1+0x10>
   138ac:	6ced                	lui	s9,0x1b
   138ae:	12812423          	sw	s0,296(sp)
   138b2:	13212023          	sw	s2,288(sp)
   138b6:	11412c23          	sw	s4,280(sp)
   138ba:	896a                	mv	s2,s10
   138bc:	12912223          	sw	s1,292(sp)
   138c0:	dfee                	sw	s11,252(sp)
   138c2:	c0d6                	sw	s5,64(sp)
   138c4:	c482                	sw	zero,72(sp)
   138c6:	c282                	sw	zero,68(sp)
   138c8:	8456                	mv	s0,s5
   138ca:	c202                	sw	zero,4(sp)
   138cc:	ca02                	sw	zero,20(sp)
   138ce:	cc02                	sw	zero,24(sp)
   138d0:	ce02                	sw	zero,28(sp)
   138d2:	c03e                	sw	a5,0(sp)
   138d4:	4a41                	li	s4,16
   138d6:	f04c8c93          	addi	s9,s9,-252 # 1af04 <zeroes.0>
   138da:	8d5e                	mv	s10,s7
   138dc:	0009c783          	lbu	a5,0(s3)
   138e0:	22078d63          	beqz	a5,13b1a <_vfiprintf_r+0x2e6>
   138e4:	84ce                	mv	s1,s3
   138e6:	02500713          	li	a4,37
   138ea:	2ae78863          	beq	a5,a4,13b9a <_vfiprintf_r+0x366>
   138ee:	0014c783          	lbu	a5,1(s1)
   138f2:	0485                	addi	s1,s1,1
   138f4:	fbfd                	bnez	a5,138ea <_vfiprintf_r+0xb6>
   138f6:	41348bb3          	sub	s7,s1,s3
   138fa:	23348063          	beq	s1,s3,13b1a <_vfiprintf_r+0x2e6>
   138fe:	4726                	lw	a4,72(sp)
   13900:	4796                	lw	a5,68(sp)
   13902:	01342023          	sw	s3,0(s0)
   13906:	975e                	add	a4,a4,s7
   13908:	0785                	addi	a5,a5,1
   1390a:	01742223          	sw	s7,4(s0)
   1390e:	c4ba                	sw	a4,72(sp)
   13910:	c2be                	sw	a5,68(sp)
   13912:	469d                	li	a3,7
   13914:	0421                	addi	s0,s0,8
   13916:	00f6da63          	bge	a3,a5,1392a <_vfiprintf_r+0xf6>
   1391a:	100705e3          	beqz	a4,14224 <_vfiprintf_r+0x9f0>
   1391e:	0090                	addi	a2,sp,64
   13920:	85da                	mv	a1,s6
   13922:	8562                	mv	a0,s8
   13924:	35a9                	jal	1376e <__sprint_r.part.0>
   13926:	e551                	bnez	a0,139b2 <_vfiprintf_r+0x17e>
   13928:	8456                	mv	s0,s5
   1392a:	0004c783          	lbu	a5,0(s1)
   1392e:	995e                	add	s2,s2,s7
   13930:	1e078563          	beqz	a5,13b1a <_vfiprintf_r+0x2e6>
   13934:	0014c783          	lbu	a5,1(s1)
   13938:	00148993          	addi	s3,s1,1
   1393c:	02010da3          	sb	zero,59(sp)
   13940:	5dfd                	li	s11,-1
   13942:	4b81                	li	s7,0
   13944:	4881                	li	a7,0
   13946:	05a00493          	li	s1,90
   1394a:	0985                	addi	s3,s3,1
   1394c:	86be                	mv	a3,a5
   1394e:	fe068713          	addi	a4,a3,-32
   13952:	0ce4e763          	bltu	s1,a4,13a20 <_vfiprintf_r+0x1ec>
   13956:	4782                	lw	a5,0(sp)
   13958:	070a                	slli	a4,a4,0x2
   1395a:	973e                	add	a4,a4,a5
   1395c:	431c                	lw	a5,0(a4)
   1395e:	8782                	jr	a5
   13960:	85da                	mv	a1,s6
   13962:	8562                	mv	a0,s8
   13964:	4f4010ef          	jal	14e58 <__swsetup_r>
   13968:	440513e3          	bnez	a0,145ae <_vfiprintf_r+0xd7a>
   1396c:	00cb1783          	lh	a5,12(s6)
   13970:	4729                	li	a4,10
   13972:	8be9                	andi	a5,a5,26
   13974:	f2e792e3          	bne	a5,a4,13898 <_vfiprintf_r+0x64>
   13978:	00eb1783          	lh	a5,14(s6)
   1397c:	f007cee3          	bltz	a5,13898 <_vfiprintf_r+0x64>
   13980:	12c12083          	lw	ra,300(sp)
   13984:	10012d03          	lw	s10,256(sp)
   13988:	86de                	mv	a3,s7
   1398a:	864e                	mv	a2,s3
   1398c:	10c12b83          	lw	s7,268(sp)
   13990:	11c12983          	lw	s3,284(sp)
   13994:	85da                	mv	a1,s6
   13996:	8562                	mv	a0,s8
   13998:	11012b03          	lw	s6,272(sp)
   1399c:	10812c03          	lw	s8,264(sp)
   139a0:	6155                	addi	sp,sp,304
   139a2:	4430006f          	j	145e4 <__sbprintf>
   139a6:	0090                	addi	a2,sp,64
   139a8:	85da                	mv	a1,s6
   139aa:	8562                	mv	a0,s8
   139ac:	33c9                	jal	1376e <__sprint_r.part.0>
   139ae:	16050063          	beqz	a0,13b0e <_vfiprintf_r+0x2da>
   139b2:	8d4a                	mv	s10,s2
   139b4:	00cb5783          	lhu	a5,12(s6)
   139b8:	12812403          	lw	s0,296(sp)
   139bc:	12412483          	lw	s1,292(sp)
   139c0:	0407f793          	andi	a5,a5,64
   139c4:	12012903          	lw	s2,288(sp)
   139c8:	11812a03          	lw	s4,280(sp)
   139cc:	11412a83          	lw	s5,276(sp)
   139d0:	10412c83          	lw	s9,260(sp)
   139d4:	5dfe                	lw	s11,252(sp)
   139d6:	3c079ce3          	bnez	a5,145ae <_vfiprintf_r+0xd7a>
   139da:	12c12083          	lw	ra,300(sp)
   139de:	11c12983          	lw	s3,284(sp)
   139e2:	11012b03          	lw	s6,272(sp)
   139e6:	10c12b83          	lw	s7,268(sp)
   139ea:	10812c03          	lw	s8,264(sp)
   139ee:	856a                	mv	a0,s10
   139f0:	10012d03          	lw	s10,256(sp)
   139f4:	6155                	addi	sp,sp,304
   139f6:	8082                	ret
   139f8:	4b81                	li	s7,0
   139fa:	fd068793          	addi	a5,a3,-48
   139fe:	4625                	li	a2,9
   13a00:	0009c683          	lbu	a3,0(s3)
   13a04:	002b9713          	slli	a4,s7,0x2
   13a08:	9bba                	add	s7,s7,a4
   13a0a:	0b86                	slli	s7,s7,0x1
   13a0c:	9bbe                	add	s7,s7,a5
   13a0e:	fd068793          	addi	a5,a3,-48
   13a12:	0985                	addi	s3,s3,1
   13a14:	fef676e3          	bgeu	a2,a5,13a00 <_vfiprintf_r+0x1cc>
   13a18:	fe068713          	addi	a4,a3,-32
   13a1c:	f2e4fde3          	bgeu	s1,a4,13956 <_vfiprintf_r+0x122>
   13a20:	0e068d63          	beqz	a3,13b1a <_vfiprintf_r+0x2e6>
   13a24:	08d10623          	sb	a3,140(sp)
   13a28:	02010da3          	sb	zero,59(sp)
   13a2c:	4305                	li	t1,1
   13a2e:	4e85                	li	t4,1
   13a30:	0164                	addi	s1,sp,140
   13a32:	4d81                	li	s11,0
   13a34:	4f81                	li	t6,0
   13a36:	4716                	lw	a4,68(sp)
   13a38:	0848f293          	andi	t0,a7,132
   13a3c:	47a6                	lw	a5,72(sp)
   13a3e:	00170613          	addi	a2,a4,1
   13a42:	85b2                	mv	a1,a2
   13a44:	00029663          	bnez	t0,13a50 <_vfiprintf_r+0x21c>
   13a48:	406b86b3          	sub	a3,s7,t1
   13a4c:	70d04363          	bgtz	a3,14152 <_vfiprintf_r+0x91e>
   13a50:	03b14683          	lbu	a3,59(sp)
